
/home/jinghanhui/ysyx-workbench/am-kernels/benchmarks/dhrystone/build/dhrystone-riscv32-nemu.elf:     file format elf32-littleriscv


Disassembly of section .text:

80000000 <_start>:
80000000:	00000413          	li	s0,0
80000004:	0000d117          	auipc	sp,0xd
80000008:	ffc10113          	addi	sp,sp,-4 # 8000d000 <_end>
8000000c:	509000ef          	jal	80000d14 <_trm_init>

80000010 <Proc_6>:
80000010:	00200793          	li	a5,2
80000014:	02f50e63          	beq	a0,a5,80000050 <Proc_6+0x40>
80000018:	00300713          	li	a4,3
8000001c:	00e5a023          	sw	a4,0(a1)
80000020:	00100713          	li	a4,1
80000024:	00e50a63          	beq	a0,a4,80000038 <Proc_6+0x28>
80000028:	00400713          	li	a4,4
8000002c:	02e50863          	beq	a0,a4,8000005c <Proc_6+0x4c>
80000030:	00050c63          	beqz	a0,80000048 <Proc_6+0x38>
80000034:	00008067          	ret
80000038:	00005717          	auipc	a4,0x5
8000003c:	8e472703          	lw	a4,-1820(a4) # 8000491c <Int_Glob>
80000040:	06400793          	li	a5,100
80000044:	fee7d8e3          	bge	a5,a4,80000034 <Proc_6+0x24>
80000048:	0005a023          	sw	zero,0(a1)
8000004c:	00008067          	ret
80000050:	00100793          	li	a5,1
80000054:	00f5a023          	sw	a5,0(a1)
80000058:	00008067          	ret
8000005c:	00f5a023          	sw	a5,0(a1)
80000060:	00008067          	ret

80000064 <Proc_1>:
80000064:	00005717          	auipc	a4,0x5
80000068:	8c070713          	addi	a4,a4,-1856 # 80004924 <Ptr_Glob>
8000006c:	00072783          	lw	a5,0(a4)
80000070:	ff010113          	addi	sp,sp,-16
80000074:	00812423          	sw	s0,8(sp)
80000078:	0007a603          	lw	a2,0(a5)
8000007c:	00052403          	lw	s0,0(a0)
80000080:	02c7a683          	lw	a3,44(a5)
80000084:	00912223          	sw	s1,4(sp)
80000088:	0047a283          	lw	t0,4(a5)
8000008c:	0087af83          	lw	t6,8(a5)
80000090:	0107af03          	lw	t5,16(a5)
80000094:	0147ae83          	lw	t4,20(a5)
80000098:	0187ae03          	lw	t3,24(a5)
8000009c:	01c7a303          	lw	t1,28(a5)
800000a0:	0207a883          	lw	a7,32(a5)
800000a4:	0247a803          	lw	a6,36(a5)
800000a8:	0287a583          	lw	a1,40(a5)
800000ac:	00112623          	sw	ra,12(sp)
800000b0:	00c42023          	sw	a2,0(s0)
800000b4:	00052603          	lw	a2,0(a0)
800000b8:	02d42623          	sw	a3,44(s0)
800000bc:	00542223          	sw	t0,4(s0)
800000c0:	01f42423          	sw	t6,8(s0)
800000c4:	01e42823          	sw	t5,16(s0)
800000c8:	01d42a23          	sw	t4,20(s0)
800000cc:	01c42c23          	sw	t3,24(s0)
800000d0:	00642e23          	sw	t1,28(s0)
800000d4:	03142023          	sw	a7,32(s0)
800000d8:	03042223          	sw	a6,36(s0)
800000dc:	02b42423          	sw	a1,40(s0)
800000e0:	00500693          	li	a3,5
800000e4:	00d52623          	sw	a3,12(a0)
800000e8:	00c42023          	sw	a2,0(s0)
800000ec:	0007a483          	lw	s1,0(a5)
800000f0:	00005797          	auipc	a5,0x5
800000f4:	82c7a783          	lw	a5,-2004(a5) # 8000491c <Int_Glob>
800000f8:	00c78793          	addi	a5,a5,12
800000fc:	00942023          	sw	s1,0(s0)
80000100:	00072703          	lw	a4,0(a4)
80000104:	00d42623          	sw	a3,12(s0)
80000108:	00f72623          	sw	a5,12(a4)
8000010c:	00442783          	lw	a5,4(s0)
80000110:	06078e63          	beqz	a5,8000018c <Proc_1+0x128>
80000114:	00052783          	lw	a5,0(a0)
80000118:	00c12083          	lw	ra,12(sp)
8000011c:	00812403          	lw	s0,8(sp)
80000120:	0007af83          	lw	t6,0(a5)
80000124:	0047af03          	lw	t5,4(a5)
80000128:	0087ae83          	lw	t4,8(a5)
8000012c:	00c7ae03          	lw	t3,12(a5)
80000130:	0107a303          	lw	t1,16(a5)
80000134:	0147a883          	lw	a7,20(a5)
80000138:	0187a803          	lw	a6,24(a5)
8000013c:	01c7a583          	lw	a1,28(a5)
80000140:	0207a603          	lw	a2,32(a5)
80000144:	0247a683          	lw	a3,36(a5)
80000148:	0287a703          	lw	a4,40(a5)
8000014c:	02c7a783          	lw	a5,44(a5)
80000150:	01f52023          	sw	t6,0(a0)
80000154:	01e52223          	sw	t5,4(a0)
80000158:	01d52423          	sw	t4,8(a0)
8000015c:	01c52623          	sw	t3,12(a0)
80000160:	00652823          	sw	t1,16(a0)
80000164:	01152a23          	sw	a7,20(a0)
80000168:	01052c23          	sw	a6,24(a0)
8000016c:	00b52e23          	sw	a1,28(a0)
80000170:	02c52023          	sw	a2,32(a0)
80000174:	02d52223          	sw	a3,36(a0)
80000178:	02e52423          	sw	a4,40(a0)
8000017c:	02f52623          	sw	a5,44(a0)
80000180:	00412483          	lw	s1,4(sp)
80000184:	01010113          	addi	sp,sp,16
80000188:	00008067          	ret
8000018c:	00852503          	lw	a0,8(a0)
80000190:	00600793          	li	a5,6
80000194:	00f42623          	sw	a5,12(s0)
80000198:	00840593          	addi	a1,s0,8
8000019c:	e75ff0ef          	jal	80000010 <Proc_6>
800001a0:	01200793          	li	a5,18
800001a4:	00942023          	sw	s1,0(s0)
800001a8:	00c12083          	lw	ra,12(sp)
800001ac:	00f42623          	sw	a5,12(s0)
800001b0:	00812403          	lw	s0,8(sp)
800001b4:	00412483          	lw	s1,4(sp)
800001b8:	01010113          	addi	sp,sp,16
800001bc:	00008067          	ret

800001c0 <main>:
800001c0:	f6010113          	addi	sp,sp,-160
800001c4:	09412423          	sw	s4,136(sp)
800001c8:	08112e23          	sw	ra,156(sp)
800001cc:	08812c23          	sw	s0,152(sp)
800001d0:	08912a23          	sw	s1,148(sp)
800001d4:	09212823          	sw	s2,144(sp)
800001d8:	09312623          	sw	s3,140(sp)
800001dc:	09512223          	sw	s5,132(sp)
800001e0:	09612023          	sw	s6,128(sp)
800001e4:	07712e23          	sw	s7,124(sp)
800001e8:	07812c23          	sw	s8,120(sp)
800001ec:	07912a23          	sw	s9,116(sp)
800001f0:	07a12823          	sw	s10,112(sp)
800001f4:	07b12623          	sw	s11,108(sp)
800001f8:	1d1000ef          	jal	80000bc8 <ioe_init>
800001fc:	00002697          	auipc	a3,0x2
80000200:	92c68693          	addi	a3,a3,-1748 # 80001b28 <free_mem>
80000204:	0006a783          	lw	a5,0(a3)
80000208:	00000a13          	li	s4,0
8000020c:	0037f713          	andi	a4,a5,3
80000210:	02070263          	beqz	a4,80000234 <main+0x74>
80000214:	00178713          	addi	a4,a5,1
80000218:	00377613          	andi	a2,a4,3
8000021c:	00070793          	mv	a5,a4
80000220:	00170713          	addi	a4,a4,1
80000224:	fe061ae3          	bnez	a2,80000218 <main+0x58>
80000228:	03078513          	addi	a0,a5,48
8000022c:	00078713          	mv	a4,a5
80000230:	0280006f          	j	80000258 <main+0x98>
80000234:	0037f713          	andi	a4,a5,3
80000238:	03078513          	addi	a0,a5,48
8000023c:	00070c63          	beqz	a4,80000254 <main+0x94>
80000240:	03178713          	addi	a4,a5,49
80000244:	00377613          	andi	a2,a4,3
80000248:	00070513          	mv	a0,a4
8000024c:	00170713          	addi	a4,a4,1
80000250:	fe061ae3          	bnez	a2,80000244 <main+0x84>
80000254:	00078713          	mv	a4,a5
80000258:	00004617          	auipc	a2,0x4
8000025c:	6c860613          	addi	a2,a2,1736 # 80004920 <Next_Ptr_Glob>
80000260:	00004c97          	auipc	s9,0x4
80000264:	6c4c8c93          	addi	s9,s9,1732 # 80004924 <Ptr_Glob>
80000268:	00e62023          	sw	a4,0(a2)
8000026c:	00aca023          	sw	a0,0(s9)
80000270:	00f52023          	sw	a5,0(a0)
80000274:	00200793          	li	a5,2
80000278:	00f52423          	sw	a5,8(a0)
8000027c:	02800793          	li	a5,40
80000280:	03050713          	addi	a4,a0,48
80000284:	00f52623          	sw	a5,12(a0)
80000288:	00052223          	sw	zero,4(a0)
8000028c:	00001597          	auipc	a1,0x1
80000290:	32458593          	addi	a1,a1,804 # 800015b0 <_etext+0x10>
80000294:	01050513          	addi	a0,a0,16
80000298:	00e6a023          	sw	a4,0(a3)
8000029c:	299000ef          	jal	80000d34 <strcpy>
800002a0:	00001597          	auipc	a1,0x1
800002a4:	33058593          	addi	a1,a1,816 # 800015d0 <_etext+0x30>
800002a8:	02010513          	addi	a0,sp,32
800002ac:	289000ef          	jal	80000d34 <strcpy>
800002b0:	00a00793          	li	a5,10
800002b4:	00001597          	auipc	a1,0x1
800002b8:	33c58593          	addi	a1,a1,828 # 800015f0 <_etext+0x50>
800002bc:	00002997          	auipc	s3,0x2
800002c0:	e7098993          	addi	s3,s3,-400 # 8000212c <Arr_2_Glob>
800002c4:	00001517          	auipc	a0,0x1
800002c8:	33c50513          	addi	a0,a0,828 # 80001600 <_etext+0x60>
800002cc:	64f9ae23          	sw	a5,1628(s3)
800002d0:	55d000ef          	jal	8000102c <printf>
800002d4:	0007a5b7          	lui	a1,0x7a
800002d8:	12058593          	addi	a1,a1,288 # 7a120 <_entry_offset+0x7a120>
800002dc:	00001517          	auipc	a0,0x1
800002e0:	34850513          	addi	a0,a0,840 # 80001624 <_etext+0x84>
800002e4:	00004797          	auipc	a5,0x4
800002e8:	6207a623          	sw	zero,1580(a5) # 80004910 <Done>
800002ec:	541000ef          	jal	8000102c <printf>
800002f0:	04010593          	addi	a1,sp,64
800002f4:	00600513          	li	a0,6
800002f8:	12d000ef          	jal	80000c24 <ioe_read>
800002fc:	04012503          	lw	a0,64(sp)
80000300:	04412583          	lw	a1,68(sp)
80000304:	3e800613          	li	a2,1000
80000308:	00000693          	li	a3,0
8000030c:	184010ef          	jal	80001490 <__udivdi3>
80000310:	0007a7b7          	lui	a5,0x7a
80000314:	00004717          	auipc	a4,0x4
80000318:	5f870713          	addi	a4,a4,1528 # 8000490c <Begin_Time>
8000031c:	12178793          	addi	a5,a5,289 # 7a121 <_entry_offset+0x7a121>
80000320:	00a72023          	sw	a0,0(a4)
80000324:	00100493          	li	s1,1
80000328:	00004917          	auipc	s2,0x4
8000032c:	5ed90913          	addi	s2,s2,1517 # 80004915 <Ch_1_Glob>
80000330:	00004b97          	auipc	s7,0x4
80000334:	5e8b8b93          	addi	s7,s7,1512 # 80004918 <Bool_Glob>
80000338:	00004d97          	auipc	s11,0x4
8000033c:	5dcd8d93          	addi	s11,s11,1500 # 80004914 <Ch_2_Glob>
80000340:	00004a97          	auipc	s5,0x4
80000344:	4fca8a93          	addi	s5,s5,1276 # 8000483c <Arr_1_Glob>
80000348:	00004b17          	auipc	s6,0x4
8000034c:	5d4b0b13          	addi	s6,s6,1492 # 8000491c <Int_Glob>
80000350:	04100c13          	li	s8,65
80000354:	04300413          	li	s0,67
80000358:	00f12223          	sw	a5,4(sp)
8000035c:	00100793          	li	a5,1
80000360:	00fba023          	sw	a5,0(s7)
80000364:	00001597          	auipc	a1,0x1
80000368:	2e458593          	addi	a1,a1,740 # 80001648 <_etext+0xa8>
8000036c:	04200793          	li	a5,66
80000370:	04010513          	addi	a0,sp,64
80000374:	00fd8023          	sb	a5,0(s11)
80000378:	01890023          	sb	s8,0(s2)
8000037c:	1b9000ef          	jal	80000d34 <strcpy>
80000380:	04314703          	lbu	a4,67(sp)
80000384:	02214783          	lbu	a5,34(sp)
80000388:	00000693          	li	a3,0
8000038c:	78e78663          	beq	a5,a4,80000b18 <main+0x958>
80000390:	00068463          	beqz	a3,80000398 <main+0x1d8>
80000394:	01490023          	sb	s4,0(s2)
80000398:	04010593          	addi	a1,sp,64
8000039c:	02010513          	addi	a0,sp,32
800003a0:	1bd000ef          	jal	80000d5c <strcmp>
800003a4:	65c9a703          	lw	a4,1628(s3)
800003a8:	00050613          	mv	a2,a0
800003ac:	000ca503          	lw	a0,0(s9)
800003b0:	00170713          	addi	a4,a4,1
800003b4:	00700793          	li	a5,7
800003b8:	64e9ae23          	sw	a4,1628(s3)
800003bc:	00003717          	auipc	a4,0x3
800003c0:	d7070713          	addi	a4,a4,-656 # 8000312c <Arr_2_Glob+0x1000>
800003c4:	00800693          	li	a3,8
800003c8:	60f72023          	sw	a5,1536(a4)
800003cc:	00162613          	slti	a2,a2,1
800003d0:	02faa023          	sw	a5,32(s5)
800003d4:	02faa223          	sw	a5,36(s5)
800003d8:	00500793          	li	a5,5
800003dc:	00fb2023          	sw	a5,0(s6)
800003e0:	00cba023          	sw	a2,0(s7)
800003e4:	08daac23          	sw	a3,152(s5)
800003e8:	66d9a023          	sw	a3,1632(s3)
800003ec:	66d9a223          	sw	a3,1636(s3)
800003f0:	c75ff0ef          	jal	80000064 <Proc_1>
800003f4:	000dc703          	lbu	a4,0(s11)
800003f8:	04000793          	li	a5,64
800003fc:	72e7f463          	bgeu	a5,a4,80000b24 <main+0x964>
80000400:	00300693          	li	a3,3
80000404:	00100813          	li	a6,1
80000408:	04100d13          	li	s10,65
8000040c:	00000713          	li	a4,0
80000410:	03070463          	beq	a4,a6,80000438 <main+0x278>
80000414:	000dc703          	lbu	a4,0(s11)
80000418:	001d0793          	addi	a5,s10,1
8000041c:	0ff7fd13          	zext.b	s10,a5
80000420:	05a76263          	bltu	a4,s10,80000464 <main+0x2a4>
80000424:	00000713          	li	a4,0
80000428:	fe8d14e3          	bne	s10,s0,80000410 <main+0x250>
8000042c:	01a90023          	sb	s10,0(s2)
80000430:	00100713          	li	a4,1
80000434:	ff0710e3          	bne	a4,a6,80000414 <main+0x254>
80000438:	00001597          	auipc	a1,0x1
8000043c:	23058593          	addi	a1,a1,560 # 80001668 <_etext+0xc8>
80000440:	04010513          	addi	a0,sp,64
80000444:	0f1000ef          	jal	80000d34 <strcpy>
80000448:	000dc703          	lbu	a4,0(s11)
8000044c:	001d0793          	addi	a5,s10,1
80000450:	009b2023          	sw	s1,0(s6)
80000454:	0ff7fd13          	zext.b	s10,a5
80000458:	00048693          	mv	a3,s1
8000045c:	00000813          	li	a6,0
80000460:	fda772e3          	bgeu	a4,s10,80000424 <main+0x264>
80000464:	00169793          	slli	a5,a3,0x1
80000468:	00d787b3          	add	a5,a5,a3
8000046c:	00700713          	li	a4,7
80000470:	02e7c733          	div	a4,a5,a4
80000474:	ff978793          	addi	a5,a5,-7
80000478:	00379693          	slli	a3,a5,0x3
8000047c:	40f687b3          	sub	a5,a3,a5
80000480:	40e787b3          	sub	a5,a5,a4
80000484:	00094683          	lbu	a3,0(s2)
80000488:	01869863          	bne	a3,s8,80000498 <main+0x2d8>
8000048c:	000b2683          	lw	a3,0(s6)
80000490:	00970713          	addi	a4,a4,9
80000494:	40d70733          	sub	a4,a4,a3
80000498:	00412683          	lw	a3,4(sp)
8000049c:	00148493          	addi	s1,s1,1
800004a0:	ead49ee3          	bne	s1,a3,8000035c <main+0x19c>
800004a4:	01810593          	addi	a1,sp,24
800004a8:	00600513          	li	a0,6
800004ac:	00f12623          	sw	a5,12(sp)
800004b0:	01012423          	sw	a6,8(sp)
800004b4:	00e12223          	sw	a4,4(sp)
800004b8:	76c000ef          	jal	80000c24 <ioe_read>
800004bc:	01812503          	lw	a0,24(sp)
800004c0:	01c12583          	lw	a1,28(sp)
800004c4:	3e800613          	li	a2,1000
800004c8:	00000693          	li	a3,0
800004cc:	7c5000ef          	jal	80001490 <__udivdi3>
800004d0:	00004797          	auipc	a5,0x4
800004d4:	43c78793          	addi	a5,a5,1084 # 8000490c <Begin_Time>
800004d8:	0007a603          	lw	a2,0(a5)
800004dc:	00050693          	mv	a3,a0
800004e0:	000b2583          	lw	a1,0(s6)
800004e4:	40c68633          	sub	a2,a3,a2
800004e8:	00004417          	auipc	s0,0x4
800004ec:	41c40413          	addi	s0,s0,1052 # 80004904 <User_Time>
800004f0:	00004517          	auipc	a0,0x4
800004f4:	40d52c23          	sw	a3,1048(a0) # 80004908 <End_Time>
800004f8:	00100693          	li	a3,1
800004fc:	00c42023          	sw	a2,0(s0)
80000500:	00004617          	auipc	a2,0x4
80000504:	40d62823          	sw	a3,1040(a2) # 80004910 <Done>
80000508:	00500693          	li	a3,5
8000050c:	00412703          	lw	a4,4(sp)
80000510:	00812803          	lw	a6,8(sp)
80000514:	00c12783          	lw	a5,12(sp)
80000518:	02d58a63          	beq	a1,a3,8000054c <main+0x38c>
8000051c:	00001517          	auipc	a0,0x1
80000520:	16c50513          	addi	a0,a0,364 # 80001688 <_etext+0xe8>
80000524:	00001697          	auipc	a3,0x1
80000528:	6006a023          	sw	zero,1536(a3) # 80001b24 <pass>
8000052c:	301000ef          	jal	8000102c <printf>
80000530:	00500593          	li	a1,5
80000534:	00001517          	auipc	a0,0x1
80000538:	17050513          	addi	a0,a0,368 # 800016a4 <_etext+0x104>
8000053c:	2f1000ef          	jal	8000102c <printf>
80000540:	00c12783          	lw	a5,12(sp)
80000544:	00812803          	lw	a6,8(sp)
80000548:	00412703          	lw	a4,4(sp)
8000054c:	000ba583          	lw	a1,0(s7)
80000550:	00100693          	li	a3,1
80000554:	04d58063          	beq	a1,a3,80000594 <main+0x3d4>
80000558:	00001517          	auipc	a0,0x1
8000055c:	16850513          	addi	a0,a0,360 # 800016c0 <_etext+0x120>
80000560:	00f12623          	sw	a5,12(sp)
80000564:	01012423          	sw	a6,8(sp)
80000568:	00e12223          	sw	a4,4(sp)
8000056c:	00001697          	auipc	a3,0x1
80000570:	5a06ac23          	sw	zero,1464(a3) # 80001b24 <pass>
80000574:	2b9000ef          	jal	8000102c <printf>
80000578:	00100593          	li	a1,1
8000057c:	00001517          	auipc	a0,0x1
80000580:	12850513          	addi	a0,a0,296 # 800016a4 <_etext+0x104>
80000584:	2a9000ef          	jal	8000102c <printf>
80000588:	00c12783          	lw	a5,12(sp)
8000058c:	00812803          	lw	a6,8(sp)
80000590:	00412703          	lw	a4,4(sp)
80000594:	00094583          	lbu	a1,0(s2)
80000598:	04100693          	li	a3,65
8000059c:	04d58063          	beq	a1,a3,800005dc <main+0x41c>
800005a0:	00001517          	auipc	a0,0x1
800005a4:	13c50513          	addi	a0,a0,316 # 800016dc <_etext+0x13c>
800005a8:	00f12623          	sw	a5,12(sp)
800005ac:	01012423          	sw	a6,8(sp)
800005b0:	00e12223          	sw	a4,4(sp)
800005b4:	00001697          	auipc	a3,0x1
800005b8:	5606a823          	sw	zero,1392(a3) # 80001b24 <pass>
800005bc:	271000ef          	jal	8000102c <printf>
800005c0:	04100593          	li	a1,65
800005c4:	00001517          	auipc	a0,0x1
800005c8:	13450513          	addi	a0,a0,308 # 800016f8 <_etext+0x158>
800005cc:	261000ef          	jal	8000102c <printf>
800005d0:	00c12783          	lw	a5,12(sp)
800005d4:	00812803          	lw	a6,8(sp)
800005d8:	00412703          	lw	a4,4(sp)
800005dc:	000dc583          	lbu	a1,0(s11)
800005e0:	04200693          	li	a3,66
800005e4:	04d58063          	beq	a1,a3,80000624 <main+0x464>
800005e8:	00001517          	auipc	a0,0x1
800005ec:	12c50513          	addi	a0,a0,300 # 80001714 <_etext+0x174>
800005f0:	00f12623          	sw	a5,12(sp)
800005f4:	01012423          	sw	a6,8(sp)
800005f8:	00e12223          	sw	a4,4(sp)
800005fc:	00001697          	auipc	a3,0x1
80000600:	5206a423          	sw	zero,1320(a3) # 80001b24 <pass>
80000604:	229000ef          	jal	8000102c <printf>
80000608:	04200593          	li	a1,66
8000060c:	00001517          	auipc	a0,0x1
80000610:	0ec50513          	addi	a0,a0,236 # 800016f8 <_etext+0x158>
80000614:	219000ef          	jal	8000102c <printf>
80000618:	00c12783          	lw	a5,12(sp)
8000061c:	00812803          	lw	a6,8(sp)
80000620:	00412703          	lw	a4,4(sp)
80000624:	020aa583          	lw	a1,32(s5)
80000628:	00700693          	li	a3,7
8000062c:	04d58063          	beq	a1,a3,8000066c <main+0x4ac>
80000630:	00001517          	auipc	a0,0x1
80000634:	10050513          	addi	a0,a0,256 # 80001730 <_etext+0x190>
80000638:	00f12623          	sw	a5,12(sp)
8000063c:	01012423          	sw	a6,8(sp)
80000640:	00e12223          	sw	a4,4(sp)
80000644:	00001697          	auipc	a3,0x1
80000648:	4e06a023          	sw	zero,1248(a3) # 80001b24 <pass>
8000064c:	1e1000ef          	jal	8000102c <printf>
80000650:	00700593          	li	a1,7
80000654:	00001517          	auipc	a0,0x1
80000658:	05050513          	addi	a0,a0,80 # 800016a4 <_etext+0x104>
8000065c:	1d1000ef          	jal	8000102c <printf>
80000660:	00c12783          	lw	a5,12(sp)
80000664:	00812803          	lw	a6,8(sp)
80000668:	00412703          	lw	a4,4(sp)
8000066c:	65c9a583          	lw	a1,1628(s3)
80000670:	0007a6b7          	lui	a3,0x7a
80000674:	12a68693          	addi	a3,a3,298 # 7a12a <_entry_offset+0x7a12a>
80000678:	02d58e63          	beq	a1,a3,800006b4 <main+0x4f4>
8000067c:	00001517          	auipc	a0,0x1
80000680:	0d050513          	addi	a0,a0,208 # 8000174c <_etext+0x1ac>
80000684:	00f12623          	sw	a5,12(sp)
80000688:	01012423          	sw	a6,8(sp)
8000068c:	00e12223          	sw	a4,4(sp)
80000690:	00001697          	auipc	a3,0x1
80000694:	4806aa23          	sw	zero,1172(a3) # 80001b24 <pass>
80000698:	195000ef          	jal	8000102c <printf>
8000069c:	00001517          	auipc	a0,0x1
800006a0:	0cc50513          	addi	a0,a0,204 # 80001768 <_etext+0x1c8>
800006a4:	189000ef          	jal	8000102c <printf>
800006a8:	00c12783          	lw	a5,12(sp)
800006ac:	00812803          	lw	a6,8(sp)
800006b0:	00412703          	lw	a4,4(sp)
800006b4:	000ca683          	lw	a3,0(s9)
800006b8:	0046a583          	lw	a1,4(a3)
800006bc:	04058063          	beqz	a1,800006fc <main+0x53c>
800006c0:	00001517          	auipc	a0,0x1
800006c4:	0d450513          	addi	a0,a0,212 # 80001794 <_etext+0x1f4>
800006c8:	00f12623          	sw	a5,12(sp)
800006cc:	01012423          	sw	a6,8(sp)
800006d0:	00e12223          	sw	a4,4(sp)
800006d4:	00001697          	auipc	a3,0x1
800006d8:	4406a823          	sw	zero,1104(a3) # 80001b24 <pass>
800006dc:	151000ef          	jal	8000102c <printf>
800006e0:	00000593          	li	a1,0
800006e4:	00001517          	auipc	a0,0x1
800006e8:	fc050513          	addi	a0,a0,-64 # 800016a4 <_etext+0x104>
800006ec:	141000ef          	jal	8000102c <printf>
800006f0:	00c12783          	lw	a5,12(sp)
800006f4:	00812803          	lw	a6,8(sp)
800006f8:	00412703          	lw	a4,4(sp)
800006fc:	000ca603          	lw	a2,0(s9)
80000700:	00200693          	li	a3,2
80000704:	00862583          	lw	a1,8(a2)
80000708:	04d58063          	beq	a1,a3,80000748 <main+0x588>
8000070c:	00001517          	auipc	a0,0x1
80000710:	0ac50513          	addi	a0,a0,172 # 800017b8 <_etext+0x218>
80000714:	00f12623          	sw	a5,12(sp)
80000718:	01012423          	sw	a6,8(sp)
8000071c:	00e12223          	sw	a4,4(sp)
80000720:	00001697          	auipc	a3,0x1
80000724:	4006a223          	sw	zero,1028(a3) # 80001b24 <pass>
80000728:	105000ef          	jal	8000102c <printf>
8000072c:	00200593          	li	a1,2
80000730:	00001517          	auipc	a0,0x1
80000734:	f7450513          	addi	a0,a0,-140 # 800016a4 <_etext+0x104>
80000738:	0f5000ef          	jal	8000102c <printf>
8000073c:	00c12783          	lw	a5,12(sp)
80000740:	00812803          	lw	a6,8(sp)
80000744:	00412703          	lw	a4,4(sp)
80000748:	000ca603          	lw	a2,0(s9)
8000074c:	01100693          	li	a3,17
80000750:	00c62583          	lw	a1,12(a2)
80000754:	04d58063          	beq	a1,a3,80000794 <main+0x5d4>
80000758:	00001517          	auipc	a0,0x1
8000075c:	08450513          	addi	a0,a0,132 # 800017dc <_etext+0x23c>
80000760:	00f12623          	sw	a5,12(sp)
80000764:	01012423          	sw	a6,8(sp)
80000768:	00e12223          	sw	a4,4(sp)
8000076c:	00001697          	auipc	a3,0x1
80000770:	3a06ac23          	sw	zero,952(a3) # 80001b24 <pass>
80000774:	0b9000ef          	jal	8000102c <printf>
80000778:	01100593          	li	a1,17
8000077c:	00001517          	auipc	a0,0x1
80000780:	f2850513          	addi	a0,a0,-216 # 800016a4 <_etext+0x104>
80000784:	0a9000ef          	jal	8000102c <printf>
80000788:	00c12783          	lw	a5,12(sp)
8000078c:	00812803          	lw	a6,8(sp)
80000790:	00412703          	lw	a4,4(sp)
80000794:	000ca503          	lw	a0,0(s9)
80000798:	00001597          	auipc	a1,0x1
8000079c:	e1858593          	addi	a1,a1,-488 # 800015b0 <_etext+0x10>
800007a0:	00f12623          	sw	a5,12(sp)
800007a4:	01050513          	addi	a0,a0,16
800007a8:	01012423          	sw	a6,8(sp)
800007ac:	00e12223          	sw	a4,4(sp)
800007b0:	5ac000ef          	jal	80000d5c <strcmp>
800007b4:	00412703          	lw	a4,4(sp)
800007b8:	00812803          	lw	a6,8(sp)
800007bc:	00c12783          	lw	a5,12(sp)
800007c0:	02050c63          	beqz	a0,800007f8 <main+0x638>
800007c4:	000ca583          	lw	a1,0(s9)
800007c8:	00001517          	auipc	a0,0x1
800007cc:	03850513          	addi	a0,a0,56 # 80001800 <_etext+0x260>
800007d0:	00001697          	auipc	a3,0x1
800007d4:	3406aa23          	sw	zero,852(a3) # 80001b24 <pass>
800007d8:	01058593          	addi	a1,a1,16
800007dc:	051000ef          	jal	8000102c <printf>
800007e0:	00001517          	auipc	a0,0x1
800007e4:	04450513          	addi	a0,a0,68 # 80001824 <_etext+0x284>
800007e8:	045000ef          	jal	8000102c <printf>
800007ec:	00c12783          	lw	a5,12(sp)
800007f0:	00812803          	lw	a6,8(sp)
800007f4:	00412703          	lw	a4,4(sp)
800007f8:	00004697          	auipc	a3,0x4
800007fc:	12868693          	addi	a3,a3,296 # 80004920 <Next_Ptr_Glob>
80000800:	0006a683          	lw	a3,0(a3)
80000804:	0046a583          	lw	a1,4(a3)
80000808:	04058063          	beqz	a1,80000848 <main+0x688>
8000080c:	00001517          	auipc	a0,0x1
80000810:	05050513          	addi	a0,a0,80 # 8000185c <_etext+0x2bc>
80000814:	00f12623          	sw	a5,12(sp)
80000818:	01012423          	sw	a6,8(sp)
8000081c:	00e12223          	sw	a4,4(sp)
80000820:	00001697          	auipc	a3,0x1
80000824:	3006a223          	sw	zero,772(a3) # 80001b24 <pass>
80000828:	005000ef          	jal	8000102c <printf>
8000082c:	00000593          	li	a1,0
80000830:	00001517          	auipc	a0,0x1
80000834:	e7450513          	addi	a0,a0,-396 # 800016a4 <_etext+0x104>
80000838:	7f4000ef          	jal	8000102c <printf>
8000083c:	00c12783          	lw	a5,12(sp)
80000840:	00812803          	lw	a6,8(sp)
80000844:	00412703          	lw	a4,4(sp)
80000848:	00004697          	auipc	a3,0x4
8000084c:	0d868693          	addi	a3,a3,216 # 80004920 <Next_Ptr_Glob>
80000850:	0006a603          	lw	a2,0(a3)
80000854:	00100693          	li	a3,1
80000858:	00862583          	lw	a1,8(a2)
8000085c:	04d58063          	beq	a1,a3,8000089c <main+0x6dc>
80000860:	00001517          	auipc	a0,0x1
80000864:	02450513          	addi	a0,a0,36 # 80001884 <_etext+0x2e4>
80000868:	00f12623          	sw	a5,12(sp)
8000086c:	01012423          	sw	a6,8(sp)
80000870:	00e12223          	sw	a4,4(sp)
80000874:	00001697          	auipc	a3,0x1
80000878:	2a06a823          	sw	zero,688(a3) # 80001b24 <pass>
8000087c:	7b0000ef          	jal	8000102c <printf>
80000880:	00100593          	li	a1,1
80000884:	00001517          	auipc	a0,0x1
80000888:	e2050513          	addi	a0,a0,-480 # 800016a4 <_etext+0x104>
8000088c:	7a0000ef          	jal	8000102c <printf>
80000890:	00c12783          	lw	a5,12(sp)
80000894:	00812803          	lw	a6,8(sp)
80000898:	00412703          	lw	a4,4(sp)
8000089c:	00004697          	auipc	a3,0x4
800008a0:	08468693          	addi	a3,a3,132 # 80004920 <Next_Ptr_Glob>
800008a4:	0006a603          	lw	a2,0(a3)
800008a8:	01200693          	li	a3,18
800008ac:	00c62583          	lw	a1,12(a2)
800008b0:	04d58063          	beq	a1,a3,800008f0 <main+0x730>
800008b4:	00001517          	auipc	a0,0x1
800008b8:	ff850513          	addi	a0,a0,-8 # 800018ac <_etext+0x30c>
800008bc:	00f12623          	sw	a5,12(sp)
800008c0:	01012423          	sw	a6,8(sp)
800008c4:	00e12223          	sw	a4,4(sp)
800008c8:	00001697          	auipc	a3,0x1
800008cc:	2406ae23          	sw	zero,604(a3) # 80001b24 <pass>
800008d0:	75c000ef          	jal	8000102c <printf>
800008d4:	01200593          	li	a1,18
800008d8:	00001517          	auipc	a0,0x1
800008dc:	dcc50513          	addi	a0,a0,-564 # 800016a4 <_etext+0x104>
800008e0:	74c000ef          	jal	8000102c <printf>
800008e4:	00c12783          	lw	a5,12(sp)
800008e8:	00812803          	lw	a6,8(sp)
800008ec:	00412703          	lw	a4,4(sp)
800008f0:	00004497          	auipc	s1,0x4
800008f4:	03048493          	addi	s1,s1,48 # 80004920 <Next_Ptr_Glob>
800008f8:	0004a503          	lw	a0,0(s1)
800008fc:	00001597          	auipc	a1,0x1
80000900:	cb458593          	addi	a1,a1,-844 # 800015b0 <_etext+0x10>
80000904:	00f12623          	sw	a5,12(sp)
80000908:	01050513          	addi	a0,a0,16
8000090c:	01012423          	sw	a6,8(sp)
80000910:	00e12223          	sw	a4,4(sp)
80000914:	448000ef          	jal	80000d5c <strcmp>
80000918:	00412703          	lw	a4,4(sp)
8000091c:	00812803          	lw	a6,8(sp)
80000920:	00c12783          	lw	a5,12(sp)
80000924:	02050c63          	beqz	a0,8000095c <main+0x79c>
80000928:	0004a583          	lw	a1,0(s1)
8000092c:	00001517          	auipc	a0,0x1
80000930:	fa850513          	addi	a0,a0,-88 # 800018d4 <_etext+0x334>
80000934:	00001697          	auipc	a3,0x1
80000938:	1e06a823          	sw	zero,496(a3) # 80001b24 <pass>
8000093c:	01058593          	addi	a1,a1,16
80000940:	6ec000ef          	jal	8000102c <printf>
80000944:	00001517          	auipc	a0,0x1
80000948:	ee050513          	addi	a0,a0,-288 # 80001824 <_etext+0x284>
8000094c:	6e0000ef          	jal	8000102c <printf>
80000950:	00c12783          	lw	a5,12(sp)
80000954:	00812803          	lw	a6,8(sp)
80000958:	00412703          	lw	a4,4(sp)
8000095c:	00500693          	li	a3,5
80000960:	02d70e63          	beq	a4,a3,8000099c <main+0x7dc>
80000964:	00070593          	mv	a1,a4
80000968:	00001517          	auipc	a0,0x1
8000096c:	f9450513          	addi	a0,a0,-108 # 800018fc <_etext+0x35c>
80000970:	00f12423          	sw	a5,8(sp)
80000974:	01012223          	sw	a6,4(sp)
80000978:	00001717          	auipc	a4,0x1
8000097c:	1a072623          	sw	zero,428(a4) # 80001b24 <pass>
80000980:	6ac000ef          	jal	8000102c <printf>
80000984:	00500593          	li	a1,5
80000988:	00001517          	auipc	a0,0x1
8000098c:	d1c50513          	addi	a0,a0,-740 # 800016a4 <_etext+0x104>
80000990:	69c000ef          	jal	8000102c <printf>
80000994:	00812783          	lw	a5,8(sp)
80000998:	00412803          	lw	a6,4(sp)
8000099c:	00d00713          	li	a4,13
800009a0:	02e78a63          	beq	a5,a4,800009d4 <main+0x814>
800009a4:	00078593          	mv	a1,a5
800009a8:	00001517          	auipc	a0,0x1
800009ac:	f7050513          	addi	a0,a0,-144 # 80001918 <_etext+0x378>
800009b0:	01012223          	sw	a6,4(sp)
800009b4:	00001797          	auipc	a5,0x1
800009b8:	1607a823          	sw	zero,368(a5) # 80001b24 <pass>
800009bc:	670000ef          	jal	8000102c <printf>
800009c0:	00d00593          	li	a1,13
800009c4:	00001517          	auipc	a0,0x1
800009c8:	ce050513          	addi	a0,a0,-800 # 800016a4 <_etext+0x104>
800009cc:	660000ef          	jal	8000102c <printf>
800009d0:	00412803          	lw	a6,4(sp)
800009d4:	02081663          	bnez	a6,80000a00 <main+0x840>
800009d8:	00000593          	li	a1,0
800009dc:	00001517          	auipc	a0,0x1
800009e0:	f5850513          	addi	a0,a0,-168 # 80001934 <_etext+0x394>
800009e4:	00001797          	auipc	a5,0x1
800009e8:	1407a023          	sw	zero,320(a5) # 80001b24 <pass>
800009ec:	640000ef          	jal	8000102c <printf>
800009f0:	00100593          	li	a1,1
800009f4:	00001517          	auipc	a0,0x1
800009f8:	cb050513          	addi	a0,a0,-848 # 800016a4 <_etext+0x104>
800009fc:	630000ef          	jal	8000102c <printf>
80000a00:	00001597          	auipc	a1,0x1
80000a04:	bd058593          	addi	a1,a1,-1072 # 800015d0 <_etext+0x30>
80000a08:	02010513          	addi	a0,sp,32
80000a0c:	350000ef          	jal	80000d5c <strcmp>
80000a10:	02050463          	beqz	a0,80000a38 <main+0x878>
80000a14:	02010593          	addi	a1,sp,32
80000a18:	00001517          	auipc	a0,0x1
80000a1c:	f3850513          	addi	a0,a0,-200 # 80001950 <_etext+0x3b0>
80000a20:	00001797          	auipc	a5,0x1
80000a24:	1007a223          	sw	zero,260(a5) # 80001b24 <pass>
80000a28:	604000ef          	jal	8000102c <printf>
80000a2c:	00001517          	auipc	a0,0x1
80000a30:	f4050513          	addi	a0,a0,-192 # 8000196c <_etext+0x3cc>
80000a34:	5f8000ef          	jal	8000102c <printf>
80000a38:	00001597          	auipc	a1,0x1
80000a3c:	c1058593          	addi	a1,a1,-1008 # 80001648 <_etext+0xa8>
80000a40:	04010513          	addi	a0,sp,64
80000a44:	318000ef          	jal	80000d5c <strcmp>
80000a48:	02050463          	beqz	a0,80000a70 <main+0x8b0>
80000a4c:	04010593          	addi	a1,sp,64
80000a50:	00001517          	auipc	a0,0x1
80000a54:	f5450513          	addi	a0,a0,-172 # 800019a4 <_etext+0x404>
80000a58:	00001797          	auipc	a5,0x1
80000a5c:	0c07a623          	sw	zero,204(a5) # 80001b24 <pass>
80000a60:	5cc000ef          	jal	8000102c <printf>
80000a64:	00001517          	auipc	a0,0x1
80000a68:	f5c50513          	addi	a0,a0,-164 # 800019c0 <_etext+0x420>
80000a6c:	5c0000ef          	jal	8000102c <printf>
80000a70:	00042583          	lw	a1,0(s0)
80000a74:	00001517          	auipc	a0,0x1
80000a78:	f8450513          	addi	a0,a0,-124 # 800019f8 <_etext+0x458>
80000a7c:	00001497          	auipc	s1,0x1
80000a80:	0a848493          	addi	s1,s1,168 # 80001b24 <pass>
80000a84:	5a8000ef          	jal	8000102c <printf>
80000a88:	00001517          	auipc	a0,0x1
80000a8c:	f8450513          	addi	a0,a0,-124 # 80001a0c <_etext+0x46c>
80000a90:	59c000ef          	jal	8000102c <printf>
80000a94:	0004a783          	lw	a5,0(s1)
80000a98:	00001597          	auipc	a1,0x1
80000a9c:	b1058593          	addi	a1,a1,-1264 # 800015a8 <_etext+0x8>
80000aa0:	00078663          	beqz	a5,80000aac <main+0x8ec>
80000aa4:	00001597          	auipc	a1,0x1
80000aa8:	afc58593          	addi	a1,a1,-1284 # 800015a0 <_etext>
80000aac:	00042603          	lw	a2,0(s0)
80000ab0:	000d77b7          	lui	a5,0xd7
80000ab4:	10478793          	addi	a5,a5,260 # d7104 <_entry_offset+0xd7104>
80000ab8:	02c7c633          	div	a2,a5,a2
80000abc:	00001517          	auipc	a0,0x1
80000ac0:	f8450513          	addi	a0,a0,-124 # 80001a40 <_etext+0x4a0>
80000ac4:	568000ef          	jal	8000102c <printf>
80000ac8:	00001517          	auipc	a0,0x1
80000acc:	f9850513          	addi	a0,a0,-104 # 80001a60 <_etext+0x4c0>
80000ad0:	55c000ef          	jal	8000102c <printf>
80000ad4:	0004a503          	lw	a0,0(s1)
80000ad8:	09c12083          	lw	ra,156(sp)
80000adc:	09812403          	lw	s0,152(sp)
80000ae0:	09412483          	lw	s1,148(sp)
80000ae4:	09012903          	lw	s2,144(sp)
80000ae8:	08c12983          	lw	s3,140(sp)
80000aec:	08812a03          	lw	s4,136(sp)
80000af0:	08412a83          	lw	s5,132(sp)
80000af4:	08012b03          	lw	s6,128(sp)
80000af8:	07c12b83          	lw	s7,124(sp)
80000afc:	07812c03          	lw	s8,120(sp)
80000b00:	07412c83          	lw	s9,116(sp)
80000b04:	07012d03          	lw	s10,112(sp)
80000b08:	06c12d83          	lw	s11,108(sp)
80000b0c:	00153513          	seqz	a0,a0
80000b10:	0a010113          	addi	sp,sp,160
80000b14:	00008067          	ret
80000b18:	00100693          	li	a3,1
80000b1c:	00078a13          	mv	s4,a5
80000b20:	86dff06f          	j	8000038c <main+0x1cc>
80000b24:	00d00793          	li	a5,13
80000b28:	00100713          	li	a4,1
80000b2c:	00100813          	li	a6,1
80000b30:	955ff06f          	j	80000484 <main+0x2c4>

80000b34 <__am_timer_config>:
80000b34:	00100793          	li	a5,1
80000b38:	00f50023          	sb	a5,0(a0)
80000b3c:	00f500a3          	sb	a5,1(a0)
80000b40:	00008067          	ret

80000b44 <__am_input_config>:
80000b44:	00100793          	li	a5,1
80000b48:	00f50023          	sb	a5,0(a0)
80000b4c:	00008067          	ret

80000b50 <__am_uart_config>:
80000b50:	00050023          	sb	zero,0(a0)
80000b54:	00008067          	ret

80000b58 <__am_net_config>:
80000b58:	00050023          	sb	zero,0(a0)
80000b5c:	00008067          	ret

80000b60 <fail>:
80000b60:	ff010113          	addi	sp,sp,-16
80000b64:	00812423          	sw	s0,8(sp)
80000b68:	00112623          	sw	ra,12(sp)
80000b6c:	00001417          	auipc	s0,0x1
80000b70:	f3040413          	addi	s0,s0,-208 # 80001a9c <_etext+0x4fc>
80000b74:	04100513          	li	a0,65
80000b78:	184000ef          	jal	80000cfc <putch>
80000b7c:	00144503          	lbu	a0,1(s0)
80000b80:	00140413          	addi	s0,s0,1
80000b84:	fe051ae3          	bnez	a0,80000b78 <fail+0x18>
80000b88:	00001417          	auipc	s0,0x1
80000b8c:	f2040413          	addi	s0,s0,-224 # 80001aa8 <_etext+0x508>
80000b90:	06100513          	li	a0,97
80000b94:	168000ef          	jal	80000cfc <putch>
80000b98:	00144503          	lbu	a0,1(s0)
80000b9c:	00140413          	addi	s0,s0,1
80000ba0:	fe051ae3          	bnez	a0,80000b94 <fail+0x34>
80000ba4:	00001417          	auipc	s0,0x1
80000ba8:	f2040413          	addi	s0,s0,-224 # 80001ac4 <_etext+0x524>
80000bac:	02000513          	li	a0,32
80000bb0:	14c000ef          	jal	80000cfc <putch>
80000bb4:	00144503          	lbu	a0,1(s0)
80000bb8:	00140413          	addi	s0,s0,1
80000bbc:	fe051ae3          	bnez	a0,80000bb0 <fail+0x50>
80000bc0:	00100513          	li	a0,1
80000bc4:	144000ef          	jal	80000d08 <halt>

80000bc8 <ioe_init>:
80000bc8:	ff010113          	addi	sp,sp,-16
80000bcc:	00112623          	sw	ra,12(sp)
80000bd0:	00001797          	auipc	a5,0x1
80000bd4:	f5c78793          	addi	a5,a5,-164 # 80001b2c <lut>
80000bd8:	00001697          	auipc	a3,0x1
80000bdc:	15468693          	addi	a3,a3,340 # 80001d2c <memory>
80000be0:	00000617          	auipc	a2,0x0
80000be4:	f8060613          	addi	a2,a2,-128 # 80000b60 <fail>
80000be8:	00c0006f          	j	80000bf4 <ioe_init+0x2c>
80000bec:	00478793          	addi	a5,a5,4
80000bf0:	00d78c63          	beq	a5,a3,80000c08 <ioe_init+0x40>
80000bf4:	0007a703          	lw	a4,0(a5)
80000bf8:	fe071ae3          	bnez	a4,80000bec <ioe_init+0x24>
80000bfc:	00c7a023          	sw	a2,0(a5)
80000c00:	00478793          	addi	a5,a5,4
80000c04:	fed798e3          	bne	a5,a3,80000bf4 <ioe_init+0x2c>
80000c08:	088000ef          	jal	80000c90 <__am_gpu_init>
80000c0c:	034000ef          	jal	80000c40 <__am_timer_init>
80000c10:	0c0000ef          	jal	80000cd0 <__am_audio_init>
80000c14:	00c12083          	lw	ra,12(sp)
80000c18:	00100513          	li	a0,1
80000c1c:	01010113          	addi	sp,sp,16
80000c20:	00008067          	ret

80000c24 <ioe_read>:
80000c24:	00251513          	slli	a0,a0,0x2
80000c28:	00001797          	auipc	a5,0x1
80000c2c:	f0478793          	addi	a5,a5,-252 # 80001b2c <lut>
80000c30:	00a787b3          	add	a5,a5,a0
80000c34:	0007a783          	lw	a5,0(a5)
80000c38:	00058513          	mv	a0,a1
80000c3c:	00078067          	jr	a5

80000c40 <__am_timer_init>:
80000c40:	00008067          	ret

80000c44 <__am_timer_uptime>:
80000c44:	a0000737          	lui	a4,0xa0000
80000c48:	a00007b7          	lui	a5,0xa0000
80000c4c:	04870713          	addi	a4,a4,72 # a0000048 <_end+0x1fff3048>
80000c50:	04c7a683          	lw	a3,76(a5) # a000004c <_end+0x1fff304c>
80000c54:	00072703          	lw	a4,0(a4)
80000c58:	00d52223          	sw	a3,4(a0)
80000c5c:	00e52023          	sw	a4,0(a0)
80000c60:	00008067          	ret

80000c64 <__am_timer_rtc>:
80000c64:	76c00793          	li	a5,1900
80000c68:	00052a23          	sw	zero,20(a0)
80000c6c:	00052823          	sw	zero,16(a0)
80000c70:	00052623          	sw	zero,12(a0)
80000c74:	00052423          	sw	zero,8(a0)
80000c78:	00052223          	sw	zero,4(a0)
80000c7c:	00f52023          	sw	a5,0(a0)
80000c80:	00008067          	ret

80000c84 <__am_input_keybrd>:
80000c84:	00050023          	sb	zero,0(a0)
80000c88:	00052223          	sw	zero,4(a0)
80000c8c:	00008067          	ret

80000c90 <__am_gpu_init>:
80000c90:	00008067          	ret

80000c94 <__am_gpu_config>:
80000c94:	00100793          	li	a5,1
80000c98:	00f51023          	sh	a5,0(a0)
80000c9c:	00052223          	sw	zero,4(a0)
80000ca0:	00052423          	sw	zero,8(a0)
80000ca4:	00052623          	sw	zero,12(a0)
80000ca8:	00008067          	ret

80000cac <__am_gpu_fbdraw>:
80000cac:	01454783          	lbu	a5,20(a0)
80000cb0:	00078863          	beqz	a5,80000cc0 <__am_gpu_fbdraw+0x14>
80000cb4:	a00007b7          	lui	a5,0xa0000
80000cb8:	00100713          	li	a4,1
80000cbc:	10e7a223          	sw	a4,260(a5) # a0000104 <_end+0x1fff3104>
80000cc0:	00008067          	ret

80000cc4 <__am_gpu_status>:
80000cc4:	00100793          	li	a5,1
80000cc8:	00f50023          	sb	a5,0(a0)
80000ccc:	00008067          	ret

80000cd0 <__am_audio_init>:
80000cd0:	00008067          	ret

80000cd4 <__am_audio_config>:
80000cd4:	00050023          	sb	zero,0(a0)
80000cd8:	00008067          	ret

80000cdc <__am_audio_ctrl>:
80000cdc:	00008067          	ret

80000ce0 <__am_audio_status>:
80000ce0:	00052023          	sw	zero,0(a0)
80000ce4:	00008067          	ret

80000ce8 <__am_audio_play>:
80000ce8:	00008067          	ret

80000cec <__am_disk_config>:
80000cec:	00050023          	sb	zero,0(a0)
80000cf0:	00008067          	ret

80000cf4 <__am_disk_status>:
80000cf4:	00008067          	ret

80000cf8 <__am_disk_blkio>:
80000cf8:	00008067          	ret

80000cfc <putch>:
80000cfc:	a00007b7          	lui	a5,0xa0000
80000d00:	3ea78c23          	sb	a0,1016(a5) # a00003f8 <_end+0x1fff33f8>
80000d04:	00008067          	ret

80000d08 <halt>:
80000d08:	00050513          	mv	a0,a0
80000d0c:	00100073          	ebreak
80000d10:	0000006f          	j	80000d10 <halt+0x8>

80000d14 <_trm_init>:
80000d14:	ff010113          	addi	sp,sp,-16
80000d18:	00001517          	auipc	a0,0x1
80000d1c:	e0850513          	addi	a0,a0,-504 # 80001b20 <mainargs>
80000d20:	00112623          	sw	ra,12(sp)
80000d24:	c9cff0ef          	jal	800001c0 <main>
80000d28:	00050513          	mv	a0,a0
80000d2c:	00100073          	ebreak
80000d30:	0000006f          	j	80000d30 <_trm_init+0x1c>

80000d34 <strcpy>:
80000d34:	0005c783          	lbu	a5,0(a1)
80000d38:	00050713          	mv	a4,a0
80000d3c:	00078c63          	beqz	a5,80000d54 <strcpy+0x20>
80000d40:	00f70023          	sb	a5,0(a4)
80000d44:	0015c783          	lbu	a5,1(a1)
80000d48:	00170713          	addi	a4,a4,1
80000d4c:	00158593          	addi	a1,a1,1
80000d50:	fe0798e3          	bnez	a5,80000d40 <strcpy+0xc>
80000d54:	00070023          	sb	zero,0(a4)
80000d58:	00008067          	ret

80000d5c <strcmp>:
80000d5c:	00054783          	lbu	a5,0(a0)
80000d60:	0005c703          	lbu	a4,0(a1)
80000d64:	00079863          	bnez	a5,80000d74 <strcmp+0x18>
80000d68:	00070e63          	beqz	a4,80000d84 <strcmp+0x28>
80000d6c:	40e78533          	sub	a0,a5,a4
80000d70:	00008067          	ret
80000d74:	fee79ce3          	bne	a5,a4,80000d6c <strcmp+0x10>
80000d78:	00150513          	addi	a0,a0,1
80000d7c:	00158593          	addi	a1,a1,1
80000d80:	fddff06f          	j	80000d5c <strcmp>
80000d84:	00000513          	li	a0,0
80000d88:	00008067          	ret

80000d8c <vsprintf>:
80000d8c:	0005c783          	lbu	a5,0(a1)
80000d90:	00050f13          	mv	t5,a0
80000d94:	26078463          	beqz	a5,80000ffc <vsprintf+0x270>
80000d98:	fc010113          	addi	sp,sp,-64
80000d9c:	02812e23          	sw	s0,60(sp)
80000da0:	02912c23          	sw	s1,56(sp)
80000da4:	03212a23          	sw	s2,52(sp)
80000da8:	03312823          	sw	s3,48(sp)
80000dac:	00000713          	li	a4,0
80000db0:	00000513          	li	a0,0
80000db4:	000f0693          	mv	a3,t5
80000db8:	02500393          	li	t2,37
80000dbc:	03000493          	li	s1,48
80000dc0:	00900293          	li	t0,9
80000dc4:	06400413          	li	s0,100
80000dc8:	0200006f          	j	80000de8 <vsprintf+0x5c>
80000dcc:	000e0713          	mv	a4,t3
80000dd0:	00f68023          	sb	a5,0(a3)
80000dd4:	00e587b3          	add	a5,a1,a4
80000dd8:	0007c783          	lbu	a5,0(a5)
80000ddc:	00150513          	addi	a0,a0,1
80000de0:	00af06b3          	add	a3,t5,a0
80000de4:	0c078463          	beqz	a5,80000eac <vsprintf+0x120>
80000de8:	00170e13          	addi	t3,a4,1
80000dec:	00050913          	mv	s2,a0
80000df0:	fc779ee3          	bne	a5,t2,80000dcc <vsprintf+0x40>
80000df4:	01c58fb3          	add	t6,a1,t3
80000df8:	000fce83          	lbu	t4,0(t6)
80000dfc:	00000993          	li	s3,0
80000e00:	009e9a63          	bne	t4,s1,80000e14 <vsprintf+0x88>
80000e04:	00270e13          	addi	t3,a4,2
80000e08:	01c58fb3          	add	t6,a1,t3
80000e0c:	000fce83          	lbu	t4,0(t6)
80000e10:	00100993          	li	s3,1
80000e14:	fd0e8893          	addi	a7,t4,-48
80000e18:	001e0313          	addi	t1,t3,1
80000e1c:	0ff8f793          	zext.b	a5,a7
80000e20:	00658733          	add	a4,a1,t1
80000e24:	00000813          	li	a6,0
80000e28:	00f2f663          	bgeu	t0,a5,80000e34 <vsprintf+0xa8>
80000e2c:	0340006f          	j	80000e60 <vsprintf+0xd4>
80000e30:	00130313          	addi	t1,t1,1
80000e34:	00074e83          	lbu	t4,0(a4)
80000e38:	00281793          	slli	a5,a6,0x2
80000e3c:	010787b3          	add	a5,a5,a6
80000e40:	00179793          	slli	a5,a5,0x1
80000e44:	00f88833          	add	a6,a7,a5
80000e48:	fd0e8893          	addi	a7,t4,-48
80000e4c:	0ff8f793          	zext.b	a5,a7
80000e50:	00070f93          	mv	t6,a4
80000e54:	00030e13          	mv	t3,t1
80000e58:	00170713          	addi	a4,a4,1
80000e5c:	fcf2fae3          	bgeu	t0,a5,80000e30 <vsprintf+0xa4>
80000e60:	088e8863          	beq	t4,s0,80000ef0 <vsprintf+0x164>
80000e64:	07300793          	li	a5,115
80000e68:	06fe9063          	bne	t4,a5,80000ec8 <vsprintf+0x13c>
80000e6c:	00062803          	lw	a6,0(a2)
80000e70:	00460613          	addi	a2,a2,4
80000e74:	02080463          	beqz	a6,80000e9c <vsprintf+0x110>
80000e78:	00084703          	lbu	a4,0(a6)
80000e7c:	02070063          	beqz	a4,80000e9c <vsprintf+0x110>
80000e80:	00150513          	addi	a0,a0,1
80000e84:	00af06b3          	add	a3,t5,a0
80000e88:	412507b3          	sub	a5,a0,s2
80000e8c:	fee68fa3          	sb	a4,-1(a3)
80000e90:	00f807b3          	add	a5,a6,a5
80000e94:	0007c703          	lbu	a4,0(a5)
80000e98:	fe0714e3          	bnez	a4,80000e80 <vsprintf+0xf4>
80000e9c:	001e0713          	addi	a4,t3,1
80000ea0:	00e587b3          	add	a5,a1,a4
80000ea4:	0007c783          	lbu	a5,0(a5)
80000ea8:	f40790e3          	bnez	a5,80000de8 <vsprintf+0x5c>
80000eac:	00068023          	sb	zero,0(a3)
80000eb0:	03c12403          	lw	s0,60(sp)
80000eb4:	03812483          	lw	s1,56(sp)
80000eb8:	03412903          	lw	s2,52(sp)
80000ebc:	03012983          	lw	s3,48(sp)
80000ec0:	04010113          	addi	sp,sp,64
80000ec4:	00008067          	ret
80000ec8:	02500793          	li	a5,37
80000ecc:	00f68023          	sb	a5,0(a3)
80000ed0:	000fc703          	lbu	a4,0(t6)
80000ed4:	00150793          	addi	a5,a0,1
80000ed8:	00ff07b3          	add	a5,t5,a5
80000edc:	00250513          	addi	a0,a0,2
80000ee0:	00e78023          	sb	a4,0(a5)
80000ee4:	00af06b3          	add	a3,t5,a0
80000ee8:	001e0713          	addi	a4,t3,1
80000eec:	fb5ff06f          	j	80000ea0 <vsprintf+0x114>
80000ef0:	00062783          	lw	a5,0(a2)
80000ef4:	00460613          	addi	a2,a2,4
80000ef8:	08079063          	bnez	a5,80000f78 <vsprintf+0x1ec>
80000efc:	03000793          	li	a5,48
80000f00:	00f10023          	sb	a5,0(sp)
80000f04:	fff80813          	addi	a6,a6,-1
80000f08:	07005263          	blez	a6,80000f6c <vsprintf+0x1e0>
80000f0c:	00010893          	mv	a7,sp
80000f10:	04098e63          	beqz	s3,80000f6c <vsprintf+0x1e0>
80000f14:	fff80813          	addi	a6,a6,-1
80000f18:	00098313          	mv	t1,s3
80000f1c:	001f0793          	addi	a5,t5,1
80000f20:	00a787b3          	add	a5,a5,a0
80000f24:	010787b3          	add	a5,a5,a6
80000f28:	03000713          	li	a4,48
80000f2c:	00e68023          	sb	a4,0(a3)
80000f30:	00168693          	addi	a3,a3,1
80000f34:	fed79ce3          	bne	a5,a3,80000f2c <vsprintf+0x1a0>
80000f38:	00150513          	addi	a0,a0,1
80000f3c:	01050533          	add	a0,a0,a6
80000f40:	00af06b3          	add	a3,t5,a0
80000f44:	006887b3          	add	a5,a7,t1
80000f48:	fff7c703          	lbu	a4,-1(a5)
80000f4c:	fff78793          	addi	a5,a5,-1
80000f50:	00168693          	addi	a3,a3,1
80000f54:	fee68fa3          	sb	a4,-1(a3)
80000f58:	fef898e3          	bne	a7,a5,80000f48 <vsprintf+0x1bc>
80000f5c:	00a30533          	add	a0,t1,a0
80000f60:	00af06b3          	add	a3,t5,a0
80000f64:	001e0713          	addi	a4,t3,1
80000f68:	f39ff06f          	j	80000ea0 <vsprintf+0x114>
80000f6c:	00100313          	li	t1,1
80000f70:	00010893          	mv	a7,sp
80000f74:	fd1ff06f          	j	80000f44 <vsprintf+0x1b8>
80000f78:	03412623          	sw	s4,44(sp)
80000f7c:	00000a13          	li	s4,0
80000f80:	0007d663          	bgez	a5,80000f8c <vsprintf+0x200>
80000f84:	40f007b3          	neg	a5,a5
80000f88:	00100a13          	li	s4,1
80000f8c:	00000713          	li	a4,0
80000f90:	00010893          	mv	a7,sp
80000f94:	00a00f93          	li	t6,10
80000f98:	03f7e333          	rem	t1,a5,t6
80000f9c:	00070e93          	mv	t4,a4
80000fa0:	00170713          	addi	a4,a4,1
80000fa4:	00e88933          	add	s2,a7,a4
80000fa8:	03f7c7b3          	div	a5,a5,t6
80000fac:	03030313          	addi	t1,t1,48
80000fb0:	fe690fa3          	sb	t1,-1(s2)
80000fb4:	fe0792e3          	bnez	a5,80000f98 <vsprintf+0x20c>
80000fb8:	000a1e63          	bnez	s4,80000fd4 <vsprintf+0x248>
80000fbc:	40e80833          	sub	a6,a6,a4
80000fc0:	01005463          	blez	a6,80000fc8 <vsprintf+0x23c>
80000fc4:	04099e63          	bnez	s3,80001020 <vsprintf+0x294>
80000fc8:	02c12a03          	lw	s4,44(sp)
80000fcc:	00070313          	mv	t1,a4
80000fd0:	f75ff06f          	j	80000f44 <vsprintf+0x1b8>
80000fd4:	02070793          	addi	a5,a4,32
80000fd8:	002e8313          	addi	t1,t4,2
80000fdc:	002787b3          	add	a5,a5,sp
80000fe0:	02d00e93          	li	t4,45
80000fe4:	ffd78023          	sb	t4,-32(a5)
80000fe8:	40680833          	sub	a6,a6,t1
80000fec:	01005463          	blez	a6,80000ff4 <vsprintf+0x268>
80000ff0:	00099c63          	bnez	s3,80001008 <vsprintf+0x27c>
80000ff4:	02c12a03          	lw	s4,44(sp)
80000ff8:	f4dff06f          	j	80000f44 <vsprintf+0x1b8>
80000ffc:	00000513          	li	a0,0
80001000:	000f0023          	sb	zero,0(t5)
80001004:	00008067          	ret
80001008:	01d68023          	sb	t4,0(a3)
8000100c:	00150513          	addi	a0,a0,1
80001010:	02c12a03          	lw	s4,44(sp)
80001014:	00070313          	mv	t1,a4
80001018:	00af06b3          	add	a3,t5,a0
8000101c:	f01ff06f          	j	80000f1c <vsprintf+0x190>
80001020:	02c12a03          	lw	s4,44(sp)
80001024:	00070993          	mv	s3,a4
80001028:	eedff06f          	j	80000f14 <vsprintf+0x188>

8000102c <printf>:
8000102c:	fb010113          	addi	sp,sp,-80
80001030:	00001e37          	lui	t3,0x1
80001034:	fffff2b7          	lui	t0,0xfffff
80001038:	02912223          	sw	s1,36(sp)
8000103c:	02112623          	sw	ra,44(sp)
80001040:	02812423          	sw	s0,40(sp)
80001044:	fffff337          	lui	t1,0xfffff
80001048:	00510133          	add	sp,sp,t0
8000104c:	010e0e93          	addi	t4,t3,16 # 1010 <_entry_offset+0x1010>
80001050:	006e8eb3          	add	t4,t4,t1
80001054:	01010313          	addi	t1,sp,16
80001058:	01010f13          	addi	t5,sp,16
8000105c:	006e8333          	add	t1,t4,t1
80001060:	024e0e93          	addi	t4,t3,36
80001064:	00612623          	sw	t1,12(sp)
80001068:	01ee8eb3          	add	t4,t4,t5
8000106c:	00bea023          	sw	a1,0(t4)
80001070:	028e0593          	addi	a1,t3,40
80001074:	01e585b3          	add	a1,a1,t5
80001078:	02ce0e93          	addi	t4,t3,44
8000107c:	00c5a023          	sw	a2,0(a1)
80001080:	01ee8eb3          	add	t4,t4,t5
80001084:	034e0313          	addi	t1,t3,52
80001088:	00050593          	mv	a1,a0
8000108c:	00c12503          	lw	a0,12(sp)
80001090:	00dea023          	sw	a3,0(t4)
80001094:	000e0693          	mv	a3,t3
80001098:	030e0e13          	addi	t3,t3,48
8000109c:	01ee0e33          	add	t3,t3,t5
800010a0:	00ee2023          	sw	a4,0(t3)
800010a4:	00068713          	mv	a4,a3
800010a8:	03468693          	addi	a3,a3,52
800010ac:	01e686b3          	add	a3,a3,t5
800010b0:	00f6a023          	sw	a5,0(a3)
800010b4:	00070793          	mv	a5,a4
800010b8:	03870713          	addi	a4,a4,56
800010bc:	01e70733          	add	a4,a4,t5
800010c0:	03c78793          	addi	a5,a5,60
800010c4:	01072023          	sw	a6,0(a4)
800010c8:	01e787b3          	add	a5,a5,t5
800010cc:	0117a023          	sw	a7,0(a5)
800010d0:	00c12783          	lw	a5,12(sp)
800010d4:	00230333          	add	t1,t1,sp
800010d8:	00030613          	mv	a2,t1
800010dc:	fe67ae23          	sw	t1,-4(a5)
800010e0:	cadff0ef          	jal	80000d8c <vsprintf>
800010e4:	00c12783          	lw	a5,12(sp)
800010e8:	00050493          	mv	s1,a0
800010ec:	0007c503          	lbu	a0,0(a5)
800010f0:	00050c63          	beqz	a0,80001108 <printf+0xdc>
800010f4:	00178413          	addi	s0,a5,1
800010f8:	c05ff0ef          	jal	80000cfc <putch>
800010fc:	00044503          	lbu	a0,0(s0)
80001100:	00140413          	addi	s0,s0,1
80001104:	fe051ae3          	bnez	a0,800010f8 <printf+0xcc>
80001108:	000012b7          	lui	t0,0x1
8000110c:	00510133          	add	sp,sp,t0
80001110:	02c12083          	lw	ra,44(sp)
80001114:	00048513          	mv	a0,s1
80001118:	02812403          	lw	s0,40(sp)
8000111c:	02412483          	lw	s1,36(sp)
80001120:	05010113          	addi	sp,sp,80
80001124:	00008067          	ret

80001128 <__udivmoddi4>:
80001128:	fd010113          	addi	sp,sp,-48
8000112c:	01312e23          	sw	s3,28(sp)
80001130:	01412c23          	sw	s4,24(sp)
80001134:	01612823          	sw	s6,16(sp)
80001138:	01712623          	sw	s7,12(sp)
8000113c:	02112623          	sw	ra,44(sp)
80001140:	00068b13          	mv	s6,a3
80001144:	00050993          	mv	s3,a0
80001148:	00060a13          	mv	s4,a2
8000114c:	00070b93          	mv	s7,a4
80001150:	02059e63          	bnez	a1,8000118c <__udivmoddi4+0x64>
80001154:	1a069263          	bnez	a3,800012f8 <__udivmoddi4+0x1d0>
80001158:	00070863          	beqz	a4,80001168 <__udivmoddi4+0x40>
8000115c:	02c577b3          	remu	a5,a0,a2
80001160:	00072223          	sw	zero,4(a4)
80001164:	00f72023          	sw	a5,0(a4)
80001168:	0349d533          	divu	a0,s3,s4
8000116c:	00000593          	li	a1,0
80001170:	02c12083          	lw	ra,44(sp)
80001174:	01c12983          	lw	s3,28(sp)
80001178:	01812a03          	lw	s4,24(sp)
8000117c:	01012b03          	lw	s6,16(sp)
80001180:	00c12b83          	lw	s7,12(sp)
80001184:	03010113          	addi	sp,sp,48
80001188:	00008067          	ret
8000118c:	02912223          	sw	s1,36(sp)
80001190:	03212023          	sw	s2,32(sp)
80001194:	01512a23          	sw	s5,20(sp)
80001198:	02812423          	sw	s0,40(sp)
8000119c:	00058913          	mv	s2,a1
800011a0:	00058493          	mv	s1,a1
800011a4:	00060a93          	mv	s5,a2
800011a8:	0e061e63          	bnez	a2,800012a4 <__udivmoddi4+0x17c>
800011ac:	1c068063          	beqz	a3,8000136c <__udivmoddi4+0x244>
800011b0:	22050a63          	beqz	a0,800013e4 <__udivmoddi4+0x2bc>
800011b4:	fff68793          	addi	a5,a3,-1
800011b8:	00d7f733          	and	a4,a5,a3
800011bc:	28070263          	beqz	a4,80001440 <__udivmoddi4+0x318>
800011c0:	00068513          	mv	a0,a3
800011c4:	2d4000ef          	jal	80001498 <__clzsi2>
800011c8:	00050413          	mv	s0,a0
800011cc:	00090513          	mv	a0,s2
800011d0:	2c8000ef          	jal	80001498 <__clzsi2>
800011d4:	40a406b3          	sub	a3,s0,a0
800011d8:	01e00793          	li	a5,30
800011dc:	18d7ea63          	bltu	a5,a3,80001370 <__udivmoddi4+0x248>
800011e0:	00168693          	addi	a3,a3,1
800011e4:	02000793          	li	a5,32
800011e8:	40d787b3          	sub	a5,a5,a3
800011ec:	00f91633          	sll	a2,s2,a5
800011f0:	00d9d733          	srl	a4,s3,a3
800011f4:	00d95433          	srl	s0,s2,a3
800011f8:	00f99833          	sll	a6,s3,a5
800011fc:	00e664b3          	or	s1,a2,a4
80001200:	00000713          	li	a4,0
80001204:	01f85793          	srli	a5,a6,0x1f
80001208:	00149593          	slli	a1,s1,0x1
8000120c:	00f5e5b3          	or	a1,a1,a5
80001210:	01f4d493          	srli	s1,s1,0x1f
80001214:	00141793          	slli	a5,s0,0x1
80001218:	0097e7b3          	or	a5,a5,s1
8000121c:	40ba0333          	sub	t1,s4,a1
80001220:	006a3633          	sltu	a2,s4,t1
80001224:	40fb08b3          	sub	a7,s6,a5
80001228:	40c888b3          	sub	a7,a7,a2
8000122c:	00133313          	seqz	t1,t1
80001230:	406888b3          	sub	a7,a7,t1
80001234:	41f8d313          	srai	t1,a7,0x1f
80001238:	014374b3          	and	s1,t1,s4
8000123c:	409584b3          	sub	s1,a1,s1
80001240:	01637333          	and	t1,t1,s6
80001244:	01fad613          	srli	a2,s5,0x1f
80001248:	00181813          	slli	a6,a6,0x1
8000124c:	001a9a93          	slli	s5,s5,0x1
80001250:	0095b5b3          	sltu	a1,a1,s1
80001254:	406787b3          	sub	a5,a5,t1
80001258:	fff68693          	addi	a3,a3,-1
8000125c:	00eaeab3          	or	s5,s5,a4
80001260:	00c86833          	or	a6,a6,a2
80001264:	01f8d713          	srli	a4,a7,0x1f
80001268:	40b78433          	sub	s0,a5,a1
8000126c:	f8069ce3          	bnez	a3,80001204 <__udivmoddi4+0xdc>
80001270:	000b8663          	beqz	s7,8000127c <__udivmoddi4+0x154>
80001274:	009ba023          	sw	s1,0(s7)
80001278:	008ba223          	sw	s0,4(s7)
8000127c:	01fad913          	srli	s2,s5,0x1f
80001280:	001a9993          	slli	s3,s5,0x1
80001284:	00181793          	slli	a5,a6,0x1
80001288:	00f965b3          	or	a1,s2,a5
8000128c:	02812403          	lw	s0,40(sp)
80001290:	02412483          	lw	s1,36(sp)
80001294:	02012903          	lw	s2,32(sp)
80001298:	01412a83          	lw	s5,20(sp)
8000129c:	00e9e533          	or	a0,s3,a4
800012a0:	ed1ff06f          	j	80001170 <__udivmoddi4+0x48>
800012a4:	06068663          	beqz	a3,80001310 <__udivmoddi4+0x1e8>
800012a8:	00068513          	mv	a0,a3
800012ac:	1ec000ef          	jal	80001498 <__clzsi2>
800012b0:	00050413          	mv	s0,a0
800012b4:	00090513          	mv	a0,s2
800012b8:	1e0000ef          	jal	80001498 <__clzsi2>
800012bc:	40a406b3          	sub	a3,s0,a0
800012c0:	01f00793          	li	a5,31
800012c4:	0ad7e663          	bltu	a5,a3,80001370 <__udivmoddi4+0x248>
800012c8:	00168693          	addi	a3,a3,1
800012cc:	02000793          	li	a5,32
800012d0:	00098813          	mv	a6,s3
800012d4:	18f68663          	beq	a3,a5,80001460 <__udivmoddi4+0x338>
800012d8:	40d787b3          	sub	a5,a5,a3
800012dc:	00d9d733          	srl	a4,s3,a3
800012e0:	00f91633          	sll	a2,s2,a5
800012e4:	00d95433          	srl	s0,s2,a3
800012e8:	00f99833          	sll	a6,s3,a5
800012ec:	00e664b3          	or	s1,a2,a4
800012f0:	00000a93          	li	s5,0
800012f4:	f0dff06f          	j	80001200 <__udivmoddi4+0xd8>
800012f8:	00070663          	beqz	a4,80001304 <__udivmoddi4+0x1dc>
800012fc:	00aba023          	sw	a0,0(s7)
80001300:	00072223          	sw	zero,4(a4)
80001304:	00000513          	li	a0,0
80001308:	00000593          	li	a1,0
8000130c:	e65ff06f          	j	80001170 <__udivmoddi4+0x48>
80001310:	fff60793          	addi	a5,a2,-1
80001314:	00c7f733          	and	a4,a5,a2
80001318:	06071c63          	bnez	a4,80001390 <__udivmoddi4+0x268>
8000131c:	000b8863          	beqz	s7,8000132c <__udivmoddi4+0x204>
80001320:	00a7f7b3          	and	a5,a5,a0
80001324:	00fba023          	sw	a5,0(s7)
80001328:	000ba223          	sw	zero,4(s7)
8000132c:	00100793          	li	a5,1
80001330:	0efa0063          	beq	s4,a5,80001410 <__udivmoddi4+0x2e8>
80001334:	000a0513          	mv	a0,s4
80001338:	1f0000ef          	jal	80001528 <__ctzsi2>
8000133c:	02000713          	li	a4,32
80001340:	40a70733          	sub	a4,a4,a0
80001344:	00050793          	mv	a5,a0
80001348:	00e91733          	sll	a4,s2,a4
8000134c:	00a9d833          	srl	a6,s3,a0
80001350:	00f955b3          	srl	a1,s2,a5
80001354:	02812403          	lw	s0,40(sp)
80001358:	02412483          	lw	s1,36(sp)
8000135c:	02012903          	lw	s2,32(sp)
80001360:	01412a83          	lw	s5,20(sp)
80001364:	01076533          	or	a0,a4,a6
80001368:	e09ff06f          	j	80001170 <__udivmoddi4+0x48>
8000136c:	00100073          	ebreak
80001370:	0a0b8e63          	beqz	s7,8000142c <__udivmoddi4+0x304>
80001374:	012ba223          	sw	s2,4(s7)
80001378:	02812403          	lw	s0,40(sp)
8000137c:	02412483          	lw	s1,36(sp)
80001380:	02012903          	lw	s2,32(sp)
80001384:	01412a83          	lw	s5,20(sp)
80001388:	013ba023          	sw	s3,0(s7)
8000138c:	f79ff06f          	j	80001304 <__udivmoddi4+0x1dc>
80001390:	00060513          	mv	a0,a2
80001394:	00068413          	mv	s0,a3
80001398:	100000ef          	jal	80001498 <__clzsi2>
8000139c:	00050913          	mv	s2,a0
800013a0:	00048513          	mv	a0,s1
800013a4:	0f4000ef          	jal	80001498 <__clzsi2>
800013a8:	40a90533          	sub	a0,s2,a0
800013ac:	02150693          	addi	a3,a0,33
800013b0:	02000793          	li	a5,32
800013b4:	00098813          	mv	a6,s3
800013b8:	00000a93          	li	s5,0
800013bc:	e4f682e3          	beq	a3,a5,80001200 <__udivmoddi4+0xd8>
800013c0:	01f00713          	li	a4,31
800013c4:	0ad76463          	bltu	a4,a3,8000146c <__udivmoddi4+0x344>
800013c8:	40d78733          	sub	a4,a5,a3
800013cc:	00d4d433          	srl	s0,s1,a3
800013d0:	00d9d7b3          	srl	a5,s3,a3
800013d4:	00e494b3          	sll	s1,s1,a4
800013d8:	00f4e4b3          	or	s1,s1,a5
800013dc:	00e99833          	sll	a6,s3,a4
800013e0:	e21ff06f          	j	80001200 <__udivmoddi4+0xd8>
800013e4:	00070863          	beqz	a4,800013f4 <__udivmoddi4+0x2cc>
800013e8:	02d5f7b3          	remu	a5,a1,a3
800013ec:	00072023          	sw	zero,0(a4)
800013f0:	00f72223          	sw	a5,4(a4)
800013f4:	03695533          	divu	a0,s2,s6
800013f8:	02812403          	lw	s0,40(sp)
800013fc:	02412483          	lw	s1,36(sp)
80001400:	02012903          	lw	s2,32(sp)
80001404:	01412a83          	lw	s5,20(sp)
80001408:	00000593          	li	a1,0
8000140c:	d65ff06f          	j	80001170 <__udivmoddi4+0x48>
80001410:	00090593          	mv	a1,s2
80001414:	02812403          	lw	s0,40(sp)
80001418:	02412483          	lw	s1,36(sp)
8000141c:	02012903          	lw	s2,32(sp)
80001420:	01412a83          	lw	s5,20(sp)
80001424:	00098513          	mv	a0,s3
80001428:	d49ff06f          	j	80001170 <__udivmoddi4+0x48>
8000142c:	02812403          	lw	s0,40(sp)
80001430:	02412483          	lw	s1,36(sp)
80001434:	02012903          	lw	s2,32(sp)
80001438:	01412a83          	lw	s5,20(sp)
8000143c:	ec9ff06f          	j	80001304 <__udivmoddi4+0x1dc>
80001440:	000b8863          	beqz	s7,80001450 <__udivmoddi4+0x328>
80001444:	00b7f7b3          	and	a5,a5,a1
80001448:	00aba023          	sw	a0,0(s7)
8000144c:	00fba223          	sw	a5,4(s7)
80001450:	000b0513          	mv	a0,s6
80001454:	0d4000ef          	jal	80001528 <__ctzsi2>
80001458:	00a95533          	srl	a0,s2,a0
8000145c:	f9dff06f          	j	800013f8 <__udivmoddi4+0x2d0>
80001460:	00000413          	li	s0,0
80001464:	00000a93          	li	s5,0
80001468:	d99ff06f          	j	80001200 <__udivmoddi4+0xd8>
8000146c:	04000a93          	li	s5,64
80001470:	40da8ab3          	sub	s5,s5,a3
80001474:	00150513          	addi	a0,a0,1
80001478:	01549733          	sll	a4,s1,s5
8000147c:	00a9d7b3          	srl	a5,s3,a0
80001480:	01599ab3          	sll	s5,s3,s5
80001484:	00a4d4b3          	srl	s1,s1,a0
80001488:	00f76833          	or	a6,a4,a5
8000148c:	d75ff06f          	j	80001200 <__udivmoddi4+0xd8>

80001490 <__udivdi3>:
80001490:	00000713          	li	a4,0
80001494:	c95ff06f          	j	80001128 <__udivmoddi4>

80001498 <__clzsi2>:
80001498:	000105b7          	lui	a1,0x10
8000149c:	00b535b3          	sltu	a1,a0,a1
800014a0:	00459593          	slli	a1,a1,0x4
800014a4:	01000793          	li	a5,16
800014a8:	40b787b3          	sub	a5,a5,a1
800014ac:	00010737          	lui	a4,0x10
800014b0:	00f557b3          	srl	a5,a0,a5
800014b4:	f0070713          	addi	a4,a4,-256 # ff00 <_entry_offset+0xff00>
800014b8:	00e7f733          	and	a4,a5,a4
800014bc:	00173713          	seqz	a4,a4
800014c0:	00371713          	slli	a4,a4,0x3
800014c4:	00800693          	li	a3,8
800014c8:	40e686b3          	sub	a3,a3,a4
800014cc:	00d7d7b3          	srl	a5,a5,a3
800014d0:	0f07f613          	andi	a2,a5,240
800014d4:	00163613          	seqz	a2,a2
800014d8:	00261613          	slli	a2,a2,0x2
800014dc:	00400693          	li	a3,4
800014e0:	40c686b3          	sub	a3,a3,a2
800014e4:	00d7d7b3          	srl	a5,a5,a3
800014e8:	00c7f693          	andi	a3,a5,12
800014ec:	0016b693          	seqz	a3,a3
800014f0:	00200513          	li	a0,2
800014f4:	00169693          	slli	a3,a3,0x1
800014f8:	40d50833          	sub	a6,a0,a3
800014fc:	0107d7b3          	srl	a5,a5,a6
80001500:	0017d813          	srli	a6,a5,0x1
80001504:	00b70733          	add	a4,a4,a1
80001508:	00187593          	andi	a1,a6,1
8000150c:	00e60633          	add	a2,a2,a4
80001510:	40f50533          	sub	a0,a0,a5
80001514:	00058463          	beqz	a1,8000151c <__clzsi2+0x84>
80001518:	00000513          	li	a0,0
8000151c:	00c686b3          	add	a3,a3,a2
80001520:	00d50533          	add	a0,a0,a3
80001524:	00008067          	ret

80001528 <__ctzsi2>:
80001528:	01051593          	slli	a1,a0,0x10
8000152c:	0105d593          	srli	a1,a1,0x10
80001530:	0015b593          	seqz	a1,a1
80001534:	00459593          	slli	a1,a1,0x4
80001538:	00b557b3          	srl	a5,a0,a1
8000153c:	0ff7f613          	zext.b	a2,a5
80001540:	00163613          	seqz	a2,a2
80001544:	00361613          	slli	a2,a2,0x3
80001548:	00c7d7b3          	srl	a5,a5,a2
8000154c:	00f7f693          	andi	a3,a5,15
80001550:	0016b693          	seqz	a3,a3
80001554:	00269693          	slli	a3,a3,0x2
80001558:	00d7d7b3          	srl	a5,a5,a3
8000155c:	0037f713          	andi	a4,a5,3
80001560:	00173713          	seqz	a4,a4
80001564:	00171713          	slli	a4,a4,0x1
80001568:	00e7d7b3          	srl	a5,a5,a4
8000156c:	0017d513          	srli	a0,a5,0x1
80001570:	fff7c793          	not	a5,a5
80001574:	00b60633          	add	a2,a2,a1
80001578:	0017f793          	andi	a5,a5,1
8000157c:	00157593          	andi	a1,a0,1
80001580:	00200513          	li	a0,2
80001584:	00c686b3          	add	a3,a3,a2
80001588:	40b50533          	sub	a0,a0,a1
8000158c:	40f007b3          	neg	a5,a5
80001590:	00f57533          	and	a0,a0,a5
80001594:	00d70733          	add	a4,a4,a3
80001598:	00e50533          	add	a0,a0,a4
8000159c:	00008067          	ret
