
/home/jinghanhui/ysyx-workbench/am-kernels/kernels/snake/build/snake-riscv32e-npc.elf:     file format elf32-littleriscv


Disassembly of section .text:

80000000 <_start>:
80000000:	00000413          	li	s0,0
80000004:	0000a117          	auipc	sp,0xa
80000008:	ffc10113          	addi	sp,sp,-4 # 8000a000 <_end>
8000000c:	02d000ef          	jal	80000838 <_trm_init>

80000010 <draw_tile>:
80000010:	fdc10113          	addi	sp,sp,-36
80000014:	00001697          	auipc	a3,0x1
80000018:	1d468693          	addi	a3,a3,468 # 800011e8 <buf.0>
8000001c:	02112023          	sw	ra,32(sp)
80000020:	00068793          	mv	a5,a3
80000024:	00001717          	auipc	a4,0x1
80000028:	2c470713          	addi	a4,a4,708 # 800012e8 <buf.0+0x100>
8000002c:	00c7a023          	sw	a2,0(a5)
80000030:	00478793          	addi	a5,a5,4
80000034:	fef71ce3          	bne	a4,a5,8000002c <draw_tile+0x1c>
80000038:	00800613          	li	a2,8
8000003c:	00359713          	slli	a4,a1,0x3
80000040:	00351793          	slli	a5,a0,0x3
80000044:	00010593          	mv	a1,sp
80000048:	00b00513          	li	a0,11
8000004c:	00e12023          	sw	a4,0(sp)
80000050:	00f12223          	sw	a5,4(sp)
80000054:	00d12423          	sw	a3,8(sp)
80000058:	00c12623          	sw	a2,12(sp)
8000005c:	00c12823          	sw	a2,16(sp)
80000060:	00010a23          	sb	zero,20(sp)
80000064:	0f1000ef          	jal	80000954 <ioe_write>
80000068:	02012083          	lw	ra,32(sp)
8000006c:	02410113          	addi	sp,sp,36
80000070:	00008067          	ret

80000074 <main>:
80000074:	c6010113          	addi	sp,sp,-928
80000078:	38f10793          	addi	a5,sp,911
8000007c:	ff87f793          	andi	a5,a5,-8
80000080:	32c00613          	li	a2,812
80000084:	00000593          	li	a1,0
80000088:	05c10513          	addi	a0,sp,92
8000008c:	02f12c23          	sw	a5,56(sp)
80000090:	38112e23          	sw	ra,924(sp)
80000094:	38812c23          	sw	s0,920(sp)
80000098:	38912a23          	sw	s1,916(sp)
8000009c:	1d9000ef          	jal	80000a74 <memset>
800000a0:	045000ef          	jal	800008e4 <ioe_init>
800000a4:	04410593          	addi	a1,sp,68
800000a8:	00900513          	li	a0,9
800000ac:	08d000ef          	jal	80000938 <ioe_read>
800000b0:	04410593          	addi	a1,sp,68
800000b4:	00900513          	li	a0,9
800000b8:	04c12403          	lw	s0,76(sp)
800000bc:	07d000ef          	jal	80000938 <ioe_read>
800000c0:	04812583          	lw	a1,72(sp)
800000c4:	41f45793          	srai	a5,s0,0x1f
800000c8:	0077f693          	andi	a3,a5,7
800000cc:	41f5d713          	srai	a4,a1,0x1f
800000d0:	00777613          	andi	a2,a4,7
800000d4:	00b60633          	add	a2,a2,a1
800000d8:	008686b3          	add	a3,a3,s0
800000dc:	40365613          	srai	a2,a2,0x3
800000e0:	4036d693          	srai	a3,a3,0x3
800000e4:	ffe60513          	addi	a0,a2,-2
800000e8:	ffe68313          	addi	t1,a3,-2
800000ec:	01f55613          	srli	a2,a0,0x1f
800000f0:	01f35693          	srli	a3,t1,0x1f
800000f4:	00f77713          	andi	a4,a4,15
800000f8:	00f7f793          	andi	a5,a5,15
800000fc:	00a60633          	add	a2,a2,a0
80000100:	00b70733          	add	a4,a4,a1
80000104:	006686b3          	add	a3,a3,t1
80000108:	008787b3          	add	a5,a5,s0
8000010c:	40165593          	srai	a1,a2,0x1
80000110:	4016d693          	srai	a3,a3,0x1
80000114:	40475713          	srai	a4,a4,0x4
80000118:	4047d793          	srai	a5,a5,0x4
8000011c:	40b70733          	sub	a4,a4,a1
80000120:	40d787b3          	sub	a5,a5,a3
80000124:	00030613          	mv	a2,t1
80000128:	fff70713          	addi	a4,a4,-1
8000012c:	fff78793          	addi	a5,a5,-1
80000130:	00168293          	addi	t0,a3,1
80000134:	02612a23          	sw	t1,52(sp)
80000138:	00b12023          	sw	a1,0(sp)
8000013c:	00058313          	mv	t1,a1
80000140:	00f12c23          	sw	a5,24(sp)
80000144:	00e505b3          	add	a1,a0,a4
80000148:	00f607b3          	add	a5,a2,a5
8000014c:	02a12623          	sw	a0,44(sp)
80000150:	02f12023          	sw	a5,32(sp)
80000154:	00e12a23          	sw	a4,20(sp)
80000158:	00512223          	sw	t0,4(sp)
8000015c:	04612e23          	sw	t1,92(sp)
80000160:	06d12023          	sw	a3,96(sp)
80000164:	06612223          	sw	t1,100(sp)
80000168:	06512423          	sw	t0,104(sp)
8000016c:	00158513          	addi	a0,a1,1
80000170:	00178493          	addi	s1,a5,1
80000174:	00001797          	auipc	a5,0x1
80000178:	17478793          	addi	a5,a5,372 # 800012e8 <buf.0+0x100>
8000017c:	10e54463          	blt	a0,a4,80000284 <main+0x210>
80000180:	01812783          	lw	a5,24(sp)
80000184:	01412683          	lw	a3,20(sp)
80000188:	00010437          	lui	s0,0x10
8000018c:	00379793          	slli	a5,a5,0x3
80000190:	f0040413          	addi	s0,s0,-256 # ff00 <_entry_offset+0xff00>
80000194:	02f12423          	sw	a5,40(sp)
80000198:	00349793          	slli	a5,s1,0x3
8000019c:	02f12223          	sw	a5,36(sp)
800001a0:	04912023          	sw	s1,64(sp)
800001a4:	00001797          	auipc	a5,0x1
800001a8:	14478793          	addi	a5,a5,324 # 800012e8 <buf.0+0x100>
800001ac:	00040493          	mv	s1,s0
800001b0:	02b12823          	sw	a1,48(sp)
800001b4:	02a12e23          	sw	a0,60(sp)
800001b8:	00068413          	mv	s0,a3
800001bc:	00001717          	auipc	a4,0x1
800001c0:	02c70713          	addi	a4,a4,44 # 800011e8 <buf.0>
800001c4:	00070293          	mv	t0,a4
800001c8:	00070613          	mv	a2,a4
800001cc:	00962023          	sw	s1,0(a2)
800001d0:	00460613          	addi	a2,a2,4
800001d4:	fec79ce3          	bne	a5,a2,800001cc <main+0x158>
800001d8:	00f12823          	sw	a5,16(sp)
800001dc:	02812783          	lw	a5,40(sp)
800001e0:	00341613          	slli	a2,s0,0x3
800001e4:	00800393          	li	t2,8
800001e8:	04410593          	addi	a1,sp,68
800001ec:	00b00513          	li	a0,11
800001f0:	00e12e23          	sw	a4,28(sp)
800001f4:	04c12223          	sw	a2,68(sp)
800001f8:	00c12623          	sw	a2,12(sp)
800001fc:	04f12423          	sw	a5,72(sp)
80000200:	04512623          	sw	t0,76(sp)
80000204:	00512423          	sw	t0,8(sp)
80000208:	04712823          	sw	t2,80(sp)
8000020c:	04712a23          	sw	t2,84(sp)
80000210:	04010c23          	sb	zero,88(sp)
80000214:	740000ef          	jal	80000954 <ioe_write>
80000218:	01c12703          	lw	a4,28(sp)
8000021c:	00c12603          	lw	a2,12(sp)
80000220:	01012783          	lw	a5,16(sp)
80000224:	00812283          	lw	t0,8(sp)
80000228:	00972023          	sw	s1,0(a4)
8000022c:	00470713          	addi	a4,a4,4
80000230:	fef71ce3          	bne	a4,a5,80000228 <main+0x1b4>
80000234:	00f12423          	sw	a5,8(sp)
80000238:	02412783          	lw	a5,36(sp)
8000023c:	00800713          	li	a4,8
80000240:	04410593          	addi	a1,sp,68
80000244:	00b00513          	li	a0,11
80000248:	04f12423          	sw	a5,72(sp)
8000024c:	04e12823          	sw	a4,80(sp)
80000250:	04e12a23          	sw	a4,84(sp)
80000254:	04c12223          	sw	a2,68(sp)
80000258:	04512623          	sw	t0,76(sp)
8000025c:	04010c23          	sb	zero,88(sp)
80000260:	6f4000ef          	jal	80000954 <ioe_write>
80000264:	03012683          	lw	a3,48(sp)
80000268:	00812783          	lw	a5,8(sp)
8000026c:	00140713          	addi	a4,s0,1
80000270:	0086c663          	blt	a3,s0,8000027c <main+0x208>
80000274:	00070413          	mv	s0,a4
80000278:	f45ff06f          	j	800001bc <main+0x148>
8000027c:	03c12503          	lw	a0,60(sp)
80000280:	04012483          	lw	s1,64(sp)
80000284:	01812303          	lw	t1,24(sp)
80000288:	0e64c463          	blt	s1,t1,80000370 <main+0x2fc>
8000028c:	01412703          	lw	a4,20(sp)
80000290:	00010437          	lui	s0,0x10
80000294:	f0040413          	addi	s0,s0,-256 # ff00 <_entry_offset+0xff00>
80000298:	00371713          	slli	a4,a4,0x3
8000029c:	02e12423          	sw	a4,40(sp)
800002a0:	00351713          	slli	a4,a0,0x3
800002a4:	00040493          	mv	s1,s0
800002a8:	02e12223          	sw	a4,36(sp)
800002ac:	00030413          	mv	s0,t1
800002b0:	00001717          	auipc	a4,0x1
800002b4:	f3870713          	addi	a4,a4,-200 # 800011e8 <buf.0>
800002b8:	00070293          	mv	t0,a4
800002bc:	00070693          	mv	a3,a4
800002c0:	0096a023          	sw	s1,0(a3)
800002c4:	00468693          	addi	a3,a3,4
800002c8:	fed79ce3          	bne	a5,a3,800002c0 <main+0x24c>
800002cc:	00f12823          	sw	a5,16(sp)
800002d0:	02812783          	lw	a5,40(sp)
800002d4:	00341693          	slli	a3,s0,0x3
800002d8:	00800393          	li	t2,8
800002dc:	04410593          	addi	a1,sp,68
800002e0:	00b00513          	li	a0,11
800002e4:	00e12e23          	sw	a4,28(sp)
800002e8:	04f12223          	sw	a5,68(sp)
800002ec:	04d12423          	sw	a3,72(sp)
800002f0:	00d12623          	sw	a3,12(sp)
800002f4:	04512623          	sw	t0,76(sp)
800002f8:	00512423          	sw	t0,8(sp)
800002fc:	04712823          	sw	t2,80(sp)
80000300:	04712a23          	sw	t2,84(sp)
80000304:	04010c23          	sb	zero,88(sp)
80000308:	64c000ef          	jal	80000954 <ioe_write>
8000030c:	01c12703          	lw	a4,28(sp)
80000310:	00c12683          	lw	a3,12(sp)
80000314:	01012783          	lw	a5,16(sp)
80000318:	00812283          	lw	t0,8(sp)
8000031c:	00972023          	sw	s1,0(a4)
80000320:	00470713          	addi	a4,a4,4
80000324:	fef71ce3          	bne	a4,a5,8000031c <main+0x2a8>
80000328:	00f12423          	sw	a5,8(sp)
8000032c:	02412783          	lw	a5,36(sp)
80000330:	00800713          	li	a4,8
80000334:	04410593          	addi	a1,sp,68
80000338:	00b00513          	li	a0,11
8000033c:	04f12223          	sw	a5,68(sp)
80000340:	04d12423          	sw	a3,72(sp)
80000344:	04e12823          	sw	a4,80(sp)
80000348:	04e12a23          	sw	a4,84(sp)
8000034c:	04512623          	sw	t0,76(sp)
80000350:	04010c23          	sb	zero,88(sp)
80000354:	600000ef          	jal	80000954 <ioe_write>
80000358:	02012683          	lw	a3,32(sp)
8000035c:	00812783          	lw	a5,8(sp)
80000360:	00140713          	addi	a4,s0,1
80000364:	0086c663          	blt	a3,s0,80000370 <main+0x2fc>
80000368:	00070413          	mv	s0,a4
8000036c:	f45ff06f          	j	800002b0 <main+0x23c>
80000370:	00f12823          	sw	a5,16(sp)
80000374:	375000ef          	jal	80000ee8 <rand>
80000378:	02c12583          	lw	a1,44(sp)
8000037c:	6c8000ef          	jal	80000a44 <__modsi3>
80000380:	00050413          	mv	s0,a0
80000384:	02a12423          	sw	a0,40(sp)
80000388:	361000ef          	jal	80000ee8 <rand>
8000038c:	03412583          	lw	a1,52(sp)
80000390:	6b4000ef          	jal	80000a44 <__modsi3>
80000394:	01412703          	lw	a4,20(sp)
80000398:	02a12823          	sw	a0,48(sp)
8000039c:	0ff00613          	li	a2,255
800003a0:	008705b3          	add	a1,a4,s0
800003a4:	01812703          	lw	a4,24(sp)
800003a8:	00158593          	addi	a1,a1,1
800003ac:	00a70533          	add	a0,a4,a0
800003b0:	00150513          	addi	a0,a0,1
800003b4:	c5dff0ef          	jal	80000010 <draw_tile>
800003b8:	00100793          	li	a5,1
800003bc:	00f12423          	sw	a5,8(sp)
800003c0:	00200793          	li	a5,2
800003c4:	00f12623          	sw	a5,12(sp)
800003c8:	00400793          	li	a5,4
800003cc:	02f12223          	sw	a5,36(sp)
800003d0:	01012783          	lw	a5,16(sp)
800003d4:	03812483          	lw	s1,56(sp)
800003d8:	00f12e23          	sw	a5,28(sp)
800003dc:	01812783          	lw	a5,24(sp)
800003e0:	00412703          	lw	a4,4(sp)
800003e4:	00001417          	auipc	s0,0x1
800003e8:	e0440413          	addi	s0,s0,-508 # 800011e8 <buf.0>
800003ec:	00040293          	mv	t0,s0
800003f0:	00e786b3          	add	a3,a5,a4
800003f4:	01412783          	lw	a5,20(sp)
800003f8:	00012703          	lw	a4,0(sp)
800003fc:	00168593          	addi	a1,a3,1
80000400:	00ff06b7          	lui	a3,0xff0
80000404:	00e78733          	add	a4,a5,a4
80000408:	01c12783          	lw	a5,28(sp)
8000040c:	00170613          	addi	a2,a4,1
80000410:	00040713          	mv	a4,s0
80000414:	00d72023          	sw	a3,0(a4)
80000418:	00470713          	addi	a4,a4,4
8000041c:	fee79ce3          	bne	a5,a4,80000414 <main+0x3a0>
80000420:	00800313          	li	t1,8
80000424:	00361713          	slli	a4,a2,0x3
80000428:	00359693          	slli	a3,a1,0x3
8000042c:	00b00513          	li	a0,11
80000430:	04410593          	addi	a1,sp,68
80000434:	04e12223          	sw	a4,68(sp)
80000438:	04512623          	sw	t0,76(sp)
8000043c:	00512823          	sw	t0,16(sp)
80000440:	04d12423          	sw	a3,72(sp)
80000444:	04612823          	sw	t1,80(sp)
80000448:	04612a23          	sw	t1,84(sp)
8000044c:	04010c23          	sb	zero,88(sp)
80000450:	504000ef          	jal	80000954 <ioe_write>
80000454:	00812783          	lw	a5,8(sp)
80000458:	00c12703          	lw	a4,12(sp)
8000045c:	01012283          	lw	t0,16(sp)
80000460:	40e78733          	sub	a4,a5,a4
80000464:	00075463          	bgez	a4,8000046c <main+0x3f8>
80000468:	06470713          	addi	a4,a4,100
8000046c:	00371713          	slli	a4,a4,0x3
80000470:	35070793          	addi	a5,a4,848
80000474:	04410713          	addi	a4,sp,68
80000478:	00e78733          	add	a4,a5,a4
8000047c:	ccc72683          	lw	a3,-820(a4)
80000480:	01812783          	lw	a5,24(sp)
80000484:	cc872603          	lw	a2,-824(a4)
80000488:	00d78733          	add	a4,a5,a3
8000048c:	01412783          	lw	a5,20(sp)
80000490:	00170713          	addi	a4,a4,1
80000494:	00c786b3          	add	a3,a5,a2
80000498:	01c12783          	lw	a5,28(sp)
8000049c:	00168693          	addi	a3,a3,1 # ff0001 <_entry_offset+0xff0001>
800004a0:	00042023          	sw	zero,0(s0)
800004a4:	00440413          	addi	s0,s0,4
800004a8:	fef41ce3          	bne	s0,a5,800004a0 <main+0x42c>
800004ac:	00800613          	li	a2,8
800004b0:	00369693          	slli	a3,a3,0x3
800004b4:	00371713          	slli	a4,a4,0x3
800004b8:	04410593          	addi	a1,sp,68
800004bc:	00b00513          	li	a0,11
800004c0:	04d12223          	sw	a3,68(sp)
800004c4:	04e12423          	sw	a4,72(sp)
800004c8:	04512623          	sw	t0,76(sp)
800004cc:	04c12823          	sw	a2,80(sp)
800004d0:	04c12a23          	sw	a2,84(sp)
800004d4:	04010c23          	sb	zero,88(sp)
800004d8:	47c000ef          	jal	80000954 <ioe_write>
800004dc:	0080006f          	j	800004e4 <main+0x470>
800004e0:	28070663          	beqz	a4,8000076c <main+0x6f8>
800004e4:	04410593          	addi	a1,sp,68
800004e8:	00800513          	li	a0,8
800004ec:	44c000ef          	jal	80000938 <ioe_read>
800004f0:	04414783          	lbu	a5,68(sp)
800004f4:	04812703          	lw	a4,72(sp)
800004f8:	fe0784e3          	beqz	a5,800004e0 <main+0x46c>
800004fc:	fb770693          	addi	a3,a4,-73
80000500:	00300613          	li	a2,3
80000504:	26d66463          	bltu	a2,a3,8000076c <main+0x6f8>
80000508:	fb870713          	addi	a4,a4,-72
8000050c:	2ac70663          	beq	a4,a2,800007b8 <main+0x744>
80000510:	00400693          	li	a3,4
80000514:	2ed70663          	beq	a4,a3,80000800 <main+0x78c>
80000518:	00200693          	li	a3,2
8000051c:	26d70c63          	beq	a4,a3,80000794 <main+0x720>
80000520:	02412783          	lw	a5,36(sp)
80000524:	26d78e63          	beq	a5,a3,800007a0 <main+0x72c>
80000528:	00412783          	lw	a5,4(sp)
8000052c:	fff78793          	addi	a5,a5,-1
80000530:	00f12223          	sw	a5,4(sp)
80000534:	00100793          	li	a5,1
80000538:	02f12223          	sw	a5,36(sp)
8000053c:	00812783          	lw	a5,8(sp)
80000540:	00012303          	lw	t1,0(sp)
80000544:	00412383          	lw	t2,4(sp)
80000548:	f9d78713          	addi	a4,a5,-99
8000054c:	00e03733          	snez	a4,a4
80000550:	40e00733          	neg	a4,a4
80000554:	00178793          	addi	a5,a5,1
80000558:	00e7f7b3          	and	a5,a5,a4
8000055c:	00379713          	slli	a4,a5,0x3
80000560:	04410693          	addi	a3,sp,68
80000564:	35070713          	addi	a4,a4,848
80000568:	00d70733          	add	a4,a4,a3
8000056c:	00100693          	li	a3,1
80000570:	cc672423          	sw	t1,-824(a4)
80000574:	cc772623          	sw	t2,-820(a4)
80000578:	00f12423          	sw	a5,8(sp)
8000057c:	fff00713          	li	a4,-1
80000580:	00d12823          	sw	a3,16(sp)
80000584:	04e30e63          	beq	t1,a4,800005e0 <main+0x56c>
80000588:	02c12603          	lw	a2,44(sp)
8000058c:	04660a63          	beq	a2,t1,800005e0 <main+0x56c>
80000590:	04e38863          	beq	t2,a4,800005e0 <main+0x56c>
80000594:	03412703          	lw	a4,52(sp)
80000598:	04770463          	beq	a4,t2,800005e0 <main+0x56c>
8000059c:	00c12283          	lw	t0,12(sp)
800005a0:	02d28e63          	beq	t0,a3,800005dc <main+0x568>
800005a4:	fff78693          	addi	a3,a5,-1
800005a8:	00078513          	mv	a0,a5
800005ac:	00068713          	mv	a4,a3
800005b0:	0006d463          	bgez	a3,800005b8 <main+0x544>
800005b4:	06468713          	addi	a4,a3,100
800005b8:	00371713          	slli	a4,a4,0x3
800005bc:	35070793          	addi	a5,a4,848
800005c0:	04410713          	addi	a4,sp,68
800005c4:	00e78733          	add	a4,a5,a4
800005c8:	cc872603          	lw	a2,-824(a4)
800005cc:	fff68693          	addi	a3,a3,-1
800005d0:	40d505b3          	sub	a1,a0,a3
800005d4:	10660e63          	beq	a2,t1,800006f0 <main+0x67c>
800005d8:	fc559ae3          	bne	a1,t0,800005ac <main+0x538>
800005dc:	00012823          	sw	zero,16(sp)
800005e0:	00012783          	lw	a5,0(sp)
800005e4:	02812703          	lw	a4,40(sp)
800005e8:	12e78263          	beq	a5,a4,8000070c <main+0x698>
800005ec:	00100713          	li	a4,1
800005f0:	04410593          	addi	a1,sp,68
800005f4:	00b00513          	li	a0,11
800005f8:	04e10c23          	sb	a4,88(sp)
800005fc:	04012223          	sw	zero,68(sp)
80000600:	04012423          	sw	zero,72(sp)
80000604:	04012623          	sw	zero,76(sp)
80000608:	04012823          	sw	zero,80(sp)
8000060c:	04012a23          	sw	zero,84(sp)
80000610:	344000ef          	jal	80000954 <ioe_write>
80000614:	00048593          	mv	a1,s1
80000618:	00600513          	li	a0,6
8000061c:	31c000ef          	jal	80000938 <ioe_read>
80000620:	00c12783          	lw	a5,12(sp)
80000624:	fffe96b7          	lui	a3,0xfffe9
80000628:	ce868693          	addi	a3,a3,-792 # fffe8ce8 <_end+0x7ffdece8>
8000062c:	00279713          	slli	a4,a5,0x2
80000630:	00f70733          	add	a4,a4,a5
80000634:	00371713          	slli	a4,a4,0x3
80000638:	40f70733          	sub	a4,a4,a5
8000063c:	00471713          	slli	a4,a4,0x4
80000640:	00f70733          	add	a4,a4,a5
80000644:	00371713          	slli	a4,a4,0x3
80000648:	40e00733          	neg	a4,a4
8000064c:	0004a583          	lw	a1,0(s1)
80000650:	0044a603          	lw	a2,4(s1)
80000654:	00d75463          	bge	a4,a3,8000065c <main+0x5e8>
80000658:	00068713          	mv	a4,a3
8000065c:	000186b7          	lui	a3,0x18
80000660:	6a068693          	addi	a3,a3,1696 # 186a0 <_entry_offset+0x186a0>
80000664:	00d70733          	add	a4,a4,a3
80000668:	41f75693          	srai	a3,a4,0x1f
8000066c:	00b707b3          	add	a5,a4,a1
80000670:	00e7b733          	sltu	a4,a5,a4
80000674:	00c686b3          	add	a3,a3,a2
80000678:	02f12023          	sw	a5,32(sp)
8000067c:	00d70433          	add	s0,a4,a3
80000680:	00048593          	mv	a1,s1
80000684:	00600513          	li	a0,6
80000688:	2b0000ef          	jal	80000938 <ioe_read>
8000068c:	0044a783          	lw	a5,4(s1)
80000690:	0004a683          	lw	a3,0(s1)
80000694:	fe87e6e3          	bltu	a5,s0,80000680 <main+0x60c>
80000698:	00f41663          	bne	s0,a5,800006a4 <main+0x630>
8000069c:	02012783          	lw	a5,32(sp)
800006a0:	fef6e0e3          	bltu	a3,a5,80000680 <main+0x60c>
800006a4:	01012783          	lw	a5,16(sp)
800006a8:	d2078ae3          	beqz	a5,800003dc <main+0x368>
800006ac:	00001517          	auipc	a0,0x1
800006b0:	89c50513          	addi	a0,a0,-1892 # 80000f48 <_etext>
800006b4:	758000ef          	jal	80000e0c <printf>
800006b8:	01d00413          	li	s0,29
800006bc:	04410593          	addi	a1,sp,68
800006c0:	00800513          	li	a0,8
800006c4:	274000ef          	jal	80000938 <ioe_read>
800006c8:	04414783          	lbu	a5,68(sp)
800006cc:	04812703          	lw	a4,72(sp)
800006d0:	fe0786e3          	beqz	a5,800006bc <main+0x648>
800006d4:	fe8714e3          	bne	a4,s0,800006bc <main+0x648>
800006d8:	39c12083          	lw	ra,924(sp)
800006dc:	39812403          	lw	s0,920(sp)
800006e0:	39412483          	lw	s1,916(sp)
800006e4:	00000513          	li	a0,0
800006e8:	3a010113          	addi	sp,sp,928
800006ec:	00008067          	ret
800006f0:	ccc72703          	lw	a4,-820(a4)
800006f4:	ee7712e3          	bne	a4,t2,800005d8 <main+0x564>
800006f8:	00100793          	li	a5,1
800006fc:	00f12823          	sw	a5,16(sp)
80000700:	02812703          	lw	a4,40(sp)
80000704:	00012783          	lw	a5,0(sp)
80000708:	eee792e3          	bne	a5,a4,800005ec <main+0x578>
8000070c:	00412783          	lw	a5,4(sp)
80000710:	03012703          	lw	a4,48(sp)
80000714:	ece79ce3          	bne	a5,a4,800005ec <main+0x578>
80000718:	00c12783          	lw	a5,12(sp)
8000071c:	00178793          	addi	a5,a5,1
80000720:	00f12623          	sw	a5,12(sp)
80000724:	7c4000ef          	jal	80000ee8 <rand>
80000728:	02c12583          	lw	a1,44(sp)
8000072c:	318000ef          	jal	80000a44 <__modsi3>
80000730:	00050413          	mv	s0,a0
80000734:	02a12423          	sw	a0,40(sp)
80000738:	7b0000ef          	jal	80000ee8 <rand>
8000073c:	03412583          	lw	a1,52(sp)
80000740:	304000ef          	jal	80000a44 <__modsi3>
80000744:	01412703          	lw	a4,20(sp)
80000748:	02a12823          	sw	a0,48(sp)
8000074c:	0ff00613          	li	a2,255
80000750:	008705b3          	add	a1,a4,s0
80000754:	01812703          	lw	a4,24(sp)
80000758:	00158593          	addi	a1,a1,1
8000075c:	00a70533          	add	a0,a4,a0
80000760:	00150513          	addi	a0,a0,1
80000764:	8adff0ef          	jal	80000010 <draw_tile>
80000768:	e85ff06f          	j	800005ec <main+0x578>
8000076c:	02412783          	lw	a5,36(sp)
80000770:	00300713          	li	a4,3
80000774:	04e78863          	beq	a5,a4,800007c4 <main+0x750>
80000778:	06f76263          	bltu	a4,a5,800007dc <main+0x768>
8000077c:	00100713          	li	a4,1
80000780:	dae784e3          	beq	a5,a4,80000528 <main+0x4b4>
80000784:	00200713          	li	a4,2
80000788:	00e78c63          	beq	a5,a4,800007a0 <main+0x72c>
8000078c:	02012223          	sw	zero,36(sp)
80000790:	dadff06f          	j	8000053c <main+0x4c8>
80000794:	02412783          	lw	a5,36(sp)
80000798:	00100713          	li	a4,1
8000079c:	d8e786e3          	beq	a5,a4,80000528 <main+0x4b4>
800007a0:	00412783          	lw	a5,4(sp)
800007a4:	00178793          	addi	a5,a5,1
800007a8:	00f12223          	sw	a5,4(sp)
800007ac:	00200793          	li	a5,2
800007b0:	02f12223          	sw	a5,36(sp)
800007b4:	d89ff06f          	j	8000053c <main+0x4c8>
800007b8:	02412783          	lw	a5,36(sp)
800007bc:	00400713          	li	a4,4
800007c0:	02e78463          	beq	a5,a4,800007e8 <main+0x774>
800007c4:	00012783          	lw	a5,0(sp)
800007c8:	fff78793          	addi	a5,a5,-1
800007cc:	00f12023          	sw	a5,0(sp)
800007d0:	00300793          	li	a5,3
800007d4:	02f12223          	sw	a5,36(sp)
800007d8:	d65ff06f          	j	8000053c <main+0x4c8>
800007dc:	02412783          	lw	a5,36(sp)
800007e0:	00400713          	li	a4,4
800007e4:	d4e79ce3          	bne	a5,a4,8000053c <main+0x4c8>
800007e8:	00012783          	lw	a5,0(sp)
800007ec:	00178793          	addi	a5,a5,1
800007f0:	00f12023          	sw	a5,0(sp)
800007f4:	00400793          	li	a5,4
800007f8:	02f12223          	sw	a5,36(sp)
800007fc:	d41ff06f          	j	8000053c <main+0x4c8>
80000800:	02412783          	lw	a5,36(sp)
80000804:	fcc780e3          	beq	a5,a2,800007c4 <main+0x750>
80000808:	00012783          	lw	a5,0(sp)
8000080c:	00178793          	addi	a5,a5,1
80000810:	00f12023          	sw	a5,0(sp)
80000814:	00400793          	li	a5,4
80000818:	02f12223          	sw	a5,36(sp)
8000081c:	d21ff06f          	j	8000053c <main+0x4c8>

80000820 <putch>:
80000820:	a00007b7          	lui	a5,0xa0000
80000824:	3ea78c23          	sb	a0,1016(a5) # a00003f8 <_end+0x1fff63f8>
80000828:	00008067          	ret

8000082c <halt>:
8000082c:	00050513          	mv	a0,a0
80000830:	00100073          	ebreak
80000834:	0000006f          	j	80000834 <halt+0x8>

80000838 <_trm_init>:
80000838:	ff410113          	addi	sp,sp,-12
8000083c:	00000517          	auipc	a0,0x0
80000840:	7a450513          	addi	a0,a0,1956 # 80000fe0 <mainargs>
80000844:	00112423          	sw	ra,8(sp)
80000848:	82dff0ef          	jal	80000074 <main>
8000084c:	00050513          	mv	a0,a0
80000850:	00100073          	ebreak
80000854:	0000006f          	j	80000854 <_trm_init+0x1c>

80000858 <__am_timer_config>:
80000858:	00100793          	li	a5,1
8000085c:	00f50023          	sb	a5,0(a0)
80000860:	00f500a3          	sb	a5,1(a0)
80000864:	00008067          	ret

80000868 <__am_input_config>:
80000868:	00100793          	li	a5,1
8000086c:	00f50023          	sb	a5,0(a0)
80000870:	00008067          	ret

80000874 <__am_uart_config>:
80000874:	00050023          	sb	zero,0(a0)
80000878:	00008067          	ret

8000087c <fail>:
8000087c:	ff410113          	addi	sp,sp,-12
80000880:	00812223          	sw	s0,4(sp)
80000884:	00112423          	sw	ra,8(sp)
80000888:	00000417          	auipc	s0,0x0
8000088c:	6dc40413          	addi	s0,s0,1756 # 80000f64 <_etext+0x1c>
80000890:	04100513          	li	a0,65
80000894:	f8dff0ef          	jal	80000820 <putch>
80000898:	00144503          	lbu	a0,1(s0)
8000089c:	00140413          	addi	s0,s0,1
800008a0:	fe051ae3          	bnez	a0,80000894 <fail+0x18>
800008a4:	00000417          	auipc	s0,0x0
800008a8:	6cc40413          	addi	s0,s0,1740 # 80000f70 <_etext+0x28>
800008ac:	06100513          	li	a0,97
800008b0:	f71ff0ef          	jal	80000820 <putch>
800008b4:	00144503          	lbu	a0,1(s0)
800008b8:	00140413          	addi	s0,s0,1
800008bc:	fe051ae3          	bnez	a0,800008b0 <fail+0x34>
800008c0:	00000417          	auipc	s0,0x0
800008c4:	6cc40413          	addi	s0,s0,1740 # 80000f8c <_etext+0x44>
800008c8:	02000513          	li	a0,32
800008cc:	f55ff0ef          	jal	80000820 <putch>
800008d0:	00144503          	lbu	a0,1(s0)
800008d4:	00140413          	addi	s0,s0,1
800008d8:	fe051ae3          	bnez	a0,800008cc <fail+0x50>
800008dc:	00100513          	li	a0,1
800008e0:	f4dff0ef          	jal	8000082c <halt>

800008e4 <ioe_init>:
800008e4:	ff410113          	addi	sp,sp,-12
800008e8:	00112423          	sw	ra,8(sp)
800008ec:	00000797          	auipc	a5,0x0
800008f0:	6f878793          	addi	a5,a5,1784 # 80000fe4 <lut>
800008f4:	00001697          	auipc	a3,0x1
800008f8:	8f068693          	addi	a3,a3,-1808 # 800011e4 <next>
800008fc:	00000617          	auipc	a2,0x0
80000900:	f8060613          	addi	a2,a2,-128 # 8000087c <fail>
80000904:	00c0006f          	j	80000910 <ioe_init+0x2c>
80000908:	00478793          	addi	a5,a5,4
8000090c:	00d78c63          	beq	a5,a3,80000924 <ioe_init+0x40>
80000910:	0007a703          	lw	a4,0(a5)
80000914:	fe071ae3          	bnez	a4,80000908 <ioe_init+0x24>
80000918:	00c7a023          	sw	a2,0(a5)
8000091c:	00478793          	addi	a5,a5,4
80000920:	fed798e3          	bne	a5,a3,80000910 <ioe_init+0x2c>
80000924:	04c000ef          	jal	80000970 <__am_timer_init>
80000928:	00812083          	lw	ra,8(sp)
8000092c:	00100513          	li	a0,1
80000930:	00c10113          	addi	sp,sp,12
80000934:	00008067          	ret

80000938 <ioe_read>:
80000938:	00251513          	slli	a0,a0,0x2
8000093c:	00000797          	auipc	a5,0x0
80000940:	6a878793          	addi	a5,a5,1704 # 80000fe4 <lut>
80000944:	00a787b3          	add	a5,a5,a0
80000948:	0007a783          	lw	a5,0(a5)
8000094c:	00058513          	mv	a0,a1
80000950:	00078067          	jr	a5

80000954 <ioe_write>:
80000954:	00251513          	slli	a0,a0,0x2
80000958:	00000797          	auipc	a5,0x0
8000095c:	68c78793          	addi	a5,a5,1676 # 80000fe4 <lut>
80000960:	00a787b3          	add	a5,a5,a0
80000964:	0007a783          	lw	a5,0(a5)
80000968:	00058513          	mv	a0,a1
8000096c:	00078067          	jr	a5

80000970 <__am_timer_init>:
80000970:	00008067          	ret

80000974 <__am_timer_uptime>:
80000974:	a0000737          	lui	a4,0xa0000
80000978:	a00007b7          	lui	a5,0xa0000
8000097c:	04870713          	addi	a4,a4,72 # a0000048 <_end+0x1fff6048>
80000980:	04c7a683          	lw	a3,76(a5) # a000004c <_end+0x1fff604c>
80000984:	00072703          	lw	a4,0(a4)
80000988:	00d52223          	sw	a3,4(a0)
8000098c:	00e52023          	sw	a4,0(a0)
80000990:	00008067          	ret

80000994 <__am_timer_rtc>:
80000994:	76c00793          	li	a5,1900
80000998:	00052a23          	sw	zero,20(a0)
8000099c:	00052823          	sw	zero,16(a0)
800009a0:	00052623          	sw	zero,12(a0)
800009a4:	00052423          	sw	zero,8(a0)
800009a8:	00052223          	sw	zero,4(a0)
800009ac:	00f52023          	sw	a5,0(a0)
800009b0:	00008067          	ret

800009b4 <__am_input_keybrd>:
800009b4:	00050023          	sb	zero,0(a0)
800009b8:	00052223          	sw	zero,4(a0)
800009bc:	00008067          	ret

800009c0 <__divsi3>:
800009c0:	06054063          	bltz	a0,80000a20 <__umodsi3+0x10>
800009c4:	0605c663          	bltz	a1,80000a30 <__umodsi3+0x20>

800009c8 <__hidden___udivsi3>:
800009c8:	00058613          	mv	a2,a1
800009cc:	00050593          	mv	a1,a0
800009d0:	fff00513          	li	a0,-1
800009d4:	02060c63          	beqz	a2,80000a0c <__hidden___udivsi3+0x44>
800009d8:	00100693          	li	a3,1
800009dc:	00b67a63          	bgeu	a2,a1,800009f0 <__hidden___udivsi3+0x28>
800009e0:	00c05863          	blez	a2,800009f0 <__hidden___udivsi3+0x28>
800009e4:	00161613          	slli	a2,a2,0x1
800009e8:	00169693          	slli	a3,a3,0x1
800009ec:	feb66ae3          	bltu	a2,a1,800009e0 <__hidden___udivsi3+0x18>
800009f0:	00000513          	li	a0,0
800009f4:	00c5e663          	bltu	a1,a2,80000a00 <__hidden___udivsi3+0x38>
800009f8:	40c585b3          	sub	a1,a1,a2
800009fc:	00d56533          	or	a0,a0,a3
80000a00:	0016d693          	srli	a3,a3,0x1
80000a04:	00165613          	srli	a2,a2,0x1
80000a08:	fe0696e3          	bnez	a3,800009f4 <__hidden___udivsi3+0x2c>
80000a0c:	00008067          	ret

80000a10 <__umodsi3>:
80000a10:	00008293          	mv	t0,ra
80000a14:	fb5ff0ef          	jal	800009c8 <__hidden___udivsi3>
80000a18:	00058513          	mv	a0,a1
80000a1c:	00028067          	jr	t0
80000a20:	40a00533          	neg	a0,a0
80000a24:	00b04863          	bgtz	a1,80000a34 <__umodsi3+0x24>
80000a28:	40b005b3          	neg	a1,a1
80000a2c:	f9dff06f          	j	800009c8 <__hidden___udivsi3>
80000a30:	40b005b3          	neg	a1,a1
80000a34:	00008293          	mv	t0,ra
80000a38:	f91ff0ef          	jal	800009c8 <__hidden___udivsi3>
80000a3c:	40a00533          	neg	a0,a0
80000a40:	00028067          	jr	t0

80000a44 <__modsi3>:
80000a44:	00008293          	mv	t0,ra
80000a48:	0005ca63          	bltz	a1,80000a5c <__modsi3+0x18>
80000a4c:	00054c63          	bltz	a0,80000a64 <__modsi3+0x20>
80000a50:	f79ff0ef          	jal	800009c8 <__hidden___udivsi3>
80000a54:	00058513          	mv	a0,a1
80000a58:	00028067          	jr	t0
80000a5c:	40b005b3          	neg	a1,a1
80000a60:	fe0558e3          	bgez	a0,80000a50 <__modsi3+0xc>
80000a64:	40a00533          	neg	a0,a0
80000a68:	f61ff0ef          	jal	800009c8 <__hidden___udivsi3>
80000a6c:	40b00533          	neg	a0,a1
80000a70:	00028067          	jr	t0

80000a74 <memset>:
80000a74:	0ff5f593          	zext.b	a1,a1
80000a78:	00c50733          	add	a4,a0,a2
80000a7c:	00050793          	mv	a5,a0
80000a80:	00060863          	beqz	a2,80000a90 <memset+0x1c>
80000a84:	00b78023          	sb	a1,0(a5)
80000a88:	00178793          	addi	a5,a5,1
80000a8c:	fef71ce3          	bne	a4,a5,80000a84 <memset+0x10>
80000a90:	00008067          	ret

80000a94 <vsprintf>:
80000a94:	fa410113          	addi	sp,sp,-92
80000a98:	04112c23          	sw	ra,88(sp)
80000a9c:	0005c683          	lbu	a3,0(a1)
80000aa0:	00b12023          	sw	a1,0(sp)
80000aa4:	00c12423          	sw	a2,8(sp)
80000aa8:	00050393          	mv	t2,a0
80000aac:	34068063          	beqz	a3,80000dec <vsprintf+0x358>
80000ab0:	04912823          	sw	s1,80(sp)
80000ab4:	04812a23          	sw	s0,84(sp)
80000ab8:	00000713          	li	a4,0
80000abc:	00000493          	li	s1,0
80000ac0:	00050313          	mv	t1,a0
80000ac4:	00a12223          	sw	a0,4(sp)
80000ac8:	0280006f          	j	80000af0 <vsprintf+0x5c>
80000acc:	00412783          	lw	a5,4(sp)
80000ad0:	00148493          	addi	s1,s1,1
80000ad4:	00d30023          	sb	a3,0(t1)
80000ad8:	00978333          	add	t1,a5,s1
80000adc:	00012783          	lw	a5,0(sp)
80000ae0:	00060713          	mv	a4,a2
80000ae4:	00e787b3          	add	a5,a5,a4
80000ae8:	0007c683          	lbu	a3,0(a5)
80000aec:	10068a63          	beqz	a3,80000c00 <vsprintf+0x16c>
80000af0:	02500793          	li	a5,37
80000af4:	00170613          	addi	a2,a4,1
80000af8:	00048393          	mv	t2,s1
80000afc:	fcf698e3          	bne	a3,a5,80000acc <vsprintf+0x38>
80000b00:	00012783          	lw	a5,0(sp)
80000b04:	00012823          	sw	zero,16(sp)
80000b08:	00c782b3          	add	t0,a5,a2
80000b0c:	0002c583          	lbu	a1,0(t0)
80000b10:	03000793          	li	a5,48
80000b14:	00f59e63          	bne	a1,a5,80000b30 <vsprintf+0x9c>
80000b18:	00012783          	lw	a5,0(sp)
80000b1c:	00270613          	addi	a2,a4,2
80000b20:	00c782b3          	add	t0,a5,a2
80000b24:	0002c583          	lbu	a1,0(t0)
80000b28:	00100793          	li	a5,1
80000b2c:	00f12823          	sw	a5,16(sp)
80000b30:	00012783          	lw	a5,0(sp)
80000b34:	00160693          	addi	a3,a2,1
80000b38:	fd058713          	addi	a4,a1,-48
80000b3c:	00d787b3          	add	a5,a5,a3
80000b40:	00f12623          	sw	a5,12(sp)
80000b44:	0ff77513          	zext.b	a0,a4
80000b48:	00900793          	li	a5,9
80000b4c:	00000413          	li	s0,0
80000b50:	04a7e863          	bltu	a5,a0,80000ba0 <vsprintf+0x10c>
80000b54:	00c12783          	lw	a5,12(sp)
80000b58:	00040513          	mv	a0,s0
80000b5c:	00612623          	sw	t1,12(sp)
80000b60:	0080006f          	j	80000b68 <vsprintf+0xd4>
80000b64:	00168693          	addi	a3,a3,1
80000b68:	0007c583          	lbu	a1,0(a5)
80000b6c:	00251413          	slli	s0,a0,0x2
80000b70:	00a40433          	add	s0,s0,a0
80000b74:	00141413          	slli	s0,s0,0x1
80000b78:	00870533          	add	a0,a4,s0
80000b7c:	fd058713          	addi	a4,a1,-48
80000b80:	0ff77413          	zext.b	s0,a4
80000b84:	00900313          	li	t1,9
80000b88:	00078293          	mv	t0,a5
80000b8c:	00068613          	mv	a2,a3
80000b90:	00178793          	addi	a5,a5,1
80000b94:	fc8378e3          	bgeu	t1,s0,80000b64 <vsprintf+0xd0>
80000b98:	00c12303          	lw	t1,12(sp)
80000b9c:	00050413          	mv	s0,a0
80000ba0:	06400793          	li	a5,100
80000ba4:	0af58663          	beq	a1,a5,80000c50 <vsprintf+0x1bc>
80000ba8:	07300793          	li	a5,115
80000bac:	06f59c63          	bne	a1,a5,80000c24 <vsprintf+0x190>
80000bb0:	00812783          	lw	a5,8(sp)
80000bb4:	0007a683          	lw	a3,0(a5)
80000bb8:	00478593          	addi	a1,a5,4
80000bbc:	02068663          	beqz	a3,80000be8 <vsprintf+0x154>
80000bc0:	0006c703          	lbu	a4,0(a3)
80000bc4:	02070263          	beqz	a4,80000be8 <vsprintf+0x154>
80000bc8:	00412503          	lw	a0,4(sp)
80000bcc:	00148493          	addi	s1,s1,1
80000bd0:	00950333          	add	t1,a0,s1
80000bd4:	407487b3          	sub	a5,s1,t2
80000bd8:	fee30fa3          	sb	a4,-1(t1)
80000bdc:	00f687b3          	add	a5,a3,a5
80000be0:	0007c703          	lbu	a4,0(a5)
80000be4:	fe0714e3          	bnez	a4,80000bcc <vsprintf+0x138>
80000be8:	00b12423          	sw	a1,8(sp)
80000bec:	00160713          	addi	a4,a2,1
80000bf0:	00012783          	lw	a5,0(sp)
80000bf4:	00e787b3          	add	a5,a5,a4
80000bf8:	0007c683          	lbu	a3,0(a5)
80000bfc:	ee069ae3          	bnez	a3,80000af0 <vsprintf+0x5c>
80000c00:	00030393          	mv	t2,t1
80000c04:	05412403          	lw	s0,84(sp)
80000c08:	00048793          	mv	a5,s1
80000c0c:	05012483          	lw	s1,80(sp)
80000c10:	00038023          	sb	zero,0(t2)
80000c14:	05812083          	lw	ra,88(sp)
80000c18:	00078513          	mv	a0,a5
80000c1c:	05c10113          	addi	sp,sp,92
80000c20:	00008067          	ret
80000c24:	02500793          	li	a5,37
80000c28:	00f30023          	sb	a5,0(t1)
80000c2c:	00412683          	lw	a3,4(sp)
80000c30:	0002c703          	lbu	a4,0(t0)
80000c34:	00148793          	addi	a5,s1,1
80000c38:	00f687b3          	add	a5,a3,a5
80000c3c:	00248493          	addi	s1,s1,2
80000c40:	00e78023          	sb	a4,0(a5)
80000c44:	00968333          	add	t1,a3,s1
80000c48:	00160713          	addi	a4,a2,1
80000c4c:	fa5ff06f          	j	80000bf0 <vsprintf+0x15c>
80000c50:	00812703          	lw	a4,8(sp)
80000c54:	00072783          	lw	a5,0(a4)
80000c58:	00470293          	addi	t0,a4,4
80000c5c:	08079a63          	bnez	a5,80000cf0 <vsprintf+0x25c>
80000c60:	03000793          	li	a5,48
80000c64:	02f10823          	sb	a5,48(sp)
80000c68:	fff40413          	addi	s0,s0,-1
80000c6c:	06805c63          	blez	s0,80000ce4 <vsprintf+0x250>
80000c70:	01012783          	lw	a5,16(sp)
80000c74:	03010693          	addi	a3,sp,48
80000c78:	06078663          	beqz	a5,80000ce4 <vsprintf+0x250>
80000c7c:	01012783          	lw	a5,16(sp)
80000c80:	fff40593          	addi	a1,s0,-1
80000c84:	00412703          	lw	a4,4(sp)
80000c88:	03000513          	li	a0,48
80000c8c:	00170713          	addi	a4,a4,1
80000c90:	00970733          	add	a4,a4,s1
80000c94:	00b70733          	add	a4,a4,a1
80000c98:	00a30023          	sb	a0,0(t1)
80000c9c:	00130313          	addi	t1,t1,1
80000ca0:	fe671ce3          	bne	a4,t1,80000c98 <vsprintf+0x204>
80000ca4:	00412703          	lw	a4,4(sp)
80000ca8:	00148493          	addi	s1,s1,1
80000cac:	00b484b3          	add	s1,s1,a1
80000cb0:	00970333          	add	t1,a4,s1
80000cb4:	00f68733          	add	a4,a3,a5
80000cb8:	fff74583          	lbu	a1,-1(a4)
80000cbc:	fff70713          	addi	a4,a4,-1
80000cc0:	00130313          	addi	t1,t1,1
80000cc4:	feb30fa3          	sb	a1,-1(t1)
80000cc8:	fee698e3          	bne	a3,a4,80000cb8 <vsprintf+0x224>
80000ccc:	009784b3          	add	s1,a5,s1
80000cd0:	00412783          	lw	a5,4(sp)
80000cd4:	00512423          	sw	t0,8(sp)
80000cd8:	00160713          	addi	a4,a2,1
80000cdc:	00978333          	add	t1,a5,s1
80000ce0:	f11ff06f          	j	80000bf0 <vsprintf+0x15c>
80000ce4:	00100793          	li	a5,1
80000ce8:	03010693          	addi	a3,sp,48
80000cec:	fc9ff06f          	j	80000cb4 <vsprintf+0x220>
80000cf0:	00000593          	li	a1,0
80000cf4:	0007d663          	bgez	a5,80000d00 <vsprintf+0x26c>
80000cf8:	40f007b3          	neg	a5,a5
80000cfc:	00100593          	li	a1,1
80000d00:	00000713          	li	a4,0
80000d04:	03010693          	addi	a3,sp,48
80000d08:	00812c23          	sw	s0,24(sp)
80000d0c:	02912423          	sw	s1,40(sp)
80000d10:	00078413          	mv	s0,a5
80000d14:	00c12e23          	sw	a2,28(sp)
80000d18:	02512023          	sw	t0,32(sp)
80000d1c:	02b12223          	sw	a1,36(sp)
80000d20:	00070493          	mv	s1,a4
80000d24:	02612623          	sw	t1,44(sp)
80000d28:	00d12623          	sw	a3,12(sp)
80000d2c:	00c12783          	lw	a5,12(sp)
80000d30:	00912a23          	sw	s1,20(sp)
80000d34:	00148493          	addi	s1,s1,1
80000d38:	00978633          	add	a2,a5,s1
80000d3c:	00a00593          	li	a1,10
80000d40:	00040513          	mv	a0,s0
80000d44:	00c12423          	sw	a2,8(sp)
80000d48:	cfdff0ef          	jal	80000a44 <__modsi3>
80000d4c:	00812603          	lw	a2,8(sp)
80000d50:	03050693          	addi	a3,a0,48
80000d54:	00a00593          	li	a1,10
80000d58:	00040513          	mv	a0,s0
80000d5c:	fed60fa3          	sb	a3,-1(a2)
80000d60:	c61ff0ef          	jal	800009c0 <__divsi3>
80000d64:	00050413          	mv	s0,a0
80000d68:	fc0512e3          	bnez	a0,80000d2c <vsprintf+0x298>
80000d6c:	02412583          	lw	a1,36(sp)
80000d70:	00048713          	mv	a4,s1
80000d74:	01812403          	lw	s0,24(sp)
80000d78:	01c12603          	lw	a2,28(sp)
80000d7c:	02012283          	lw	t0,32(sp)
80000d80:	02812483          	lw	s1,40(sp)
80000d84:	02c12303          	lw	t1,44(sp)
80000d88:	00c12683          	lw	a3,12(sp)
80000d8c:	00059e63          	bnez	a1,80000da8 <vsprintf+0x314>
80000d90:	40e40433          	sub	s0,s0,a4
80000d94:	00805663          	blez	s0,80000da0 <vsprintf+0x30c>
80000d98:	01012783          	lw	a5,16(sp)
80000d9c:	06079463          	bnez	a5,80000e04 <vsprintf+0x370>
80000da0:	00070793          	mv	a5,a4
80000da4:	f11ff06f          	j	80000cb4 <vsprintf+0x220>
80000da8:	01412783          	lw	a5,20(sp)
80000dac:	02070593          	addi	a1,a4,32
80000db0:	03010393          	addi	t2,sp,48
80000db4:	007585b3          	add	a1,a1,t2
80000db8:	00278793          	addi	a5,a5,2
80000dbc:	02d00513          	li	a0,45
80000dc0:	fea58023          	sb	a0,-32(a1)
80000dc4:	40f405b3          	sub	a1,s0,a5
80000dc8:	eeb056e3          	blez	a1,80000cb4 <vsprintf+0x220>
80000dcc:	01012383          	lw	t2,16(sp)
80000dd0:	ee0382e3          	beqz	t2,80000cb4 <vsprintf+0x220>
80000dd4:	00070793          	mv	a5,a4
80000dd8:	00412703          	lw	a4,4(sp)
80000ddc:	00148493          	addi	s1,s1,1
80000de0:	00a30023          	sb	a0,0(t1)
80000de4:	00970333          	add	t1,a4,s1
80000de8:	e9dff06f          	j	80000c84 <vsprintf+0x1f0>
80000dec:	00038023          	sb	zero,0(t2)
80000df0:	05812083          	lw	ra,88(sp)
80000df4:	00000793          	li	a5,0
80000df8:	00078513          	mv	a0,a5
80000dfc:	05c10113          	addi	sp,sp,92
80000e00:	00008067          	ret
80000e04:	00e12823          	sw	a4,16(sp)
80000e08:	e75ff06f          	j	80000c7c <vsprintf+0x1e8>

80000e0c <printf>:
80000e0c:	fd810113          	addi	sp,sp,-40
80000e10:	fffff2b7          	lui	t0,0xfffff
80000e14:	00112823          	sw	ra,16(sp)
80000e18:	00912423          	sw	s1,8(sp)
80000e1c:	00812623          	sw	s0,12(sp)
80000e20:	00510133          	add	sp,sp,t0
80000e24:	000012b7          	lui	t0,0x1
80000e28:	fffff337          	lui	t1,0xfffff
80000e2c:	00428393          	addi	t2,t0,4 # 1004 <_entry_offset+0x1004>
80000e30:	006383b3          	add	t2,t2,t1
80000e34:	00410313          	addi	t1,sp,4
80000e38:	00410093          	addi	ra,sp,4
80000e3c:	00638333          	add	t1,t2,t1
80000e40:	01028393          	addi	t2,t0,16
80000e44:	00612023          	sw	t1,0(sp)
80000e48:	001383b3          	add	t2,t2,ra
80000e4c:	00b3a023          	sw	a1,0(t2)
80000e50:	01428593          	addi	a1,t0,20
80000e54:	001585b3          	add	a1,a1,ra
80000e58:	01828393          	addi	t2,t0,24
80000e5c:	00c5a023          	sw	a2,0(a1)
80000e60:	001383b3          	add	t2,t2,ra
80000e64:	01428313          	addi	t1,t0,20
80000e68:	00050593          	mv	a1,a0
80000e6c:	00012503          	lw	a0,0(sp)
80000e70:	00d3a023          	sw	a3,0(t2)
80000e74:	00028693          	mv	a3,t0
80000e78:	01c28293          	addi	t0,t0,28
80000e7c:	001282b3          	add	t0,t0,ra
80000e80:	00e2a023          	sw	a4,0(t0)
80000e84:	02068713          	addi	a4,a3,32
80000e88:	00170733          	add	a4,a4,ra
80000e8c:	00f72023          	sw	a5,0(a4)
80000e90:	00012783          	lw	a5,0(sp)
80000e94:	00230333          	add	t1,t1,sp
80000e98:	00030613          	mv	a2,t1
80000e9c:	fe67ae23          	sw	t1,-4(a5)
80000ea0:	bf5ff0ef          	jal	80000a94 <vsprintf>
80000ea4:	00012783          	lw	a5,0(sp)
80000ea8:	00050493          	mv	s1,a0
80000eac:	0007c503          	lbu	a0,0(a5)
80000eb0:	00050c63          	beqz	a0,80000ec8 <printf+0xbc>
80000eb4:	00178413          	addi	s0,a5,1
80000eb8:	969ff0ef          	jal	80000820 <putch>
80000ebc:	00044503          	lbu	a0,0(s0)
80000ec0:	00140413          	addi	s0,s0,1
80000ec4:	fe051ae3          	bnez	a0,80000eb8 <printf+0xac>
80000ec8:	000012b7          	lui	t0,0x1
80000ecc:	00510133          	add	sp,sp,t0
80000ed0:	01012083          	lw	ra,16(sp)
80000ed4:	00048513          	mv	a0,s1
80000ed8:	00c12403          	lw	s0,12(sp)
80000edc:	00812483          	lw	s1,8(sp)
80000ee0:	02810113          	addi	sp,sp,40
80000ee4:	00008067          	ret

80000ee8 <rand>:
80000ee8:	00000697          	auipc	a3,0x0
80000eec:	2fc68693          	addi	a3,a3,764 # 800011e4 <next>
80000ef0:	0006a583          	lw	a1,0(a3)
80000ef4:	00003637          	lui	a2,0x3
80000ef8:	03960613          	addi	a2,a2,57 # 3039 <_entry_offset+0x3039>
80000efc:	00859713          	slli	a4,a1,0x8
80000f00:	40b70733          	sub	a4,a4,a1
80000f04:	00371713          	slli	a4,a4,0x3
80000f08:	00b70733          	add	a4,a4,a1
80000f0c:	00771713          	slli	a4,a4,0x7
80000f10:	00b70733          	add	a4,a4,a1
80000f14:	00371713          	slli	a4,a4,0x3
80000f18:	40b70733          	sub	a4,a4,a1
80000f1c:	00571793          	slli	a5,a4,0x5
80000f20:	00f707b3          	add	a5,a4,a5
80000f24:	00279793          	slli	a5,a5,0x2
80000f28:	40b787b3          	sub	a5,a5,a1
80000f2c:	00279793          	slli	a5,a5,0x2
80000f30:	00b787b3          	add	a5,a5,a1
80000f34:	00c787b3          	add	a5,a5,a2
80000f38:	00179513          	slli	a0,a5,0x1
80000f3c:	00f6a023          	sw	a5,0(a3)
80000f40:	01155513          	srli	a0,a0,0x11
80000f44:	00008067          	ret
