
/home/jinghanhui/ysyx-workbench/am-kernels/tests/cpu-tests/build/crc32-riscv32e-npc.elf:     file format elf32-littleriscv


Disassembly of section .text:

80000000 <_start>:
80000000:	00000413          	li	s0,0
80000004:	00009117          	auipc	sp,0x9
80000008:	ffc10113          	addi	sp,sp,-4 # 80009000 <_end>
8000000c:	140000ef          	jal	8000014c <_trm_init>

80000010 <check>:
80000010:	00050463          	beqz	a0,80000018 <check+0x8>
80000014:	00008067          	ret
80000018:	ff410113          	addi	sp,sp,-12
8000001c:	00100513          	li	a0,1
80000020:	00112423          	sw	ra,8(sp)
80000024:	11c000ef          	jal	80000140 <halt>

80000028 <rc_crc32>:
80000028:	ff810113          	addi	sp,sp,-8
8000002c:	00812223          	sw	s0,4(sp)
80000030:	00000417          	auipc	s0,0x0
80000034:	56c40413          	addi	s0,s0,1388 # 8000059c <have_table.1>
80000038:	00042283          	lw	t0,0(s0)
8000003c:	00912023          	sw	s1,0(sp)
80000040:	00050493          	mv	s1,a0
80000044:	00060513          	mv	a0,a2
80000048:	04029a63          	bnez	t0,8000009c <rc_crc32+0x74>
8000004c:	edb88337          	lui	t1,0xedb88
80000050:	00000397          	auipc	t2,0x0
80000054:	14c38393          	addi	t2,t2,332 # 8000019c <table.0>
80000058:	32030313          	addi	t1,t1,800 # edb88320 <_end+0x6db7f320>
8000005c:	10000613          	li	a2,256
80000060:	00028713          	mv	a4,t0
80000064:	00800693          	li	a3,8
80000068:	00177793          	andi	a5,a4,1
8000006c:	40f007b3          	neg	a5,a5
80000070:	0067f7b3          	and	a5,a5,t1
80000074:	00175713          	srli	a4,a4,0x1
80000078:	fff68693          	addi	a3,a3,-1
8000007c:	00e7c733          	xor	a4,a5,a4
80000080:	fe0694e3          	bnez	a3,80000068 <rc_crc32+0x40>
80000084:	00e3a023          	sw	a4,0(t2)
80000088:	00128293          	addi	t0,t0,1
8000008c:	00438393          	addi	t2,t2,4
80000090:	fcc298e3          	bne	t0,a2,80000060 <rc_crc32+0x38>
80000094:	00100793          	li	a5,1
80000098:	00f42023          	sw	a5,0(s0)
8000009c:	00a58533          	add	a0,a1,a0
800000a0:	fff4c713          	not	a4,s1
800000a4:	04a5f463          	bgeu	a1,a0,800000ec <rc_crc32+0xc4>
800000a8:	00000617          	auipc	a2,0x0
800000ac:	0f460613          	addi	a2,a2,244 # 8000019c <table.0>
800000b0:	0005c683          	lbu	a3,0(a1)
800000b4:	0ff77793          	zext.b	a5,a4
800000b8:	00158593          	addi	a1,a1,1
800000bc:	00d7c7b3          	xor	a5,a5,a3
800000c0:	00279793          	slli	a5,a5,0x2
800000c4:	00f607b3          	add	a5,a2,a5
800000c8:	0007a783          	lw	a5,0(a5)
800000cc:	00875713          	srli	a4,a4,0x8
800000d0:	00f74733          	xor	a4,a4,a5
800000d4:	fcb51ee3          	bne	a0,a1,800000b0 <rc_crc32+0x88>
800000d8:	00412403          	lw	s0,4(sp)
800000dc:	00012483          	lw	s1,0(sp)
800000e0:	fff74513          	not	a0,a4
800000e4:	00810113          	addi	sp,sp,8
800000e8:	00008067          	ret
800000ec:	00412403          	lw	s0,4(sp)
800000f0:	00048513          	mv	a0,s1
800000f4:	00012483          	lw	s1,0(sp)
800000f8:	00810113          	addi	sp,sp,8
800000fc:	00008067          	ret

80000100 <main>:
80000100:	ff410113          	addi	sp,sp,-12
80000104:	02b00613          	li	a2,43
80000108:	00000597          	auipc	a1,0x0
8000010c:	06458593          	addi	a1,a1,100 # 8000016c <_etext>
80000110:	00000513          	li	a0,0
80000114:	00112423          	sw	ra,8(sp)
80000118:	f11ff0ef          	jal	80000028 <rc_crc32>
8000011c:	beb067b7          	lui	a5,0xbeb06
80000120:	cc778793          	addi	a5,a5,-825 # beb05cc7 <_end+0x3eafccc7>
80000124:	00f50533          	add	a0,a0,a5
80000128:	00153513          	seqz	a0,a0
8000012c:	ee5ff0ef          	jal	80000010 <check>
80000130:	00812083          	lw	ra,8(sp)
80000134:	00000513          	li	a0,0
80000138:	00c10113          	addi	sp,sp,12
8000013c:	00008067          	ret

80000140 <halt>:
80000140:	00050513          	mv	a0,a0
80000144:	00100073          	ebreak
80000148:	0000006f          	j	80000148 <halt+0x8>

8000014c <_trm_init>:
8000014c:	ff410113          	addi	sp,sp,-12
80000150:	00000517          	auipc	a0,0x0
80000154:	04850513          	addi	a0,a0,72 # 80000198 <mainargs>
80000158:	00112423          	sw	ra,8(sp)
8000015c:	fa5ff0ef          	jal	80000100 <main>
80000160:	00050513          	mv	a0,a0
80000164:	00100073          	ebreak
80000168:	0000006f          	j	80000168 <_trm_init+0x1c>
