
/home/jinghanhui/ysyx-workbench/am-kernels/tests/cpu-tests/build/d_stage_test-riscv32e-npc.elf:     file format elf32-littleriscv


Disassembly of section .text:

80000000 <_start>:
80000000:	00000413          	li	s0,0
80000004:	0000a117          	auipc	sp,0xa
80000008:	ffc10113          	addi	sp,sp,-4 # 8000a000 <_end>
8000000c:	218000ef          	jal	80000224 <_trm_init>

80000010 <main>:
80000010:	fe810113          	addi	sp,sp,-24
80000014:	00112a23          	sw	ra,20(sp)
80000018:	00812823          	sw	s0,16(sp)
8000001c:	00912623          	sw	s1,12(sp)
80000020:	b00027f3          	csrr	a5,mcycle
80000024:	00078493          	mv	s1,a5
80000028:	00f12023          	sw	a5,0(sp)
8000002c:	b8002473          	csrr	s0,mcycleh
80000030:	00001517          	auipc	a0,0x1
80000034:	ed050513          	addi	a0,a0,-304 # 80000f00 <_etext>
80000038:	6ec000ef          	jal	80000724 <printf>
8000003c:	00048593          	mv	a1,s1
80000040:	00001517          	auipc	a0,0x1
80000044:	ed850513          	addi	a0,a0,-296 # 80000f18 <_etext+0x18>
80000048:	6dc000ef          	jal	80000724 <printf>
8000004c:	00040593          	mv	a1,s0
80000050:	00001517          	auipc	a0,0x1
80000054:	ed850513          	addi	a0,a0,-296 # 80000f28 <_etext+0x28>
80000058:	6cc000ef          	jal	80000724 <printf>
8000005c:	00001517          	auipc	a0,0x1
80000060:	edc50513          	addi	a0,a0,-292 # 80000f38 <_etext+0x38>
80000064:	6c0000ef          	jal	80000724 <printf>
80000068:	b00024f3          	csrr	s1,mcycle
8000006c:	b0002473          	csrr	s0,mcycle
80000070:	00001517          	auipc	a0,0x1
80000074:	ee850513          	addi	a0,a0,-280 # 80000f58 <_etext+0x58>
80000078:	00048593          	mv	a1,s1
8000007c:	6a8000ef          	jal	80000724 <printf>
80000080:	00040593          	mv	a1,s0
80000084:	00001517          	auipc	a0,0x1
80000088:	ee850513          	addi	a0,a0,-280 # 80000f6c <_etext+0x6c>
8000008c:	698000ef          	jal	80000724 <printf>
80000090:	409405b3          	sub	a1,s0,s1
80000094:	00001517          	auipc	a0,0x1
80000098:	eec50513          	addi	a0,a0,-276 # 80000f80 <_etext+0x80>
8000009c:	00b12223          	sw	a1,4(sp)
800000a0:	684000ef          	jal	80000724 <printf>
800000a4:	1484fa63          	bgeu	s1,s0,800001f8 <main+0x1e8>
800000a8:	00412583          	lw	a1,4(sp)
800000ac:	00900713          	li	a4,9
800000b0:	fff58793          	addi	a5,a1,-1
800000b4:	12f77a63          	bgeu	a4,a5,800001e8 <main+0x1d8>
800000b8:	00001517          	auipc	a0,0x1
800000bc:	f1c50513          	addi	a0,a0,-228 # 80000fd4 <_etext+0xd4>
800000c0:	664000ef          	jal	80000724 <printf>
800000c4:	00001517          	auipc	a0,0x1
800000c8:	f8450513          	addi	a0,a0,-124 # 80001048 <_etext+0x148>
800000cc:	658000ef          	jal	80000724 <printf>
800000d0:	00000493          	li	s1,0
800000d4:	00001417          	auipc	s0,0x1
800000d8:	f9c40413          	addi	s0,s0,-100 # 80001070 <_etext+0x170>
800000dc:	b0002673          	csrr	a2,mcycle
800000e0:	b00026f3          	csrr	a3,mcycle
800000e4:	00148493          	addi	s1,s1,1
800000e8:	40c68733          	sub	a4,a3,a2
800000ec:	00048593          	mv	a1,s1
800000f0:	00040513          	mv	a0,s0
800000f4:	630000ef          	jal	80000724 <printf>
800000f8:	00500793          	li	a5,5
800000fc:	fef490e3          	bne	s1,a5,800000dc <main+0xcc>
80000100:	00001517          	auipc	a0,0x1
80000104:	f9450513          	addi	a0,a0,-108 # 80001094 <_etext+0x194>
80000108:	61c000ef          	jal	80000724 <printf>
8000010c:	00000793          	li	a5,0
80000110:	00012423          	sw	zero,8(sp)
80000114:	06400693          	li	a3,100
80000118:	00812703          	lw	a4,8(sp)
8000011c:	00f70733          	add	a4,a4,a5
80000120:	00e12423          	sw	a4,8(sp)
80000124:	00178793          	addi	a5,a5,1
80000128:	fed798e3          	bne	a5,a3,80000118 <main+0x108>
8000012c:	b0002473          	csrr	s0,mcycle
80000130:	00001517          	auipc	a0,0x1
80000134:	f8450513          	addi	a0,a0,-124 # 800010b4 <_etext+0x1b4>
80000138:	00040593          	mv	a1,s0
8000013c:	5e8000ef          	jal	80000724 <printf>
80000140:	00012783          	lw	a5,0(sp)
80000144:	00001517          	auipc	a0,0x1
80000148:	f8850513          	addi	a0,a0,-120 # 800010cc <_etext+0x1cc>
8000014c:	40f405b3          	sub	a1,s0,a5
80000150:	5d4000ef          	jal	80000724 <printf>
80000154:	00001517          	auipc	a0,0x1
80000158:	f9850513          	addi	a0,a0,-104 # 800010ec <_etext+0x1ec>
8000015c:	5c8000ef          	jal	80000724 <printf>
80000160:	b00024f3          	csrr	s1,mcycle
80000164:	b0002473          	csrr	s0,mcycle
80000168:	b00027f3          	csrr	a5,mcycle
8000016c:	00001517          	auipc	a0,0x1
80000170:	fa850513          	addi	a0,a0,-88 # 80001114 <_etext+0x214>
80000174:	00f12023          	sw	a5,0(sp)
80000178:	5ac000ef          	jal	80000724 <printf>
8000017c:	00048593          	mv	a1,s1
80000180:	00001517          	auipc	a0,0x1
80000184:	fb050513          	addi	a0,a0,-80 # 80001130 <_etext+0x230>
80000188:	59c000ef          	jal	80000724 <printf>
8000018c:	40940633          	sub	a2,s0,s1
80000190:	00040593          	mv	a1,s0
80000194:	00001517          	auipc	a0,0x1
80000198:	fa450513          	addi	a0,a0,-92 # 80001138 <_etext+0x238>
8000019c:	588000ef          	jal	80000724 <printf>
800001a0:	00012783          	lw	a5,0(sp)
800001a4:	00001517          	auipc	a0,0x1
800001a8:	f9450513          	addi	a0,a0,-108 # 80001138 <_etext+0x238>
800001ac:	40878633          	sub	a2,a5,s0
800001b0:	00078593          	mv	a1,a5
800001b4:	570000ef          	jal	80000724 <printf>
800001b8:	0084f663          	bgeu	s1,s0,800001c4 <main+0x1b4>
800001bc:	00012783          	lw	a5,0(sp)
800001c0:	04f46463          	bltu	s0,a5,80000208 <main+0x1f8>
800001c4:	00001517          	auipc	a0,0x1
800001c8:	fb450513          	addi	a0,a0,-76 # 80001178 <_etext+0x278>
800001cc:	558000ef          	jal	80000724 <printf>
800001d0:	01412083          	lw	ra,20(sp)
800001d4:	01012403          	lw	s0,16(sp)
800001d8:	00c12483          	lw	s1,12(sp)
800001dc:	00000513          	li	a0,0
800001e0:	01810113          	addi	sp,sp,24
800001e4:	00008067          	ret
800001e8:	00001517          	auipc	a0,0x1
800001ec:	db050513          	addi	a0,a0,-592 # 80000f98 <_etext+0x98>
800001f0:	534000ef          	jal	80000724 <printf>
800001f4:	ed1ff06f          	j	800000c4 <main+0xb4>
800001f8:	00001517          	auipc	a0,0x1
800001fc:	e1c50513          	addi	a0,a0,-484 # 80001014 <_etext+0x114>
80000200:	524000ef          	jal	80000724 <printf>
80000204:	ec1ff06f          	j	800000c4 <main+0xb4>
80000208:	00001517          	auipc	a0,0x1
8000020c:	f4450513          	addi	a0,a0,-188 # 8000114c <_etext+0x24c>
80000210:	514000ef          	jal	80000724 <printf>
80000214:	fbdff06f          	j	800001d0 <main+0x1c0>

80000218 <putch>:
80000218:	a00007b7          	lui	a5,0xa0000
8000021c:	3ea78c23          	sb	a0,1016(a5) # a00003f8 <_end+0x1fff63f8>
80000220:	00008067          	ret

80000224 <_trm_init>:
80000224:	ff410113          	addi	sp,sp,-12
80000228:	00001517          	auipc	a0,0x1
8000022c:	f8450513          	addi	a0,a0,-124 # 800011ac <mainargs>
80000230:	00112423          	sw	ra,8(sp)
80000234:	dddff0ef          	jal	80000010 <main>
80000238:	00050513          	mv	a0,a0
8000023c:	00100073          	ebreak
80000240:	0000006f          	j	80000240 <_trm_init+0x1c>

80000244 <vsprintf>:
80000244:	f8010113          	addi	sp,sp,-128
80000248:	06112e23          	sw	ra,124(sp)
8000024c:	0005c683          	lbu	a3,0(a1)
80000250:	00c12223          	sw	a2,4(sp)
80000254:	28068c63          	beqz	a3,800004ec <vsprintf+0x2a8>
80000258:	06912a23          	sw	s1,116(sp)
8000025c:	00058293          	mv	t0,a1
80000260:	06812c23          	sw	s0,120(sp)
80000264:	00068593          	mv	a1,a3
80000268:	00000713          	li	a4,0
8000026c:	00000613          	li	a2,0
80000270:	00050493          	mv	s1,a0
80000274:	00050693          	mv	a3,a0
80000278:	0200006f          	j	80000298 <vsprintf+0x54>
8000027c:	00012703          	lw	a4,0(sp)
80000280:	00b48023          	sb	a1,0(s1)
80000284:	00160613          	addi	a2,a2,1
80000288:	00e287b3          	add	a5,t0,a4
8000028c:	0007c583          	lbu	a1,0(a5)
80000290:	00c684b3          	add	s1,a3,a2
80000294:	0e058c63          	beqz	a1,8000038c <vsprintf+0x148>
80000298:	00170793          	addi	a5,a4,1
8000029c:	00f12023          	sw	a5,0(sp)
800002a0:	02500793          	li	a5,37
800002a4:	00060393          	mv	t2,a2
800002a8:	fcf59ae3          	bne	a1,a5,8000027c <vsprintf+0x38>
800002ac:	00170793          	addi	a5,a4,1
800002b0:	00f28533          	add	a0,t0,a5
800002b4:	00054303          	lbu	t1,0(a0)
800002b8:	00012623          	sw	zero,12(sp)
800002bc:	03000793          	li	a5,48
800002c0:	00f31e63          	bne	t1,a5,800002dc <vsprintf+0x98>
800002c4:	00270793          	addi	a5,a4,2
800002c8:	00f28533          	add	a0,t0,a5
800002cc:	00054303          	lbu	t1,0(a0)
800002d0:	00f12023          	sw	a5,0(sp)
800002d4:	00100793          	li	a5,1
800002d8:	00f12623          	sw	a5,12(sp)
800002dc:	fd030593          	addi	a1,t1,-48
800002e0:	0ff5f713          	zext.b	a4,a1
800002e4:	00900793          	li	a5,9
800002e8:	00000413          	li	s0,0
800002ec:	04e7e463          	bltu	a5,a4,80000334 <vsprintf+0xf0>
800002f0:	00012783          	lw	a5,0(sp)
800002f4:	00040713          	mv	a4,s0
800002f8:	00d12423          	sw	a3,8(sp)
800002fc:	00178793          	addi	a5,a5,1
80000300:	00f28533          	add	a0,t0,a5
80000304:	00271413          	slli	s0,a4,0x2
80000308:	00054303          	lbu	t1,0(a0)
8000030c:	00e40433          	add	s0,s0,a4
80000310:	00141413          	slli	s0,s0,0x1
80000314:	00858733          	add	a4,a1,s0
80000318:	fd030593          	addi	a1,t1,-48
8000031c:	0ff5f413          	zext.b	s0,a1
80000320:	00900693          	li	a3,9
80000324:	fc86fce3          	bgeu	a3,s0,800002fc <vsprintf+0xb8>
80000328:	00812683          	lw	a3,8(sp)
8000032c:	00070413          	mv	s0,a4
80000330:	00f12023          	sw	a5,0(sp)
80000334:	06c00793          	li	a5,108
80000338:	0cf30e63          	beq	t1,a5,80000414 <vsprintf+0x1d0>
8000033c:	00054703          	lbu	a4,0(a0)
80000340:	07300593          	li	a1,115
80000344:	0eb70663          	beq	a4,a1,80000430 <vsprintf+0x1ec>
80000348:	07500593          	li	a1,117
8000034c:	12b70063          	beq	a4,a1,8000046c <vsprintf+0x228>
80000350:	06400593          	li	a1,100
80000354:	04b70c63          	beq	a4,a1,800003ac <vsprintf+0x168>
80000358:	02500713          	li	a4,37
8000035c:	00e48023          	sb	a4,0(s1)
80000360:	00054583          	lbu	a1,0(a0)
80000364:	00160713          	addi	a4,a2,1
80000368:	00e68733          	add	a4,a3,a4
8000036c:	00260613          	addi	a2,a2,2
80000370:	00b70023          	sb	a1,0(a4)
80000374:	00c684b3          	add	s1,a3,a2
80000378:	00012783          	lw	a5,0(sp)
8000037c:	00178713          	addi	a4,a5,1
80000380:	00e287b3          	add	a5,t0,a4
80000384:	0007c583          	lbu	a1,0(a5)
80000388:	f00598e3          	bnez	a1,80000298 <vsprintf+0x54>
8000038c:	00048793          	mv	a5,s1
80000390:	07812403          	lw	s0,120(sp)
80000394:	07412483          	lw	s1,116(sp)
80000398:	00078023          	sb	zero,0(a5)
8000039c:	07c12083          	lw	ra,124(sp)
800003a0:	00060513          	mv	a0,a2
800003a4:	08010113          	addi	sp,sp,128
800003a8:	00008067          	ret
800003ac:	00412783          	lw	a5,4(sp)
800003b0:	0007a703          	lw	a4,0(a5)
800003b4:	00478793          	addi	a5,a5,4
800003b8:	00f12223          	sw	a5,4(sp)
800003bc:	00070513          	mv	a0,a4
800003c0:	41f75713          	srai	a4,a4,0x1f
800003c4:	00e565b3          	or	a1,a0,a4
800003c8:	1e059e63          	bnez	a1,800005c4 <vsprintf+0x380>
800003cc:	03000713          	li	a4,48
800003d0:	02e10a23          	sb	a4,52(sp)
800003d4:	fff40413          	addi	s0,s0,-1
800003d8:	00805863          	blez	s0,800003e8 <vsprintf+0x1a4>
800003dc:	00c12783          	lw	a5,12(sp)
800003e0:	03410393          	addi	t2,sp,52
800003e4:	32079a63          	bnez	a5,80000718 <vsprintf+0x4d4>
800003e8:	00100713          	li	a4,1
800003ec:	03410393          	addi	t2,sp,52
800003f0:	00e385b3          	add	a1,t2,a4
800003f4:	fff5c783          	lbu	a5,-1(a1)
800003f8:	fff58593          	addi	a1,a1,-1
800003fc:	00148493          	addi	s1,s1,1
80000400:	fef48fa3          	sb	a5,-1(s1)
80000404:	feb398e3          	bne	t2,a1,800003f4 <vsprintf+0x1b0>
80000408:	00c70633          	add	a2,a4,a2
8000040c:	00c684b3          	add	s1,a3,a2
80000410:	f69ff06f          	j	80000378 <vsprintf+0x134>
80000414:	00012783          	lw	a5,0(sp)
80000418:	07300593          	li	a1,115
8000041c:	00178793          	addi	a5,a5,1
80000420:	00f12023          	sw	a5,0(sp)
80000424:	00f28533          	add	a0,t0,a5
80000428:	00054703          	lbu	a4,0(a0)
8000042c:	f0b71ee3          	bne	a4,a1,80000348 <vsprintf+0x104>
80000430:	00412783          	lw	a5,4(sp)
80000434:	0007a503          	lw	a0,0(a5)
80000438:	00478313          	addi	t1,a5,4
8000043c:	02050463          	beqz	a0,80000464 <vsprintf+0x220>
80000440:	00054583          	lbu	a1,0(a0)
80000444:	02058063          	beqz	a1,80000464 <vsprintf+0x220>
80000448:	00160613          	addi	a2,a2,1
8000044c:	00c684b3          	add	s1,a3,a2
80000450:	407607b3          	sub	a5,a2,t2
80000454:	feb48fa3          	sb	a1,-1(s1)
80000458:	00f507b3          	add	a5,a0,a5
8000045c:	0007c583          	lbu	a1,0(a5)
80000460:	fe0594e3          	bnez	a1,80000448 <vsprintf+0x204>
80000464:	00612223          	sw	t1,4(sp)
80000468:	f11ff06f          	j	80000378 <vsprintf+0x134>
8000046c:	00412583          	lw	a1,4(sp)
80000470:	00000793          	li	a5,0
80000474:	0005a703          	lw	a4,0(a1)
80000478:	00458593          	addi	a1,a1,4
8000047c:	00b12223          	sw	a1,4(sp)
80000480:	08071463          	bnez	a4,80000508 <vsprintf+0x2c4>
80000484:	03000713          	li	a4,48
80000488:	02e10a23          	sb	a4,52(sp)
8000048c:	fff40413          	addi	s0,s0,-1
80000490:	00100313          	li	t1,1
80000494:	03410393          	addi	t2,sp,52
80000498:	02805863          	blez	s0,800004c8 <vsprintf+0x284>
8000049c:	00c12783          	lw	a5,12(sp)
800004a0:	02078463          	beqz	a5,800004c8 <vsprintf+0x284>
800004a4:	fff40713          	addi	a4,s0,-1
800004a8:	03000593          	li	a1,48
800004ac:	00848433          	add	s0,s1,s0
800004b0:	00b48023          	sb	a1,0(s1)
800004b4:	00148493          	addi	s1,s1,1
800004b8:	fe941ce3          	bne	s0,s1,800004b0 <vsprintf+0x26c>
800004bc:	00160613          	addi	a2,a2,1
800004c0:	00c70633          	add	a2,a4,a2
800004c4:	00c684b3          	add	s1,a3,a2
800004c8:	00638733          	add	a4,t2,t1
800004cc:	fff74783          	lbu	a5,-1(a4)
800004d0:	fff70713          	addi	a4,a4,-1
800004d4:	00148493          	addi	s1,s1,1
800004d8:	fef48fa3          	sb	a5,-1(s1)
800004dc:	fee398e3          	bne	t2,a4,800004cc <vsprintf+0x288>
800004e0:	00c30633          	add	a2,t1,a2
800004e4:	00c684b3          	add	s1,a3,a2
800004e8:	e91ff06f          	j	80000378 <vsprintf+0x134>
800004ec:	00050793          	mv	a5,a0
800004f0:	00078023          	sb	zero,0(a5)
800004f4:	07c12083          	lw	ra,124(sp)
800004f8:	00000613          	li	a2,0
800004fc:	00060513          	mv	a0,a2
80000500:	08010113          	addi	sp,sp,128
80000504:	00008067          	ret
80000508:	00000313          	li	t1,0
8000050c:	00812c23          	sw	s0,24(sp)
80000510:	02912423          	sw	s1,40(sp)
80000514:	03410393          	addi	t2,sp,52
80000518:	00030413          	mv	s0,t1
8000051c:	00c12e23          	sw	a2,28(sp)
80000520:	02d12023          	sw	a3,32(sp)
80000524:	02512223          	sw	t0,36(sp)
80000528:	00070493          	mv	s1,a4
8000052c:	00140413          	addi	s0,s0,1
80000530:	008382b3          	add	t0,t2,s0
80000534:	00a00613          	li	a2,10
80000538:	00000693          	li	a3,0
8000053c:	00048513          	mv	a0,s1
80000540:	00078593          	mv	a1,a5
80000544:	00712823          	sw	t2,16(sp)
80000548:	00f12a23          	sw	a5,20(sp)
8000054c:	00512423          	sw	t0,8(sp)
80000550:	7c0000ef          	jal	80000d10 <__umoddi3>
80000554:	01412783          	lw	a5,20(sp)
80000558:	00812283          	lw	t0,8(sp)
8000055c:	03050093          	addi	ra,a0,48
80000560:	00078593          	mv	a1,a5
80000564:	00048513          	mv	a0,s1
80000568:	fe128fa3          	sb	ra,-1(t0)
8000056c:	00a00613          	li	a2,10
80000570:	00000693          	li	a3,0
80000574:	00912a23          	sw	s1,20(sp)
80000578:	00f12423          	sw	a5,8(sp)
8000057c:	78c000ef          	jal	80000d08 <__udivdi3>
80000580:	00812283          	lw	t0,8(sp)
80000584:	01012383          	lw	t2,16(sp)
80000588:	00058793          	mv	a5,a1
8000058c:	00050493          	mv	s1,a0
80000590:	f8029ee3          	bnez	t0,8000052c <vsprintf+0x2e8>
80000594:	01412703          	lw	a4,20(sp)
80000598:	00900693          	li	a3,9
8000059c:	f8e6e8e3          	bltu	a3,a4,8000052c <vsprintf+0x2e8>
800005a0:	00040313          	mv	t1,s0
800005a4:	01812403          	lw	s0,24(sp)
800005a8:	01c12603          	lw	a2,28(sp)
800005ac:	02012683          	lw	a3,32(sp)
800005b0:	40640433          	sub	s0,s0,t1
800005b4:	02412283          	lw	t0,36(sp)
800005b8:	02812483          	lw	s1,40(sp)
800005bc:	ee8040e3          	bgtz	s0,8000049c <vsprintf+0x258>
800005c0:	f09ff06f          	j	800004c8 <vsprintf+0x284>
800005c4:	00000793          	li	a5,0
800005c8:	00075e63          	bgez	a4,800005e4 <vsprintf+0x3a0>
800005cc:	00a035b3          	snez	a1,a0
800005d0:	40a007b3          	neg	a5,a0
800005d4:	40e00733          	neg	a4,a4
800005d8:	00078513          	mv	a0,a5
800005dc:	40b70733          	sub	a4,a4,a1
800005e0:	00100793          	li	a5,1
800005e4:	00000313          	li	t1,0
800005e8:	03410393          	addi	t2,sp,52
800005ec:	00812e23          	sw	s0,28(sp)
800005f0:	02912823          	sw	s1,48(sp)
800005f4:	02f12023          	sw	a5,32(sp)
800005f8:	02c12223          	sw	a2,36(sp)
800005fc:	02d12423          	sw	a3,40(sp)
80000600:	02512623          	sw	t0,44(sp)
80000604:	00050413          	mv	s0,a0
80000608:	00030493          	mv	s1,t1
8000060c:	00712a23          	sw	t2,20(sp)
80000610:	01412783          	lw	a5,20(sp)
80000614:	00912c23          	sw	s1,24(sp)
80000618:	00148493          	addi	s1,s1,1
8000061c:	009783b3          	add	t2,a5,s1
80000620:	00a00613          	li	a2,10
80000624:	00000693          	li	a3,0
80000628:	00040513          	mv	a0,s0
8000062c:	00070593          	mv	a1,a4
80000630:	00e12823          	sw	a4,16(sp)
80000634:	00712423          	sw	t2,8(sp)
80000638:	644000ef          	jal	80000c7c <__moddi3>
8000063c:	01012703          	lw	a4,16(sp)
80000640:	00812383          	lw	t2,8(sp)
80000644:	03050293          	addi	t0,a0,48
80000648:	00000693          	li	a3,0
8000064c:	00040513          	mv	a0,s0
80000650:	00070593          	mv	a1,a4
80000654:	00a00613          	li	a2,10
80000658:	fe538fa3          	sb	t0,-1(t2)
8000065c:	5a8000ef          	jal	80000c04 <__divdi3>
80000660:	00a5e6b3          	or	a3,a1,a0
80000664:	00058713          	mv	a4,a1
80000668:	00050413          	mv	s0,a0
8000066c:	fa0692e3          	bnez	a3,80000610 <vsprintf+0x3cc>
80000670:	02012783          	lw	a5,32(sp)
80000674:	00048313          	mv	t1,s1
80000678:	01c12403          	lw	s0,28(sp)
8000067c:	02412603          	lw	a2,36(sp)
80000680:	02812683          	lw	a3,40(sp)
80000684:	02c12283          	lw	t0,44(sp)
80000688:	03012483          	lw	s1,48(sp)
8000068c:	01412383          	lw	t2,20(sp)
80000690:	06078663          	beqz	a5,800006fc <vsprintf+0x4b8>
80000694:	01812783          	lw	a5,24(sp)
80000698:	03410593          	addi	a1,sp,52
8000069c:	02d00513          	li	a0,45
800006a0:	00278713          	addi	a4,a5,2
800006a4:	04030793          	addi	a5,t1,64
800006a8:	00b785b3          	add	a1,a5,a1
800006ac:	fca58023          	sb	a0,-64(a1)
800006b0:	40e40433          	sub	s0,s0,a4
800006b4:	d2805ee3          	blez	s0,800003f0 <vsprintf+0x1ac>
800006b8:	00c12783          	lw	a5,12(sp)
800006bc:	d2078ae3          	beqz	a5,800003f0 <vsprintf+0x1ac>
800006c0:	00160613          	addi	a2,a2,1
800006c4:	00a48023          	sb	a0,0(s1)
800006c8:	00030713          	mv	a4,t1
800006cc:	00c684b3          	add	s1,a3,a2
800006d0:	00168593          	addi	a1,a3,1
800006d4:	00c585b3          	add	a1,a1,a2
800006d8:	008585b3          	add	a1,a1,s0
800006dc:	03000513          	li	a0,48
800006e0:	00a48023          	sb	a0,0(s1)
800006e4:	00148493          	addi	s1,s1,1
800006e8:	fe959ce3          	bne	a1,s1,800006e0 <vsprintf+0x49c>
800006ec:	00160613          	addi	a2,a2,1
800006f0:	00860633          	add	a2,a2,s0
800006f4:	00c684b3          	add	s1,a3,a2
800006f8:	cf9ff06f          	j	800003f0 <vsprintf+0x1ac>
800006fc:	40640433          	sub	s0,s0,t1
80000700:	00805663          	blez	s0,8000070c <vsprintf+0x4c8>
80000704:	00c12783          	lw	a5,12(sp)
80000708:	00079663          	bnez	a5,80000714 <vsprintf+0x4d0>
8000070c:	00030713          	mv	a4,t1
80000710:	ce1ff06f          	j	800003f0 <vsprintf+0x1ac>
80000714:	00612623          	sw	t1,12(sp)
80000718:	00c12703          	lw	a4,12(sp)
8000071c:	fff40413          	addi	s0,s0,-1
80000720:	fb1ff06f          	j	800006d0 <vsprintf+0x48c>

80000724 <printf>:
80000724:	fd810113          	addi	sp,sp,-40
80000728:	fffff2b7          	lui	t0,0xfffff
8000072c:	00112823          	sw	ra,16(sp)
80000730:	00912423          	sw	s1,8(sp)
80000734:	00812623          	sw	s0,12(sp)
80000738:	00510133          	add	sp,sp,t0
8000073c:	000012b7          	lui	t0,0x1
80000740:	fffff337          	lui	t1,0xfffff
80000744:	00428393          	addi	t2,t0,4 # 1004 <_entry_offset+0x1004>
80000748:	006383b3          	add	t2,t2,t1
8000074c:	00410313          	addi	t1,sp,4
80000750:	00410093          	addi	ra,sp,4
80000754:	00638333          	add	t1,t2,t1
80000758:	01028393          	addi	t2,t0,16
8000075c:	00612023          	sw	t1,0(sp)
80000760:	001383b3          	add	t2,t2,ra
80000764:	00b3a023          	sw	a1,0(t2)
80000768:	01428593          	addi	a1,t0,20
8000076c:	001585b3          	add	a1,a1,ra
80000770:	01828393          	addi	t2,t0,24
80000774:	00c5a023          	sw	a2,0(a1)
80000778:	001383b3          	add	t2,t2,ra
8000077c:	01428313          	addi	t1,t0,20
80000780:	00050593          	mv	a1,a0
80000784:	00012503          	lw	a0,0(sp)
80000788:	00d3a023          	sw	a3,0(t2)
8000078c:	00028693          	mv	a3,t0
80000790:	01c28293          	addi	t0,t0,28
80000794:	001282b3          	add	t0,t0,ra
80000798:	00e2a023          	sw	a4,0(t0)
8000079c:	02068713          	addi	a4,a3,32
800007a0:	00170733          	add	a4,a4,ra
800007a4:	00f72023          	sw	a5,0(a4)
800007a8:	00012783          	lw	a5,0(sp)
800007ac:	00230333          	add	t1,t1,sp
800007b0:	00030613          	mv	a2,t1
800007b4:	fe67ae23          	sw	t1,-4(a5)
800007b8:	a8dff0ef          	jal	80000244 <vsprintf>
800007bc:	00012783          	lw	a5,0(sp)
800007c0:	00050493          	mv	s1,a0
800007c4:	0007c503          	lbu	a0,0(a5)
800007c8:	00050c63          	beqz	a0,800007e0 <printf+0xbc>
800007cc:	00178413          	addi	s0,a5,1
800007d0:	a49ff0ef          	jal	80000218 <putch>
800007d4:	00044503          	lbu	a0,0(s0)
800007d8:	00140413          	addi	s0,s0,1
800007dc:	fe051ae3          	bnez	a0,800007d0 <printf+0xac>
800007e0:	000012b7          	lui	t0,0x1
800007e4:	00510133          	add	sp,sp,t0
800007e8:	01012083          	lw	ra,16(sp)
800007ec:	00048513          	mv	a0,s1
800007f0:	00c12403          	lw	s0,12(sp)
800007f4:	00812483          	lw	s1,8(sp)
800007f8:	02810113          	addi	sp,sp,40
800007fc:	00008067          	ret

80000800 <__udivmoddi4>:
80000800:	fdc10113          	addi	sp,sp,-36
80000804:	00812e23          	sw	s0,28(sp)
80000808:	02112023          	sw	ra,32(sp)
8000080c:	00060413          	mv	s0,a2
80000810:	00050293          	mv	t0,a0
80000814:	00070613          	mv	a2,a4
80000818:	04059663          	bnez	a1,80000864 <__udivmoddi4+0x64>
8000081c:	20069e63          	bnez	a3,80000a38 <__udivmoddi4+0x238>
80000820:	00e12023          	sw	a4,0(sp)
80000824:	02070063          	beqz	a4,80000844 <__udivmoddi4+0x44>
80000828:	00040593          	mv	a1,s0
8000082c:	00a12223          	sw	a0,4(sp)
80000830:	66c000ef          	jal	80000e9c <__umodsi3>
80000834:	00012603          	lw	a2,0(sp)
80000838:	00412283          	lw	t0,4(sp)
8000083c:	00a62023          	sw	a0,0(a2)
80000840:	00062223          	sw	zero,4(a2)
80000844:	00040593          	mv	a1,s0
80000848:	00028513          	mv	a0,t0
8000084c:	608000ef          	jal	80000e54 <__hidden___udivsi3>
80000850:	00000593          	li	a1,0
80000854:	02012083          	lw	ra,32(sp)
80000858:	01c12403          	lw	s0,28(sp)
8000085c:	02410113          	addi	sp,sp,36
80000860:	00008067          	ret
80000864:	00912c23          	sw	s1,24(sp)
80000868:	00058313          	mv	t1,a1
8000086c:	00040493          	mv	s1,s0
80000870:	08041a63          	bnez	s0,80000904 <__udivmoddi4+0x104>
80000874:	22068e63          	beqz	a3,80000ab0 <__udivmoddi4+0x2b0>
80000878:	2c050663          	beqz	a0,80000b44 <__udivmoddi4+0x344>
8000087c:	fff68793          	addi	a5,a3,-1
80000880:	00d7f5b3          	and	a1,a5,a3
80000884:	32058063          	beqz	a1,80000ba4 <__udivmoddi4+0x3a4>
80000888:	00a12823          	sw	a0,16(sp)
8000088c:	00068513          	mv	a0,a3
80000890:	00612a23          	sw	t1,20(sp)
80000894:	00c12623          	sw	a2,12(sp)
80000898:	00612023          	sw	t1,0(sp)
8000089c:	00d12423          	sw	a3,8(sp)
800008a0:	4a4000ef          	jal	80000d44 <__clzsi2>
800008a4:	00012703          	lw	a4,0(sp)
800008a8:	00050793          	mv	a5,a0
800008ac:	00f12023          	sw	a5,0(sp)
800008b0:	00070513          	mv	a0,a4
800008b4:	00e12223          	sw	a4,4(sp)
800008b8:	48c000ef          	jal	80000d44 <__clzsi2>
800008bc:	00012783          	lw	a5,0(sp)
800008c0:	00412703          	lw	a4,4(sp)
800008c4:	00812683          	lw	a3,8(sp)
800008c8:	40a78533          	sub	a0,a5,a0
800008cc:	01e00793          	li	a5,30
800008d0:	00c12603          	lw	a2,12(sp)
800008d4:	01012283          	lw	t0,16(sp)
800008d8:	01412303          	lw	t1,20(sp)
800008dc:	1ca7ec63          	bltu	a5,a0,80000ab4 <__udivmoddi4+0x2b4>
800008e0:	00150393          	addi	t2,a0,1
800008e4:	02000513          	li	a0,32
800008e8:	40750533          	sub	a0,a0,t2
800008ec:	00a71333          	sll	t1,a4,a0
800008f0:	0072d5b3          	srl	a1,t0,t2
800008f4:	007757b3          	srl	a5,a4,t2
800008f8:	00a29533          	sll	a0,t0,a0
800008fc:	00b36733          	or	a4,t1,a1
80000900:	0800006f          	j	80000980 <__udivmoddi4+0x180>
80000904:	14068663          	beqz	a3,80000a50 <__udivmoddi4+0x250>
80000908:	00a12423          	sw	a0,8(sp)
8000090c:	00068513          	mv	a0,a3
80000910:	00c12223          	sw	a2,4(sp)
80000914:	00b12623          	sw	a1,12(sp)
80000918:	00b12023          	sw	a1,0(sp)
8000091c:	00d12823          	sw	a3,16(sp)
80000920:	424000ef          	jal	80000d44 <__clzsi2>
80000924:	00012703          	lw	a4,0(sp)
80000928:	00050493          	mv	s1,a0
8000092c:	00070513          	mv	a0,a4
80000930:	414000ef          	jal	80000d44 <__clzsi2>
80000934:	40a48533          	sub	a0,s1,a0
80000938:	01f00793          	li	a5,31
8000093c:	00412603          	lw	a2,4(sp)
80000940:	00812283          	lw	t0,8(sp)
80000944:	00c12303          	lw	t1,12(sp)
80000948:	16a7e663          	bltu	a5,a0,80000ab4 <__udivmoddi4+0x2b4>
8000094c:	00150393          	addi	t2,a0,1
80000950:	02000793          	li	a5,32
80000954:	00012703          	lw	a4,0(sp)
80000958:	01012683          	lw	a3,16(sp)
8000095c:	00028513          	mv	a0,t0
80000960:	26f38a63          	beq	t2,a5,80000bd4 <__udivmoddi4+0x3d4>
80000964:	407785b3          	sub	a1,a5,t2
80000968:	0072d333          	srl	t1,t0,t2
8000096c:	00b712b3          	sll	t0,a4,a1
80000970:	007757b3          	srl	a5,a4,t2
80000974:	00b51533          	sll	a0,a0,a1
80000978:	0062e733          	or	a4,t0,t1
8000097c:	00000493          	li	s1,0
80000980:	00c12223          	sw	a2,4(sp)
80000984:	00068613          	mv	a2,a3
80000988:	00012023          	sw	zero,0(sp)
8000098c:	00078693          	mv	a3,a5
80000990:	00060793          	mv	a5,a2
80000994:	01f55593          	srli	a1,a0,0x1f
80000998:	00171613          	slli	a2,a4,0x1
8000099c:	00b66633          	or	a2,a2,a1
800009a0:	01f75713          	srli	a4,a4,0x1f
800009a4:	00169693          	slli	a3,a3,0x1
800009a8:	00e6e6b3          	or	a3,a3,a4
800009ac:	40c40733          	sub	a4,s0,a2
800009b0:	40d78333          	sub	t1,a5,a3
800009b4:	00e435b3          	sltu	a1,s0,a4
800009b8:	40b305b3          	sub	a1,t1,a1
800009bc:	00173713          	seqz	a4,a4
800009c0:	40e585b3          	sub	a1,a1,a4
800009c4:	41f5d313          	srai	t1,a1,0x1f
800009c8:	00837733          	and	a4,t1,s0
800009cc:	00f37333          	and	t1,t1,a5
800009d0:	406686b3          	sub	a3,a3,t1
800009d4:	00012303          	lw	t1,0(sp)
800009d8:	40e60733          	sub	a4,a2,a4
800009dc:	01f5d593          	srli	a1,a1,0x1f
800009e0:	01f4d293          	srli	t0,s1,0x1f
800009e4:	00151513          	slli	a0,a0,0x1
800009e8:	00149493          	slli	s1,s1,0x1
800009ec:	00e63633          	sltu	a2,a2,a4
800009f0:	fff38393          	addi	t2,t2,-1
800009f4:	00b12023          	sw	a1,0(sp)
800009f8:	0064e4b3          	or	s1,s1,t1
800009fc:	00556533          	or	a0,a0,t0
80000a00:	40c686b3          	sub	a3,a3,a2
80000a04:	f80398e3          	bnez	t2,80000994 <__udivmoddi4+0x194>
80000a08:	00412603          	lw	a2,4(sp)
80000a0c:	00060663          	beqz	a2,80000a18 <__udivmoddi4+0x218>
80000a10:	00e62023          	sw	a4,0(a2)
80000a14:	00d62223          	sw	a3,4(a2)
80000a18:	00012703          	lw	a4,0(sp)
80000a1c:	01f4d313          	srli	t1,s1,0x1f
80000a20:	00151793          	slli	a5,a0,0x1
80000a24:	00149513          	slli	a0,s1,0x1
80000a28:	00e56533          	or	a0,a0,a4
80000a2c:	01812483          	lw	s1,24(sp)
80000a30:	00f365b3          	or	a1,t1,a5
80000a34:	e21ff06f          	j	80000854 <__udivmoddi4+0x54>
80000a38:	00070663          	beqz	a4,80000a44 <__udivmoddi4+0x244>
80000a3c:	00a62023          	sw	a0,0(a2)
80000a40:	00072223          	sw	zero,4(a4)
80000a44:	00000513          	li	a0,0
80000a48:	00000593          	li	a1,0
80000a4c:	e09ff06f          	j	80000854 <__udivmoddi4+0x54>
80000a50:	fff40593          	addi	a1,s0,-1
80000a54:	0085f533          	and	a0,a1,s0
80000a58:	06051863          	bnez	a0,80000ac8 <__udivmoddi4+0x2c8>
80000a5c:	00060863          	beqz	a2,80000a6c <__udivmoddi4+0x26c>
80000a60:	0055f5b3          	and	a1,a1,t0
80000a64:	00b62023          	sw	a1,0(a2)
80000a68:	00062223          	sw	zero,4(a2)
80000a6c:	00100793          	li	a5,1
80000a70:	10f40e63          	beq	s0,a5,80000b8c <__udivmoddi4+0x38c>
80000a74:	00040513          	mv	a0,s0
80000a78:	00612223          	sw	t1,4(sp)
80000a7c:	00512023          	sw	t0,0(sp)
80000a80:	354000ef          	jal	80000dd4 <__ctzsi2>
80000a84:	00412303          	lw	t1,4(sp)
80000a88:	00012283          	lw	t0,0(sp)
80000a8c:	02000713          	li	a4,32
80000a90:	40a70733          	sub	a4,a4,a0
80000a94:	00050793          	mv	a5,a0
80000a98:	00e31733          	sll	a4,t1,a4
80000a9c:	00a2d2b3          	srl	t0,t0,a0
80000aa0:	01812483          	lw	s1,24(sp)
80000aa4:	00576533          	or	a0,a4,t0
80000aa8:	00f355b3          	srl	a1,t1,a5
80000aac:	da9ff06f          	j	80000854 <__udivmoddi4+0x54>
80000ab0:	00100073          	ebreak
80000ab4:	0e060463          	beqz	a2,80000b9c <__udivmoddi4+0x39c>
80000ab8:	01812483          	lw	s1,24(sp)
80000abc:	00562023          	sw	t0,0(a2)
80000ac0:	00662223          	sw	t1,4(a2)
80000ac4:	f81ff06f          	j	80000a44 <__udivmoddi4+0x244>
80000ac8:	00040513          	mv	a0,s0
80000acc:	00d12823          	sw	a3,16(sp)
80000ad0:	00512623          	sw	t0,12(sp)
80000ad4:	00c12423          	sw	a2,8(sp)
80000ad8:	00612023          	sw	t1,0(sp)
80000adc:	00d12223          	sw	a3,4(sp)
80000ae0:	264000ef          	jal	80000d44 <__clzsi2>
80000ae4:	00012703          	lw	a4,0(sp)
80000ae8:	00050493          	mv	s1,a0
80000aec:	00070513          	mv	a0,a4
80000af0:	254000ef          	jal	80000d44 <__clzsi2>
80000af4:	00c12283          	lw	t0,12(sp)
80000af8:	40a485b3          	sub	a1,s1,a0
80000afc:	02158393          	addi	t2,a1,33
80000b00:	02000313          	li	t1,32
80000b04:	00012703          	lw	a4,0(sp)
80000b08:	00412783          	lw	a5,4(sp)
80000b0c:	00812603          	lw	a2,8(sp)
80000b10:	01012683          	lw	a3,16(sp)
80000b14:	00028513          	mv	a0,t0
80000b18:	00000493          	li	s1,0
80000b1c:	e66382e3          	beq	t2,t1,80000980 <__udivmoddi4+0x180>
80000b20:	01f00293          	li	t0,31
80000b24:	0a72ee63          	bltu	t0,t2,80000be0 <__udivmoddi4+0x3e0>
80000b28:	40730333          	sub	t1,t1,t2
80000b2c:	007555b3          	srl	a1,a0,t2
80000b30:	007757b3          	srl	a5,a4,t2
80000b34:	00671733          	sll	a4,a4,t1
80000b38:	00b76733          	or	a4,a4,a1
80000b3c:	00651533          	sll	a0,a0,t1
80000b40:	e41ff06f          	j	80000980 <__udivmoddi4+0x180>
80000b44:	00c12023          	sw	a2,0(sp)
80000b48:	02060663          	beqz	a2,80000b74 <__udivmoddi4+0x374>
80000b4c:	00068593          	mv	a1,a3
80000b50:	00030513          	mv	a0,t1
80000b54:	00d12423          	sw	a3,8(sp)
80000b58:	00612223          	sw	t1,4(sp)
80000b5c:	340000ef          	jal	80000e9c <__umodsi3>
80000b60:	00012603          	lw	a2,0(sp)
80000b64:	00812683          	lw	a3,8(sp)
80000b68:	00412303          	lw	t1,4(sp)
80000b6c:	00062023          	sw	zero,0(a2)
80000b70:	00a62223          	sw	a0,4(a2)
80000b74:	00068593          	mv	a1,a3
80000b78:	00030513          	mv	a0,t1
80000b7c:	2d8000ef          	jal	80000e54 <__hidden___udivsi3>
80000b80:	00000593          	li	a1,0
80000b84:	01812483          	lw	s1,24(sp)
80000b88:	ccdff06f          	j	80000854 <__udivmoddi4+0x54>
80000b8c:	01812483          	lw	s1,24(sp)
80000b90:	00028513          	mv	a0,t0
80000b94:	00030593          	mv	a1,t1
80000b98:	cbdff06f          	j	80000854 <__udivmoddi4+0x54>
80000b9c:	01812483          	lw	s1,24(sp)
80000ba0:	ea5ff06f          	j	80000a44 <__udivmoddi4+0x244>
80000ba4:	00060863          	beqz	a2,80000bb4 <__udivmoddi4+0x3b4>
80000ba8:	0067f7b3          	and	a5,a5,t1
80000bac:	00a62023          	sw	a0,0(a2)
80000bb0:	00f62223          	sw	a5,4(a2)
80000bb4:	00068513          	mv	a0,a3
80000bb8:	00612023          	sw	t1,0(sp)
80000bbc:	218000ef          	jal	80000dd4 <__ctzsi2>
80000bc0:	00012303          	lw	t1,0(sp)
80000bc4:	01812483          	lw	s1,24(sp)
80000bc8:	00000593          	li	a1,0
80000bcc:	00a35533          	srl	a0,t1,a0
80000bd0:	c85ff06f          	j	80000854 <__udivmoddi4+0x54>
80000bd4:	00000793          	li	a5,0
80000bd8:	00000493          	li	s1,0
80000bdc:	da5ff06f          	j	80000980 <__udivmoddi4+0x180>
80000be0:	04000493          	li	s1,64
80000be4:	407484b3          	sub	s1,s1,t2
80000be8:	00158593          	addi	a1,a1,1
80000bec:	009712b3          	sll	t0,a4,s1
80000bf0:	00b55333          	srl	t1,a0,a1
80000bf4:	009514b3          	sll	s1,a0,s1
80000bf8:	00b75733          	srl	a4,a4,a1
80000bfc:	0062e533          	or	a0,t0,t1
80000c00:	d81ff06f          	j	80000980 <__udivmoddi4+0x180>

80000c04 <__divdi3>:
80000c04:	41f5d313          	srai	t1,a1,0x1f
80000c08:	41f6d793          	srai	a5,a3,0x1f
80000c0c:	006542b3          	xor	t0,a0,t1
80000c10:	00f643b3          	xor	t2,a2,a5
80000c14:	40f38633          	sub	a2,t2,a5
80000c18:	40628533          	sub	a0,t0,t1
80000c1c:	0065c5b3          	xor	a1,a1,t1
80000c20:	00f6c6b3          	xor	a3,a3,a5
80000c24:	00c3b3b3          	sltu	t2,t2,a2
80000c28:	40f686b3          	sub	a3,a3,a5
80000c2c:	00a2b2b3          	sltu	t0,t0,a0
80000c30:	406585b3          	sub	a1,a1,t1
80000c34:	ff410113          	addi	sp,sp,-12
80000c38:	00000713          	li	a4,0
80000c3c:	407686b3          	sub	a3,a3,t2
80000c40:	405585b3          	sub	a1,a1,t0
80000c44:	00812223          	sw	s0,4(sp)
80000c48:	00112423          	sw	ra,8(sp)
80000c4c:	00f34433          	xor	s0,t1,a5
80000c50:	bb1ff0ef          	jal	80000800 <__udivmoddi4>
80000c54:	00854733          	xor	a4,a0,s0
80000c58:	0085c5b3          	xor	a1,a1,s0
80000c5c:	40870533          	sub	a0,a4,s0
80000c60:	00812083          	lw	ra,8(sp)
80000c64:	408585b3          	sub	a1,a1,s0
80000c68:	00412403          	lw	s0,4(sp)
80000c6c:	00a73733          	sltu	a4,a4,a0
80000c70:	40e585b3          	sub	a1,a1,a4
80000c74:	00c10113          	addi	sp,sp,12
80000c78:	00008067          	ret

80000c7c <__moddi3>:
80000c7c:	fe810113          	addi	sp,sp,-24
80000c80:	00812823          	sw	s0,16(sp)
80000c84:	41f6d313          	srai	t1,a3,0x1f
80000c88:	41f5d413          	srai	s0,a1,0x1f
80000c8c:	00854733          	xor	a4,a0,s0
80000c90:	006647b3          	xor	a5,a2,t1
80000c94:	00912623          	sw	s1,12(sp)
80000c98:	40870533          	sub	a0,a4,s0
80000c9c:	40678633          	sub	a2,a5,t1
80000ca0:	0066c6b3          	xor	a3,a3,t1
80000ca4:	0085c5b3          	xor	a1,a1,s0
80000ca8:	00710493          	addi	s1,sp,7
80000cac:	ff84f493          	andi	s1,s1,-8
80000cb0:	00c7b7b3          	sltu	a5,a5,a2
80000cb4:	406686b3          	sub	a3,a3,t1
80000cb8:	408585b3          	sub	a1,a1,s0
80000cbc:	00a73333          	sltu	t1,a4,a0
80000cc0:	40f686b3          	sub	a3,a3,a5
80000cc4:	00048713          	mv	a4,s1
80000cc8:	406585b3          	sub	a1,a1,t1
80000ccc:	00112a23          	sw	ra,20(sp)
80000cd0:	b31ff0ef          	jal	80000800 <__udivmoddi4>
80000cd4:	0004a783          	lw	a5,0(s1)
80000cd8:	0044a583          	lw	a1,4(s1)
80000cdc:	01412083          	lw	ra,20(sp)
80000ce0:	0087c7b3          	xor	a5,a5,s0
80000ce4:	0085c5b3          	xor	a1,a1,s0
80000ce8:	40878533          	sub	a0,a5,s0
80000cec:	408585b3          	sub	a1,a1,s0
80000cf0:	01012403          	lw	s0,16(sp)
80000cf4:	00a7b7b3          	sltu	a5,a5,a0
80000cf8:	00c12483          	lw	s1,12(sp)
80000cfc:	40f585b3          	sub	a1,a1,a5
80000d00:	01810113          	addi	sp,sp,24
80000d04:	00008067          	ret

80000d08 <__udivdi3>:
80000d08:	00000713          	li	a4,0
80000d0c:	af5ff06f          	j	80000800 <__udivmoddi4>

80000d10 <__umoddi3>:
80000d10:	fe810113          	addi	sp,sp,-24
80000d14:	00812823          	sw	s0,16(sp)
80000d18:	00710413          	addi	s0,sp,7
80000d1c:	ff847413          	andi	s0,s0,-8
80000d20:	00040713          	mv	a4,s0
80000d24:	00112a23          	sw	ra,20(sp)
80000d28:	ad9ff0ef          	jal	80000800 <__udivmoddi4>
80000d2c:	00042503          	lw	a0,0(s0)
80000d30:	00442583          	lw	a1,4(s0)
80000d34:	01412083          	lw	ra,20(sp)
80000d38:	01012403          	lw	s0,16(sp)
80000d3c:	01810113          	addi	sp,sp,24
80000d40:	00008067          	ret

80000d44 <__clzsi2>:
80000d44:	000105b7          	lui	a1,0x10
80000d48:	00b535b3          	sltu	a1,a0,a1
80000d4c:	00459593          	slli	a1,a1,0x4
80000d50:	01000793          	li	a5,16
80000d54:	40b787b3          	sub	a5,a5,a1
80000d58:	00010737          	lui	a4,0x10
80000d5c:	00f557b3          	srl	a5,a0,a5
80000d60:	f0070713          	addi	a4,a4,-256 # ff00 <_entry_offset+0xff00>
80000d64:	00e7f733          	and	a4,a5,a4
80000d68:	00173713          	seqz	a4,a4
80000d6c:	00371713          	slli	a4,a4,0x3
80000d70:	00800693          	li	a3,8
80000d74:	40e686b3          	sub	a3,a3,a4
80000d78:	00d7d7b3          	srl	a5,a5,a3
80000d7c:	0f07f693          	andi	a3,a5,240
80000d80:	0016b693          	seqz	a3,a3
80000d84:	00269693          	slli	a3,a3,0x2
80000d88:	00400613          	li	a2,4
80000d8c:	40d60633          	sub	a2,a2,a3
80000d90:	00c7d7b3          	srl	a5,a5,a2
80000d94:	00c7f613          	andi	a2,a5,12
80000d98:	00163613          	seqz	a2,a2
80000d9c:	00200513          	li	a0,2
80000da0:	00161613          	slli	a2,a2,0x1
80000da4:	40c50333          	sub	t1,a0,a2
80000da8:	0067d7b3          	srl	a5,a5,t1
80000dac:	0017d313          	srli	t1,a5,0x1
80000db0:	00b70733          	add	a4,a4,a1
80000db4:	00137593          	andi	a1,t1,1
80000db8:	00e686b3          	add	a3,a3,a4
80000dbc:	40f50533          	sub	a0,a0,a5
80000dc0:	00058463          	beqz	a1,80000dc8 <__clzsi2+0x84>
80000dc4:	00000513          	li	a0,0
80000dc8:	00d606b3          	add	a3,a2,a3
80000dcc:	00d50533          	add	a0,a0,a3
80000dd0:	00008067          	ret

80000dd4 <__ctzsi2>:
80000dd4:	01051593          	slli	a1,a0,0x10
80000dd8:	0105d593          	srli	a1,a1,0x10
80000ddc:	0015b593          	seqz	a1,a1
80000de0:	00459593          	slli	a1,a1,0x4
80000de4:	00b557b3          	srl	a5,a0,a1
80000de8:	0ff7f613          	zext.b	a2,a5
80000dec:	00163613          	seqz	a2,a2
80000df0:	00361613          	slli	a2,a2,0x3
80000df4:	00c7d7b3          	srl	a5,a5,a2
80000df8:	00f7f693          	andi	a3,a5,15
80000dfc:	0016b693          	seqz	a3,a3
80000e00:	00269693          	slli	a3,a3,0x2
80000e04:	00d7d7b3          	srl	a5,a5,a3
80000e08:	0037f713          	andi	a4,a5,3
80000e0c:	00173713          	seqz	a4,a4
80000e10:	00171713          	slli	a4,a4,0x1
80000e14:	00e7d7b3          	srl	a5,a5,a4
80000e18:	0017d513          	srli	a0,a5,0x1
80000e1c:	fff7c793          	not	a5,a5
80000e20:	00b60633          	add	a2,a2,a1
80000e24:	0017f793          	andi	a5,a5,1
80000e28:	00157593          	andi	a1,a0,1
80000e2c:	00200513          	li	a0,2
80000e30:	40b50533          	sub	a0,a0,a1
80000e34:	00c686b3          	add	a3,a3,a2
80000e38:	40f007b3          	neg	a5,a5
80000e3c:	00f577b3          	and	a5,a0,a5
80000e40:	00d70533          	add	a0,a4,a3
80000e44:	00a78533          	add	a0,a5,a0
80000e48:	00008067          	ret

80000e4c <__divsi3>:
80000e4c:	06054063          	bltz	a0,80000eac <__umodsi3+0x10>
80000e50:	0605c663          	bltz	a1,80000ebc <__umodsi3+0x20>

80000e54 <__hidden___udivsi3>:
80000e54:	00058613          	mv	a2,a1
80000e58:	00050593          	mv	a1,a0
80000e5c:	fff00513          	li	a0,-1
80000e60:	02060c63          	beqz	a2,80000e98 <__hidden___udivsi3+0x44>
80000e64:	00100693          	li	a3,1
80000e68:	00b67a63          	bgeu	a2,a1,80000e7c <__hidden___udivsi3+0x28>
80000e6c:	00c05863          	blez	a2,80000e7c <__hidden___udivsi3+0x28>
80000e70:	00161613          	slli	a2,a2,0x1
80000e74:	00169693          	slli	a3,a3,0x1
80000e78:	feb66ae3          	bltu	a2,a1,80000e6c <__hidden___udivsi3+0x18>
80000e7c:	00000513          	li	a0,0
80000e80:	00c5e663          	bltu	a1,a2,80000e8c <__hidden___udivsi3+0x38>
80000e84:	40c585b3          	sub	a1,a1,a2
80000e88:	00d56533          	or	a0,a0,a3
80000e8c:	0016d693          	srli	a3,a3,0x1
80000e90:	00165613          	srli	a2,a2,0x1
80000e94:	fe0696e3          	bnez	a3,80000e80 <__hidden___udivsi3+0x2c>
80000e98:	00008067          	ret

80000e9c <__umodsi3>:
80000e9c:	00008293          	mv	t0,ra
80000ea0:	fb5ff0ef          	jal	80000e54 <__hidden___udivsi3>
80000ea4:	00058513          	mv	a0,a1
80000ea8:	00028067          	jr	t0 # 1000 <_entry_offset+0x1000>
80000eac:	40a00533          	neg	a0,a0
80000eb0:	00b04863          	bgtz	a1,80000ec0 <__umodsi3+0x24>
80000eb4:	40b005b3          	neg	a1,a1
80000eb8:	f9dff06f          	j	80000e54 <__hidden___udivsi3>
80000ebc:	40b005b3          	neg	a1,a1
80000ec0:	00008293          	mv	t0,ra
80000ec4:	f91ff0ef          	jal	80000e54 <__hidden___udivsi3>
80000ec8:	40a00533          	neg	a0,a0
80000ecc:	00028067          	jr	t0

80000ed0 <__modsi3>:
80000ed0:	00008293          	mv	t0,ra
80000ed4:	0005ca63          	bltz	a1,80000ee8 <__modsi3+0x18>
80000ed8:	00054c63          	bltz	a0,80000ef0 <__modsi3+0x20>
80000edc:	f79ff0ef          	jal	80000e54 <__hidden___udivsi3>
80000ee0:	00058513          	mv	a0,a1
80000ee4:	00028067          	jr	t0
80000ee8:	40b005b3          	neg	a1,a1
80000eec:	fe0558e3          	bgez	a0,80000edc <__modsi3+0xc>
80000ef0:	40a00533          	neg	a0,a0
80000ef4:	f61ff0ef          	jal	80000e54 <__hidden___udivsi3>
80000ef8:	40b00533          	neg	a0,a1
80000efc:	00028067          	jr	t0
