
/home/jinghanhui/ysyx-workbench/am-kernels/tests/cpu-tests/build/d_stage_test-riscv32e-npc.elf:     file format elf32-littleriscv


Disassembly of section .text:

80000000 <_start>:
80000000:	00000413          	li	s0,0
80000004:	0000a117          	auipc	sp,0xa
80000008:	ffc10113          	addi	sp,sp,-4 # 8000a000 <_end>
8000000c:	1c8000ef          	jal	800001d4 <_trm_init>

80000010 <main>:
80000010:	fec10113          	addi	sp,sp,-20
80000014:	00001517          	auipc	a0,0x1
80000018:	04050513          	addi	a0,a0,64 # 80001054 <_etext>
8000001c:	00112823          	sw	ra,16(sp)
80000020:	00812623          	sw	s0,12(sp)
80000024:	00912423          	sw	s1,8(sp)
80000028:	051000ef          	jal	80000878 <printf>
8000002c:	f1102473          	csrr	s0,mvendorid
80000030:	00001517          	auipc	a0,0x1
80000034:	04450513          	addi	a0,a0,68 # 80001074 <_etext+0x20>
80000038:	00040593          	mv	a1,s0
8000003c:	03d000ef          	jal	80000878 <printf>
80000040:	797387b7          	lui	a5,0x79738
80000044:	97878793          	addi	a5,a5,-1672 # 79737978 <_entry_offset+0x79737978>
80000048:	14f40663          	beq	s0,a5,80000194 <main+0x184>
8000004c:	00040593          	mv	a1,s0
80000050:	00001517          	auipc	a0,0x1
80000054:	06c50513          	addi	a0,a0,108 # 800010bc <_etext+0x68>
80000058:	021000ef          	jal	80000878 <printf>
8000005c:	f12024f3          	csrr	s1,marchid
80000060:	00001517          	auipc	a0,0x1
80000064:	09450513          	addi	a0,a0,148 # 800010f4 <_etext+0xa0>
80000068:	00048613          	mv	a2,s1
8000006c:	00048593          	mv	a1,s1
80000070:	009000ef          	jal	80000878 <printf>
80000074:	016f97b7          	lui	a5,0x16f9
80000078:	59378793          	addi	a5,a5,1427 # 16f9593 <_entry_offset+0x16f9593>
8000007c:	10f48463          	beq	s1,a5,80000184 <main+0x174>
80000080:	00048613          	mv	a2,s1
80000084:	00048593          	mv	a1,s1
80000088:	00001517          	auipc	a0,0x1
8000008c:	0bc50513          	addi	a0,a0,188 # 80001144 <_etext+0xf0>
80000090:	7e8000ef          	jal	80000878 <printf>
80000094:	00001517          	auipc	a0,0x1
80000098:	0ec50513          	addi	a0,a0,236 # 80001180 <_etext+0x12c>
8000009c:	7dc000ef          	jal	80000878 <printf>
800000a0:	01045613          	srli	a2,s0,0x10
800000a4:	00845693          	srli	a3,s0,0x8
800000a8:	0ff67593          	zext.b	a1,a2
800000ac:	00859593          	slli	a1,a1,0x8
800000b0:	0ff6f713          	zext.b	a4,a3
800000b4:	01845793          	srli	a5,s0,0x18
800000b8:	01071713          	slli	a4,a4,0x10
800000bc:	00b7e7b3          	or	a5,a5,a1
800000c0:	00e7e7b3          	or	a5,a5,a4
800000c4:	01841593          	slli	a1,s0,0x18
800000c8:	00b7e7b3          	or	a5,a5,a1
800000cc:	0ff47713          	zext.b	a4,s0
800000d0:	0ff6f693          	zext.b	a3,a3
800000d4:	0ff67613          	zext.b	a2,a2
800000d8:	01845593          	srli	a1,s0,0x18
800000dc:	00001517          	auipc	a0,0x1
800000e0:	0c850513          	addi	a0,a0,200 # 800011a4 <_etext+0x150>
800000e4:	00f12023          	sw	a5,0(sp)
800000e8:	00010223          	sb	zero,4(sp)
800000ec:	78c000ef          	jal	80000878 <printf>
800000f0:	00014783          	lbu	a5,0(sp)
800000f4:	07900713          	li	a4,121
800000f8:	00e79863          	bne	a5,a4,80000108 <main+0xf8>
800000fc:	00114683          	lbu	a3,1(sp)
80000100:	07300713          	li	a4,115
80000104:	0ae68063          	beq	a3,a4,800001a4 <main+0x194>
80000108:	00010593          	mv	a1,sp
8000010c:	00001517          	auipc	a0,0x1
80000110:	0dc50513          	addi	a0,a0,220 # 800011e8 <_etext+0x194>
80000114:	764000ef          	jal	80000878 <printf>
80000118:	00001517          	auipc	a0,0x1
8000011c:	10050513          	addi	a0,a0,256 # 80001218 <_etext+0x1c4>
80000120:	758000ef          	jal	80000878 <printf>
80000124:	00048593          	mv	a1,s1
80000128:	00001517          	auipc	a0,0x1
8000012c:	10c50513          	addi	a0,a0,268 # 80001234 <_etext+0x1e0>
80000130:	748000ef          	jal	80000878 <printf>
80000134:	feced7b7          	lui	a5,0xfeced
80000138:	30078793          	addi	a5,a5,768 # feced300 <_end+0x7ece3300>
8000013c:	04c4b737          	lui	a4,0x4c4b
80000140:	00f487b3          	add	a5,s1,a5
80000144:	3ff70713          	addi	a4,a4,1023 # 4c4b3ff <_entry_offset+0x4c4b3ff>
80000148:	02f76463          	bltu	a4,a5,80000170 <main+0x160>
8000014c:	00001517          	auipc	a0,0x1
80000150:	10050513          	addi	a0,a0,256 # 8000124c <_etext+0x1f8>
80000154:	724000ef          	jal	80000878 <printf>
80000158:	01012083          	lw	ra,16(sp)
8000015c:	00c12403          	lw	s0,12(sp)
80000160:	00812483          	lw	s1,8(sp)
80000164:	00000513          	li	a0,0
80000168:	01410113          	addi	sp,sp,20
8000016c:	00008067          	ret
80000170:	00048593          	mv	a1,s1
80000174:	00001517          	auipc	a0,0x1
80000178:	11850513          	addi	a0,a0,280 # 8000128c <_etext+0x238>
8000017c:	6fc000ef          	jal	80000878 <printf>
80000180:	fd9ff06f          	j	80000158 <main+0x148>
80000184:	00001517          	auipc	a0,0x1
80000188:	f8850513          	addi	a0,a0,-120 # 8000110c <_etext+0xb8>
8000018c:	6ec000ef          	jal	80000878 <printf>
80000190:	f05ff06f          	j	80000094 <main+0x84>
80000194:	00001517          	auipc	a0,0x1
80000198:	ef450513          	addi	a0,a0,-268 # 80001088 <_etext+0x34>
8000019c:	6dc000ef          	jal	80000878 <printf>
800001a0:	ebdff06f          	j	8000005c <main+0x4c>
800001a4:	00214703          	lbu	a4,2(sp)
800001a8:	f6f710e3          	bne	a4,a5,80000108 <main+0xf8>
800001ac:	00314703          	lbu	a4,3(sp)
800001b0:	07800793          	li	a5,120
800001b4:	f4f71ae3          	bne	a4,a5,80000108 <main+0xf8>
800001b8:	00001517          	auipc	a0,0x1
800001bc:	00c50513          	addi	a0,a0,12 # 800011c4 <_etext+0x170>
800001c0:	6b8000ef          	jal	80000878 <printf>
800001c4:	f55ff06f          	j	80000118 <main+0x108>

800001c8 <putch>:
800001c8:	a00007b7          	lui	a5,0xa0000
800001cc:	3ea78c23          	sb	a0,1016(a5) # a00003f8 <_end+0x1fff63f8>
800001d0:	00008067          	ret

800001d4 <_trm_init>:
800001d4:	ff410113          	addi	sp,sp,-12
800001d8:	00001517          	auipc	a0,0x1
800001dc:	14050513          	addi	a0,a0,320 # 80001318 <mainargs>
800001e0:	00112423          	sw	ra,8(sp)
800001e4:	e2dff0ef          	jal	80000010 <main>
800001e8:	00050513          	mv	a0,a0
800001ec:	00100073          	ebreak
800001f0:	0000006f          	j	800001f0 <_trm_init+0x1c>

800001f4 <vsprintf>:
800001f4:	f8010113          	addi	sp,sp,-128
800001f8:	06912a23          	sw	s1,116(sp)
800001fc:	06112e23          	sw	ra,124(sp)
80000200:	0005c683          	lbu	a3,0(a1)
80000204:	00050493          	mv	s1,a0
80000208:	52068e63          	beqz	a3,80000744 <vsprintf+0x550>
8000020c:	00060513          	mv	a0,a2
80000210:	00058293          	mv	t0,a1
80000214:	06812c23          	sw	s0,120(sp)
80000218:	00000713          	li	a4,0
8000021c:	00000613          	li	a2,0
80000220:	00048393          	mv	t2,s1
80000224:	00048593          	mv	a1,s1
80000228:	00a12023          	sw	a0,0(sp)
8000022c:	0200006f          	j	8000024c <vsprintf+0x58>
80000230:	00160613          	addi	a2,a2,1
80000234:	00d38023          	sb	a3,0(t2)
80000238:	00048713          	mv	a4,s1
8000023c:	00c583b3          	add	t2,a1,a2
80000240:	00e287b3          	add	a5,t0,a4
80000244:	0007c683          	lbu	a3,0(a5)
80000248:	0c068e63          	beqz	a3,80000324 <vsprintf+0x130>
8000024c:	02500793          	li	a5,37
80000250:	00170493          	addi	s1,a4,1
80000254:	00060313          	mv	t1,a2
80000258:	fcf69ce3          	bne	a3,a5,80000230 <vsprintf+0x3c>
8000025c:	00928533          	add	a0,t0,s1
80000260:	00054683          	lbu	a3,0(a0)
80000264:	00012623          	sw	zero,12(sp)
80000268:	03000793          	li	a5,48
8000026c:	00f69c63          	bne	a3,a5,80000284 <vsprintf+0x90>
80000270:	00270493          	addi	s1,a4,2
80000274:	00928533          	add	a0,t0,s1
80000278:	00054683          	lbu	a3,0(a0)
8000027c:	00100793          	li	a5,1
80000280:	00f12623          	sw	a5,12(sp)
80000284:	fd068793          	addi	a5,a3,-48
80000288:	00f12223          	sw	a5,4(sp)
8000028c:	00900713          	li	a4,9
80000290:	0ff7f793          	zext.b	a5,a5
80000294:	00000413          	li	s0,0
80000298:	04f76263          	bltu	a4,a5,800002dc <vsprintf+0xe8>
8000029c:	00412703          	lw	a4,4(sp)
800002a0:	00040793          	mv	a5,s0
800002a4:	00c12423          	sw	a2,8(sp)
800002a8:	00148493          	addi	s1,s1,1
800002ac:	00928533          	add	a0,t0,s1
800002b0:	00279413          	slli	s0,a5,0x2
800002b4:	00054683          	lbu	a3,0(a0)
800002b8:	00f40433          	add	s0,s0,a5
800002bc:	00141413          	slli	s0,s0,0x1
800002c0:	008707b3          	add	a5,a4,s0
800002c4:	fd068713          	addi	a4,a3,-48
800002c8:	0ff77413          	zext.b	s0,a4
800002cc:	00900613          	li	a2,9
800002d0:	fc867ce3          	bgeu	a2,s0,800002a8 <vsprintf+0xb4>
800002d4:	00812603          	lw	a2,8(sp)
800002d8:	00078413          	mv	s0,a5
800002dc:	06c00793          	li	a5,108
800002e0:	00000713          	li	a4,0
800002e4:	00f69863          	bne	a3,a5,800002f4 <vsprintf+0x100>
800002e8:	00148493          	addi	s1,s1,1
800002ec:	00100713          	li	a4,1
800002f0:	00928533          	add	a0,t0,s1
800002f4:	00054783          	lbu	a5,0(a0)
800002f8:	01500693          	li	a3,21
800002fc:	f9d78793          	addi	a5,a5,-99
80000300:	0ff7f793          	zext.b	a5,a5
80000304:	04f6e263          	bltu	a3,a5,80000348 <vsprintf+0x154>
80000308:	00001697          	auipc	a3,0x1
8000030c:	fb868693          	addi	a3,a3,-72 # 800012c0 <_etext+0x26c>
80000310:	00279793          	slli	a5,a5,0x2
80000314:	00d787b3          	add	a5,a5,a3
80000318:	0007a783          	lw	a5,0(a5)
8000031c:	00d787b3          	add	a5,a5,a3
80000320:	00078067          	jr	a5
80000324:	00038493          	mv	s1,t2
80000328:	07812403          	lw	s0,120(sp)
8000032c:	00048023          	sb	zero,0(s1)
80000330:	07c12083          	lw	ra,124(sp)
80000334:	00060793          	mv	a5,a2
80000338:	07412483          	lw	s1,116(sp)
8000033c:	00078513          	mv	a0,a5
80000340:	08010113          	addi	sp,sp,128
80000344:	00008067          	ret
80000348:	02500793          	li	a5,37
8000034c:	00f38023          	sb	a5,0(t2)
80000350:	00054703          	lbu	a4,0(a0)
80000354:	00160793          	addi	a5,a2,1
80000358:	00f587b3          	add	a5,a1,a5
8000035c:	00260613          	addi	a2,a2,2
80000360:	00e78023          	sb	a4,0(a5)
80000364:	00c583b3          	add	t2,a1,a2
80000368:	00148713          	addi	a4,s1,1
8000036c:	ed5ff06f          	j	80000240 <vsprintf+0x4c>
80000370:	00012683          	lw	a3,0(sp)
80000374:	00000713          	li	a4,0
80000378:	0006a783          	lw	a5,0(a3)
8000037c:	00468693          	addi	a3,a3,4
80000380:	00d12023          	sw	a3,0(sp)
80000384:	26079e63          	bnez	a5,80000600 <vsprintf+0x40c>
80000388:	03000793          	li	a5,48
8000038c:	02f10a23          	sb	a5,52(sp)
80000390:	fff40413          	addi	s0,s0,-1
80000394:	00100793          	li	a5,1
80000398:	00078693          	mv	a3,a5
8000039c:	03410313          	addi	t1,sp,52
800003a0:	00805663          	blez	s0,800003ac <vsprintf+0x1b8>
800003a4:	00c12783          	lw	a5,12(sp)
800003a8:	3e079463          	bnez	a5,80000790 <vsprintf+0x59c>
800003ac:	00d307b3          	add	a5,t1,a3
800003b0:	fff7c703          	lbu	a4,-1(a5)
800003b4:	fff78793          	addi	a5,a5,-1
800003b8:	00138393          	addi	t2,t2,1
800003bc:	fee38fa3          	sb	a4,-1(t2)
800003c0:	fef318e3          	bne	t1,a5,800003b0 <vsprintf+0x1bc>
800003c4:	00c68633          	add	a2,a3,a2
800003c8:	00c583b3          	add	t2,a1,a2
800003cc:	00148713          	addi	a4,s1,1
800003d0:	e71ff06f          	j	80000240 <vsprintf+0x4c>
800003d4:	00012683          	lw	a3,0(sp)
800003d8:	00000713          	li	a4,0
800003dc:	0006a783          	lw	a5,0(a3)
800003e0:	00468693          	addi	a3,a3,4
800003e4:	00d12023          	sw	a3,0(sp)
800003e8:	14079c63          	bnez	a5,80000540 <vsprintf+0x34c>
800003ec:	03000793          	li	a5,48
800003f0:	02f10a23          	sb	a5,52(sp)
800003f4:	00100793          	li	a5,1
800003f8:	fff40413          	addi	s0,s0,-1
800003fc:	00f12223          	sw	a5,4(sp)
80000400:	03410313          	addi	t1,sp,52
80000404:	00805663          	blez	s0,80000410 <vsprintf+0x21c>
80000408:	00c12783          	lw	a5,12(sp)
8000040c:	3c079463          	bnez	a5,800007d4 <vsprintf+0x5e0>
80000410:	00412783          	lw	a5,4(sp)
80000414:	00f307b3          	add	a5,t1,a5
80000418:	fff7c703          	lbu	a4,-1(a5)
8000041c:	fff78793          	addi	a5,a5,-1
80000420:	00138393          	addi	t2,t2,1
80000424:	fee38fa3          	sb	a4,-1(t2)
80000428:	fef318e3          	bne	t1,a5,80000418 <vsprintf+0x224>
8000042c:	00412783          	lw	a5,4(sp)
80000430:	00148713          	addi	a4,s1,1
80000434:	00c78633          	add	a2,a5,a2
80000438:	00c583b3          	add	t2,a1,a2
8000043c:	e05ff06f          	j	80000240 <vsprintf+0x4c>
80000440:	00012783          	lw	a5,0(sp)
80000444:	0007a683          	lw	a3,0(a5)
80000448:	00478513          	addi	a0,a5,4
8000044c:	02068463          	beqz	a3,80000474 <vsprintf+0x280>
80000450:	0006c703          	lbu	a4,0(a3)
80000454:	02070063          	beqz	a4,80000474 <vsprintf+0x280>
80000458:	00160613          	addi	a2,a2,1
8000045c:	00c583b3          	add	t2,a1,a2
80000460:	406607b3          	sub	a5,a2,t1
80000464:	fee38fa3          	sb	a4,-1(t2)
80000468:	00f687b3          	add	a5,a3,a5
8000046c:	0007c703          	lbu	a4,0(a5)
80000470:	fe0714e3          	bnez	a4,80000458 <vsprintf+0x264>
80000474:	00a12023          	sw	a0,0(sp)
80000478:	00148713          	addi	a4,s1,1
8000047c:	dc5ff06f          	j	80000240 <vsprintf+0x4c>
80000480:	00012783          	lw	a5,0(sp)
80000484:	00478693          	addi	a3,a5,4
80000488:	00d12a23          	sw	a3,20(sp)
8000048c:	08070e63          	beqz	a4,80000528 <vsprintf+0x334>
80000490:	0007a783          	lw	a5,0(a5)
80000494:	41f7d713          	srai	a4,a5,0x1f
80000498:	00e7e6b3          	or	a3,a5,a4
8000049c:	1c069663          	bnez	a3,80000668 <vsprintf+0x474>
800004a0:	03000793          	li	a5,48
800004a4:	02f10a23          	sb	a5,52(sp)
800004a8:	fff40413          	addi	s0,s0,-1
800004ac:	00805863          	blez	s0,800004bc <vsprintf+0x2c8>
800004b0:	00c12783          	lw	a5,12(sp)
800004b4:	03410313          	addi	t1,sp,52
800004b8:	3a079a63          	bnez	a5,8000086c <vsprintf+0x678>
800004bc:	00100793          	li	a5,1
800004c0:	03410313          	addi	t1,sp,52
800004c4:	00f30733          	add	a4,t1,a5
800004c8:	fff74683          	lbu	a3,-1(a4)
800004cc:	fff70713          	addi	a4,a4,-1
800004d0:	00138393          	addi	t2,t2,1
800004d4:	fed38fa3          	sb	a3,-1(t2)
800004d8:	fee318e3          	bne	t1,a4,800004c8 <vsprintf+0x2d4>
800004dc:	00c78633          	add	a2,a5,a2
800004e0:	01412783          	lw	a5,20(sp)
800004e4:	00c583b3          	add	t2,a1,a2
800004e8:	00148713          	addi	a4,s1,1
800004ec:	00f12023          	sw	a5,0(sp)
800004f0:	d51ff06f          	j	80000240 <vsprintf+0x4c>
800004f4:	00012783          	lw	a5,0(sp)
800004f8:	00100693          	li	a3,1
800004fc:	0007c703          	lbu	a4,0(a5)
80000500:	00478793          	addi	a5,a5,4
80000504:	0086d663          	bge	a3,s0,80000510 <vsprintf+0x31c>
80000508:	00c12683          	lw	a3,12(sp)
8000050c:	24068a63          	beqz	a3,80000760 <vsprintf+0x56c>
80000510:	00160613          	addi	a2,a2,1
80000514:	00e38023          	sb	a4,0(t2)
80000518:	00f12023          	sw	a5,0(sp)
8000051c:	00c583b3          	add	t2,a1,a2
80000520:	00148713          	addi	a4,s1,1
80000524:	d1dff06f          	j	80000240 <vsprintf+0x4c>
80000528:	00012783          	lw	a5,0(sp)
8000052c:	0007a783          	lw	a5,0(a5)
80000530:	41f7d713          	srai	a4,a5,0x1f
80000534:	00e7e6b3          	or	a3,a5,a4
80000538:	f60684e3          	beqz	a3,800004a0 <vsprintf+0x2ac>
8000053c:	12c0006f          	j	80000668 <vsprintf+0x474>
80000540:	03410313          	addi	t1,sp,52
80000544:	00912c23          	sw	s1,24(sp)
80000548:	00012223          	sw	zero,4(sp)
8000054c:	00812a23          	sw	s0,20(sp)
80000550:	00c12e23          	sw	a2,28(sp)
80000554:	02b12023          	sw	a1,32(sp)
80000558:	02512223          	sw	t0,36(sp)
8000055c:	00030493          	mv	s1,t1
80000560:	02712423          	sw	t2,40(sp)
80000564:	00412683          	lw	a3,4(sp)
80000568:	00a00613          	li	a2,10
8000056c:	00078513          	mv	a0,a5
80000570:	00168313          	addi	t1,a3,1
80000574:	00070593          	mv	a1,a4
80000578:	00000693          	li	a3,0
8000057c:	00648433          	add	s0,s1,t1
80000580:	00612223          	sw	t1,4(sp)
80000584:	00f12823          	sw	a5,16(sp)
80000588:	00e12423          	sw	a4,8(sp)
8000058c:	0d9000ef          	jal	80000e64 <__umoddi3>
80000590:	00812703          	lw	a4,8(sp)
80000594:	01012783          	lw	a5,16(sp)
80000598:	03050293          	addi	t0,a0,48
8000059c:	00070593          	mv	a1,a4
800005a0:	00078513          	mv	a0,a5
800005a4:	fe540fa3          	sb	t0,-1(s0)
800005a8:	00a00613          	li	a2,10
800005ac:	00000693          	li	a3,0
800005b0:	00f12423          	sw	a5,8(sp)
800005b4:	00070413          	mv	s0,a4
800005b8:	0a5000ef          	jal	80000e5c <__udivdi3>
800005bc:	00050793          	mv	a5,a0
800005c0:	00058713          	mv	a4,a1
800005c4:	fa0410e3          	bnez	s0,80000564 <vsprintf+0x370>
800005c8:	00812603          	lw	a2,8(sp)
800005cc:	00900693          	li	a3,9
800005d0:	f8c6eae3          	bltu	a3,a2,80000564 <vsprintf+0x370>
800005d4:	01412403          	lw	s0,20(sp)
800005d8:	00412783          	lw	a5,4(sp)
800005dc:	00048313          	mv	t1,s1
800005e0:	01c12603          	lw	a2,28(sp)
800005e4:	40f40433          	sub	s0,s0,a5
800005e8:	02012583          	lw	a1,32(sp)
800005ec:	02412283          	lw	t0,36(sp)
800005f0:	01812483          	lw	s1,24(sp)
800005f4:	02812383          	lw	t2,40(sp)
800005f8:	e08048e3          	bgtz	s0,80000408 <vsprintf+0x214>
800005fc:	e15ff06f          	j	80000410 <vsprintf+0x21c>
80000600:	00000513          	li	a0,0
80000604:	03410313          	addi	t1,sp,52
80000608:	00812223          	sw	s0,4(sp)
8000060c:	00912423          	sw	s1,8(sp)
80000610:	00c12823          	sw	a2,16(sp)
80000614:	00f7f493          	andi	s1,a5,15
80000618:	00900613          	li	a2,9
8000061c:	00150513          	addi	a0,a0,1
80000620:	05748413          	addi	s0,s1,87
80000624:	00964463          	blt	a2,s1,8000062c <vsprintf+0x438>
80000628:	03048413          	addi	s0,s1,48
8000062c:	01c71493          	slli	s1,a4,0x1c
80000630:	0047d793          	srli	a5,a5,0x4
80000634:	00a306b3          	add	a3,t1,a0
80000638:	00f4e7b3          	or	a5,s1,a5
8000063c:	00475713          	srli	a4,a4,0x4
80000640:	fe868fa3          	sb	s0,-1(a3)
80000644:	00e7e6b3          	or	a3,a5,a4
80000648:	fc0696e3          	bnez	a3,80000614 <vsprintf+0x420>
8000064c:	00412403          	lw	s0,4(sp)
80000650:	00812483          	lw	s1,8(sp)
80000654:	01012603          	lw	a2,16(sp)
80000658:	40a40433          	sub	s0,s0,a0
8000065c:	00050693          	mv	a3,a0
80000660:	d48042e3          	bgtz	s0,800003a4 <vsprintf+0x1b0>
80000664:	d49ff06f          	j	800003ac <vsprintf+0x1b8>
80000668:	00012c23          	sw	zero,24(sp)
8000066c:	14074663          	bltz	a4,800007b8 <vsprintf+0x5c4>
80000670:	00000693          	li	a3,0
80000674:	03410313          	addi	t1,sp,52
80000678:	00812e23          	sw	s0,28(sp)
8000067c:	02912023          	sw	s1,32(sp)
80000680:	02c12223          	sw	a2,36(sp)
80000684:	00068493          	mv	s1,a3
80000688:	02b12423          	sw	a1,40(sp)
8000068c:	02512623          	sw	t0,44(sp)
80000690:	00078413          	mv	s0,a5
80000694:	00612423          	sw	t1,8(sp)
80000698:	02712823          	sw	t2,48(sp)
8000069c:	00812783          	lw	a5,8(sp)
800006a0:	00912823          	sw	s1,16(sp)
800006a4:	00148493          	addi	s1,s1,1
800006a8:	009783b3          	add	t2,a5,s1
800006ac:	00a00613          	li	a2,10
800006b0:	00000693          	li	a3,0
800006b4:	00040513          	mv	a0,s0
800006b8:	00070593          	mv	a1,a4
800006bc:	00e12223          	sw	a4,4(sp)
800006c0:	00712023          	sw	t2,0(sp)
800006c4:	70c000ef          	jal	80000dd0 <__moddi3>
800006c8:	00412703          	lw	a4,4(sp)
800006cc:	00012383          	lw	t2,0(sp)
800006d0:	03050293          	addi	t0,a0,48
800006d4:	00000693          	li	a3,0
800006d8:	00040513          	mv	a0,s0
800006dc:	00070593          	mv	a1,a4
800006e0:	00a00613          	li	a2,10
800006e4:	fe538fa3          	sb	t0,-1(t2)
800006e8:	670000ef          	jal	80000d58 <__divdi3>
800006ec:	00a5e6b3          	or	a3,a1,a0
800006f0:	00058713          	mv	a4,a1
800006f4:	00050413          	mv	s0,a0
800006f8:	fa0692e3          	bnez	a3,8000069c <vsprintf+0x4a8>
800006fc:	01812783          	lw	a5,24(sp)
80000700:	00048713          	mv	a4,s1
80000704:	00048513          	mv	a0,s1
80000708:	01c12403          	lw	s0,28(sp)
8000070c:	02012483          	lw	s1,32(sp)
80000710:	02412603          	lw	a2,36(sp)
80000714:	02812583          	lw	a1,40(sp)
80000718:	02c12283          	lw	t0,44(sp)
8000071c:	00812303          	lw	t1,8(sp)
80000720:	03012383          	lw	t2,48(sp)
80000724:	0c079c63          	bnez	a5,800007fc <vsprintf+0x608>
80000728:	40e40433          	sub	s0,s0,a4
8000072c:	00070793          	mv	a5,a4
80000730:	d8805ae3          	blez	s0,800004c4 <vsprintf+0x2d0>
80000734:	00c12783          	lw	a5,12(sp)
80000738:	12079863          	bnez	a5,80000868 <vsprintf+0x674>
8000073c:	00070793          	mv	a5,a4
80000740:	d85ff06f          	j	800004c4 <vsprintf+0x2d0>
80000744:	00048023          	sb	zero,0(s1)
80000748:	07c12083          	lw	ra,124(sp)
8000074c:	00000793          	li	a5,0
80000750:	07412483          	lw	s1,116(sp)
80000754:	00078513          	mv	a0,a5
80000758:	08010113          	addi	sp,sp,128
8000075c:	00008067          	ret
80000760:	fff58693          	addi	a3,a1,-1
80000764:	00c686b3          	add	a3,a3,a2
80000768:	ffe40513          	addi	a0,s0,-2
8000076c:	008686b3          	add	a3,a3,s0
80000770:	02000313          	li	t1,32
80000774:	00638023          	sb	t1,0(t2)
80000778:	00138393          	addi	t2,t2,1
8000077c:	fed39ce3          	bne	t2,a3,80000774 <vsprintf+0x580>
80000780:	00160613          	addi	a2,a2,1
80000784:	00c50633          	add	a2,a0,a2
80000788:	00c583b3          	add	t2,a1,a2
8000078c:	d85ff06f          	j	80000510 <vsprintf+0x31c>
80000790:	fff40793          	addi	a5,s0,-1
80000794:	03000713          	li	a4,48
80000798:	00838433          	add	s0,t2,s0
8000079c:	00e38023          	sb	a4,0(t2)
800007a0:	00138393          	addi	t2,t2,1
800007a4:	fe741ce3          	bne	s0,t2,8000079c <vsprintf+0x5a8>
800007a8:	00160613          	addi	a2,a2,1
800007ac:	00c78633          	add	a2,a5,a2
800007b0:	00c583b3          	add	t2,a1,a2
800007b4:	bf9ff06f          	j	800003ac <vsprintf+0x1b8>
800007b8:	00f036b3          	snez	a3,a5
800007bc:	40e00533          	neg	a0,a4
800007c0:	40d50733          	sub	a4,a0,a3
800007c4:	00100693          	li	a3,1
800007c8:	40f007b3          	neg	a5,a5
800007cc:	00d12c23          	sw	a3,24(sp)
800007d0:	ea1ff06f          	j	80000670 <vsprintf+0x47c>
800007d4:	fff40793          	addi	a5,s0,-1
800007d8:	03000713          	li	a4,48
800007dc:	00838433          	add	s0,t2,s0
800007e0:	00e38023          	sb	a4,0(t2)
800007e4:	00138393          	addi	t2,t2,1
800007e8:	fe839ce3          	bne	t2,s0,800007e0 <vsprintf+0x5ec>
800007ec:	00160613          	addi	a2,a2,1
800007f0:	00c78633          	add	a2,a5,a2
800007f4:	00c583b3          	add	t2,a1,a2
800007f8:	c19ff06f          	j	80000410 <vsprintf+0x21c>
800007fc:	01012783          	lw	a5,16(sp)
80000800:	03410693          	addi	a3,sp,52
80000804:	04070713          	addi	a4,a4,64
80000808:	00d70733          	add	a4,a4,a3
8000080c:	00278793          	addi	a5,a5,2
80000810:	02d00693          	li	a3,45
80000814:	fcd70023          	sb	a3,-64(a4)
80000818:	40f40433          	sub	s0,s0,a5
8000081c:	ca8054e3          	blez	s0,800004c4 <vsprintf+0x2d0>
80000820:	00c12703          	lw	a4,12(sp)
80000824:	ca0700e3          	beqz	a4,800004c4 <vsprintf+0x2d0>
80000828:	02d00793          	li	a5,45
8000082c:	00160613          	addi	a2,a2,1
80000830:	00f38023          	sb	a5,0(t2)
80000834:	00050793          	mv	a5,a0
80000838:	00c583b3          	add	t2,a1,a2
8000083c:	00158713          	addi	a4,a1,1
80000840:	00c70733          	add	a4,a4,a2
80000844:	00870733          	add	a4,a4,s0
80000848:	03000693          	li	a3,48
8000084c:	00d38023          	sb	a3,0(t2)
80000850:	00138393          	addi	t2,t2,1
80000854:	fe771ce3          	bne	a4,t2,8000084c <vsprintf+0x658>
80000858:	00160613          	addi	a2,a2,1
8000085c:	00c40633          	add	a2,s0,a2
80000860:	00c583b3          	add	t2,a1,a2
80000864:	c61ff06f          	j	800004c4 <vsprintf+0x2d0>
80000868:	00e12623          	sw	a4,12(sp)
8000086c:	00c12783          	lw	a5,12(sp)
80000870:	fff40413          	addi	s0,s0,-1
80000874:	fc9ff06f          	j	8000083c <vsprintf+0x648>

80000878 <printf>:
80000878:	fd810113          	addi	sp,sp,-40
8000087c:	fffff2b7          	lui	t0,0xfffff
80000880:	00112823          	sw	ra,16(sp)
80000884:	00912423          	sw	s1,8(sp)
80000888:	00812623          	sw	s0,12(sp)
8000088c:	00510133          	add	sp,sp,t0
80000890:	000012b7          	lui	t0,0x1
80000894:	fffff337          	lui	t1,0xfffff
80000898:	00428393          	addi	t2,t0,4 # 1004 <_entry_offset+0x1004>
8000089c:	006383b3          	add	t2,t2,t1
800008a0:	00410313          	addi	t1,sp,4
800008a4:	00410093          	addi	ra,sp,4
800008a8:	00638333          	add	t1,t2,t1
800008ac:	01028393          	addi	t2,t0,16
800008b0:	00612023          	sw	t1,0(sp)
800008b4:	001383b3          	add	t2,t2,ra
800008b8:	00b3a023          	sw	a1,0(t2)
800008bc:	01428593          	addi	a1,t0,20
800008c0:	001585b3          	add	a1,a1,ra
800008c4:	01828393          	addi	t2,t0,24
800008c8:	00c5a023          	sw	a2,0(a1)
800008cc:	001383b3          	add	t2,t2,ra
800008d0:	01428313          	addi	t1,t0,20
800008d4:	00050593          	mv	a1,a0
800008d8:	00012503          	lw	a0,0(sp)
800008dc:	00d3a023          	sw	a3,0(t2)
800008e0:	00028693          	mv	a3,t0
800008e4:	01c28293          	addi	t0,t0,28
800008e8:	001282b3          	add	t0,t0,ra
800008ec:	00e2a023          	sw	a4,0(t0)
800008f0:	02068713          	addi	a4,a3,32
800008f4:	00170733          	add	a4,a4,ra
800008f8:	00f72023          	sw	a5,0(a4)
800008fc:	00012783          	lw	a5,0(sp)
80000900:	00230333          	add	t1,t1,sp
80000904:	00030613          	mv	a2,t1
80000908:	fe67ae23          	sw	t1,-4(a5)
8000090c:	8e9ff0ef          	jal	800001f4 <vsprintf>
80000910:	00012783          	lw	a5,0(sp)
80000914:	00050493          	mv	s1,a0
80000918:	0007c503          	lbu	a0,0(a5)
8000091c:	00050c63          	beqz	a0,80000934 <printf+0xbc>
80000920:	00178413          	addi	s0,a5,1
80000924:	8a5ff0ef          	jal	800001c8 <putch>
80000928:	00044503          	lbu	a0,0(s0)
8000092c:	00140413          	addi	s0,s0,1
80000930:	fe051ae3          	bnez	a0,80000924 <printf+0xac>
80000934:	000012b7          	lui	t0,0x1
80000938:	00510133          	add	sp,sp,t0
8000093c:	01012083          	lw	ra,16(sp)
80000940:	00048513          	mv	a0,s1
80000944:	00c12403          	lw	s0,12(sp)
80000948:	00812483          	lw	s1,8(sp)
8000094c:	02810113          	addi	sp,sp,40
80000950:	00008067          	ret

80000954 <__udivmoddi4>:
80000954:	fdc10113          	addi	sp,sp,-36
80000958:	00812e23          	sw	s0,28(sp)
8000095c:	02112023          	sw	ra,32(sp)
80000960:	00060413          	mv	s0,a2
80000964:	00050293          	mv	t0,a0
80000968:	00070613          	mv	a2,a4
8000096c:	04059663          	bnez	a1,800009b8 <__udivmoddi4+0x64>
80000970:	20069e63          	bnez	a3,80000b8c <__udivmoddi4+0x238>
80000974:	00e12023          	sw	a4,0(sp)
80000978:	02070063          	beqz	a4,80000998 <__udivmoddi4+0x44>
8000097c:	00040593          	mv	a1,s0
80000980:	00a12223          	sw	a0,4(sp)
80000984:	66c000ef          	jal	80000ff0 <__umodsi3>
80000988:	00012603          	lw	a2,0(sp)
8000098c:	00412283          	lw	t0,4(sp)
80000990:	00a62023          	sw	a0,0(a2)
80000994:	00062223          	sw	zero,4(a2)
80000998:	00040593          	mv	a1,s0
8000099c:	00028513          	mv	a0,t0
800009a0:	608000ef          	jal	80000fa8 <__hidden___udivsi3>
800009a4:	00000593          	li	a1,0
800009a8:	02012083          	lw	ra,32(sp)
800009ac:	01c12403          	lw	s0,28(sp)
800009b0:	02410113          	addi	sp,sp,36
800009b4:	00008067          	ret
800009b8:	00912c23          	sw	s1,24(sp)
800009bc:	00058313          	mv	t1,a1
800009c0:	00040493          	mv	s1,s0
800009c4:	08041a63          	bnez	s0,80000a58 <__udivmoddi4+0x104>
800009c8:	22068e63          	beqz	a3,80000c04 <__udivmoddi4+0x2b0>
800009cc:	2c050663          	beqz	a0,80000c98 <__udivmoddi4+0x344>
800009d0:	fff68793          	addi	a5,a3,-1
800009d4:	00d7f5b3          	and	a1,a5,a3
800009d8:	32058063          	beqz	a1,80000cf8 <__udivmoddi4+0x3a4>
800009dc:	00a12823          	sw	a0,16(sp)
800009e0:	00068513          	mv	a0,a3
800009e4:	00612a23          	sw	t1,20(sp)
800009e8:	00c12623          	sw	a2,12(sp)
800009ec:	00612023          	sw	t1,0(sp)
800009f0:	00d12423          	sw	a3,8(sp)
800009f4:	4a4000ef          	jal	80000e98 <__clzsi2>
800009f8:	00012703          	lw	a4,0(sp)
800009fc:	00050793          	mv	a5,a0
80000a00:	00f12023          	sw	a5,0(sp)
80000a04:	00070513          	mv	a0,a4
80000a08:	00e12223          	sw	a4,4(sp)
80000a0c:	48c000ef          	jal	80000e98 <__clzsi2>
80000a10:	00012783          	lw	a5,0(sp)
80000a14:	00412703          	lw	a4,4(sp)
80000a18:	00812683          	lw	a3,8(sp)
80000a1c:	40a78533          	sub	a0,a5,a0
80000a20:	01e00793          	li	a5,30
80000a24:	00c12603          	lw	a2,12(sp)
80000a28:	01012283          	lw	t0,16(sp)
80000a2c:	01412303          	lw	t1,20(sp)
80000a30:	1ca7ec63          	bltu	a5,a0,80000c08 <__udivmoddi4+0x2b4>
80000a34:	00150393          	addi	t2,a0,1
80000a38:	02000513          	li	a0,32
80000a3c:	40750533          	sub	a0,a0,t2
80000a40:	00a71333          	sll	t1,a4,a0
80000a44:	0072d5b3          	srl	a1,t0,t2
80000a48:	007757b3          	srl	a5,a4,t2
80000a4c:	00a29533          	sll	a0,t0,a0
80000a50:	00b36733          	or	a4,t1,a1
80000a54:	0800006f          	j	80000ad4 <__udivmoddi4+0x180>
80000a58:	14068663          	beqz	a3,80000ba4 <__udivmoddi4+0x250>
80000a5c:	00a12423          	sw	a0,8(sp)
80000a60:	00068513          	mv	a0,a3
80000a64:	00c12223          	sw	a2,4(sp)
80000a68:	00b12623          	sw	a1,12(sp)
80000a6c:	00b12023          	sw	a1,0(sp)
80000a70:	00d12823          	sw	a3,16(sp)
80000a74:	424000ef          	jal	80000e98 <__clzsi2>
80000a78:	00012703          	lw	a4,0(sp)
80000a7c:	00050493          	mv	s1,a0
80000a80:	00070513          	mv	a0,a4
80000a84:	414000ef          	jal	80000e98 <__clzsi2>
80000a88:	40a48533          	sub	a0,s1,a0
80000a8c:	01f00793          	li	a5,31
80000a90:	00412603          	lw	a2,4(sp)
80000a94:	00812283          	lw	t0,8(sp)
80000a98:	00c12303          	lw	t1,12(sp)
80000a9c:	16a7e663          	bltu	a5,a0,80000c08 <__udivmoddi4+0x2b4>
80000aa0:	00150393          	addi	t2,a0,1
80000aa4:	02000793          	li	a5,32
80000aa8:	00012703          	lw	a4,0(sp)
80000aac:	01012683          	lw	a3,16(sp)
80000ab0:	00028513          	mv	a0,t0
80000ab4:	26f38a63          	beq	t2,a5,80000d28 <__udivmoddi4+0x3d4>
80000ab8:	407785b3          	sub	a1,a5,t2
80000abc:	0072d333          	srl	t1,t0,t2
80000ac0:	00b712b3          	sll	t0,a4,a1
80000ac4:	007757b3          	srl	a5,a4,t2
80000ac8:	00b51533          	sll	a0,a0,a1
80000acc:	0062e733          	or	a4,t0,t1
80000ad0:	00000493          	li	s1,0
80000ad4:	00c12223          	sw	a2,4(sp)
80000ad8:	00068613          	mv	a2,a3
80000adc:	00012023          	sw	zero,0(sp)
80000ae0:	00078693          	mv	a3,a5
80000ae4:	00060793          	mv	a5,a2
80000ae8:	01f55593          	srli	a1,a0,0x1f
80000aec:	00171613          	slli	a2,a4,0x1
80000af0:	00b66633          	or	a2,a2,a1
80000af4:	01f75713          	srli	a4,a4,0x1f
80000af8:	00169693          	slli	a3,a3,0x1
80000afc:	00e6e6b3          	or	a3,a3,a4
80000b00:	40c40733          	sub	a4,s0,a2
80000b04:	40d78333          	sub	t1,a5,a3
80000b08:	00e435b3          	sltu	a1,s0,a4
80000b0c:	40b305b3          	sub	a1,t1,a1
80000b10:	00173713          	seqz	a4,a4
80000b14:	40e585b3          	sub	a1,a1,a4
80000b18:	41f5d313          	srai	t1,a1,0x1f
80000b1c:	00837733          	and	a4,t1,s0
80000b20:	00f37333          	and	t1,t1,a5
80000b24:	406686b3          	sub	a3,a3,t1
80000b28:	00012303          	lw	t1,0(sp)
80000b2c:	40e60733          	sub	a4,a2,a4
80000b30:	01f5d593          	srli	a1,a1,0x1f
80000b34:	01f4d293          	srli	t0,s1,0x1f
80000b38:	00151513          	slli	a0,a0,0x1
80000b3c:	00149493          	slli	s1,s1,0x1
80000b40:	00e63633          	sltu	a2,a2,a4
80000b44:	fff38393          	addi	t2,t2,-1
80000b48:	00b12023          	sw	a1,0(sp)
80000b4c:	0064e4b3          	or	s1,s1,t1
80000b50:	00556533          	or	a0,a0,t0
80000b54:	40c686b3          	sub	a3,a3,a2
80000b58:	f80398e3          	bnez	t2,80000ae8 <__udivmoddi4+0x194>
80000b5c:	00412603          	lw	a2,4(sp)
80000b60:	00060663          	beqz	a2,80000b6c <__udivmoddi4+0x218>
80000b64:	00e62023          	sw	a4,0(a2)
80000b68:	00d62223          	sw	a3,4(a2)
80000b6c:	00012703          	lw	a4,0(sp)
80000b70:	01f4d313          	srli	t1,s1,0x1f
80000b74:	00151793          	slli	a5,a0,0x1
80000b78:	00149513          	slli	a0,s1,0x1
80000b7c:	00e56533          	or	a0,a0,a4
80000b80:	01812483          	lw	s1,24(sp)
80000b84:	00f365b3          	or	a1,t1,a5
80000b88:	e21ff06f          	j	800009a8 <__udivmoddi4+0x54>
80000b8c:	00070663          	beqz	a4,80000b98 <__udivmoddi4+0x244>
80000b90:	00a62023          	sw	a0,0(a2)
80000b94:	00072223          	sw	zero,4(a4)
80000b98:	00000513          	li	a0,0
80000b9c:	00000593          	li	a1,0
80000ba0:	e09ff06f          	j	800009a8 <__udivmoddi4+0x54>
80000ba4:	fff40593          	addi	a1,s0,-1
80000ba8:	0085f533          	and	a0,a1,s0
80000bac:	06051863          	bnez	a0,80000c1c <__udivmoddi4+0x2c8>
80000bb0:	00060863          	beqz	a2,80000bc0 <__udivmoddi4+0x26c>
80000bb4:	0055f5b3          	and	a1,a1,t0
80000bb8:	00b62023          	sw	a1,0(a2)
80000bbc:	00062223          	sw	zero,4(a2)
80000bc0:	00100793          	li	a5,1
80000bc4:	10f40e63          	beq	s0,a5,80000ce0 <__udivmoddi4+0x38c>
80000bc8:	00040513          	mv	a0,s0
80000bcc:	00612223          	sw	t1,4(sp)
80000bd0:	00512023          	sw	t0,0(sp)
80000bd4:	354000ef          	jal	80000f28 <__ctzsi2>
80000bd8:	00412303          	lw	t1,4(sp)
80000bdc:	00012283          	lw	t0,0(sp)
80000be0:	02000713          	li	a4,32
80000be4:	40a70733          	sub	a4,a4,a0
80000be8:	00050793          	mv	a5,a0
80000bec:	00e31733          	sll	a4,t1,a4
80000bf0:	00a2d2b3          	srl	t0,t0,a0
80000bf4:	01812483          	lw	s1,24(sp)
80000bf8:	00576533          	or	a0,a4,t0
80000bfc:	00f355b3          	srl	a1,t1,a5
80000c00:	da9ff06f          	j	800009a8 <__udivmoddi4+0x54>
80000c04:	00100073          	ebreak
80000c08:	0e060463          	beqz	a2,80000cf0 <__udivmoddi4+0x39c>
80000c0c:	01812483          	lw	s1,24(sp)
80000c10:	00562023          	sw	t0,0(a2)
80000c14:	00662223          	sw	t1,4(a2)
80000c18:	f81ff06f          	j	80000b98 <__udivmoddi4+0x244>
80000c1c:	00040513          	mv	a0,s0
80000c20:	00d12823          	sw	a3,16(sp)
80000c24:	00512623          	sw	t0,12(sp)
80000c28:	00c12423          	sw	a2,8(sp)
80000c2c:	00612023          	sw	t1,0(sp)
80000c30:	00d12223          	sw	a3,4(sp)
80000c34:	264000ef          	jal	80000e98 <__clzsi2>
80000c38:	00012703          	lw	a4,0(sp)
80000c3c:	00050493          	mv	s1,a0
80000c40:	00070513          	mv	a0,a4
80000c44:	254000ef          	jal	80000e98 <__clzsi2>
80000c48:	00c12283          	lw	t0,12(sp)
80000c4c:	40a485b3          	sub	a1,s1,a0
80000c50:	02158393          	addi	t2,a1,33
80000c54:	02000313          	li	t1,32
80000c58:	00012703          	lw	a4,0(sp)
80000c5c:	00412783          	lw	a5,4(sp)
80000c60:	00812603          	lw	a2,8(sp)
80000c64:	01012683          	lw	a3,16(sp)
80000c68:	00028513          	mv	a0,t0
80000c6c:	00000493          	li	s1,0
80000c70:	e66382e3          	beq	t2,t1,80000ad4 <__udivmoddi4+0x180>
80000c74:	01f00293          	li	t0,31
80000c78:	0a72ee63          	bltu	t0,t2,80000d34 <__udivmoddi4+0x3e0>
80000c7c:	40730333          	sub	t1,t1,t2
80000c80:	007555b3          	srl	a1,a0,t2
80000c84:	007757b3          	srl	a5,a4,t2
80000c88:	00671733          	sll	a4,a4,t1
80000c8c:	00b76733          	or	a4,a4,a1
80000c90:	00651533          	sll	a0,a0,t1
80000c94:	e41ff06f          	j	80000ad4 <__udivmoddi4+0x180>
80000c98:	00c12023          	sw	a2,0(sp)
80000c9c:	02060663          	beqz	a2,80000cc8 <__udivmoddi4+0x374>
80000ca0:	00068593          	mv	a1,a3
80000ca4:	00030513          	mv	a0,t1
80000ca8:	00d12423          	sw	a3,8(sp)
80000cac:	00612223          	sw	t1,4(sp)
80000cb0:	340000ef          	jal	80000ff0 <__umodsi3>
80000cb4:	00012603          	lw	a2,0(sp)
80000cb8:	00812683          	lw	a3,8(sp)
80000cbc:	00412303          	lw	t1,4(sp)
80000cc0:	00062023          	sw	zero,0(a2)
80000cc4:	00a62223          	sw	a0,4(a2)
80000cc8:	00068593          	mv	a1,a3
80000ccc:	00030513          	mv	a0,t1
80000cd0:	2d8000ef          	jal	80000fa8 <__hidden___udivsi3>
80000cd4:	00000593          	li	a1,0
80000cd8:	01812483          	lw	s1,24(sp)
80000cdc:	ccdff06f          	j	800009a8 <__udivmoddi4+0x54>
80000ce0:	01812483          	lw	s1,24(sp)
80000ce4:	00028513          	mv	a0,t0
80000ce8:	00030593          	mv	a1,t1
80000cec:	cbdff06f          	j	800009a8 <__udivmoddi4+0x54>
80000cf0:	01812483          	lw	s1,24(sp)
80000cf4:	ea5ff06f          	j	80000b98 <__udivmoddi4+0x244>
80000cf8:	00060863          	beqz	a2,80000d08 <__udivmoddi4+0x3b4>
80000cfc:	0067f7b3          	and	a5,a5,t1
80000d00:	00a62023          	sw	a0,0(a2)
80000d04:	00f62223          	sw	a5,4(a2)
80000d08:	00068513          	mv	a0,a3
80000d0c:	00612023          	sw	t1,0(sp)
80000d10:	218000ef          	jal	80000f28 <__ctzsi2>
80000d14:	00012303          	lw	t1,0(sp)
80000d18:	01812483          	lw	s1,24(sp)
80000d1c:	00000593          	li	a1,0
80000d20:	00a35533          	srl	a0,t1,a0
80000d24:	c85ff06f          	j	800009a8 <__udivmoddi4+0x54>
80000d28:	00000793          	li	a5,0
80000d2c:	00000493          	li	s1,0
80000d30:	da5ff06f          	j	80000ad4 <__udivmoddi4+0x180>
80000d34:	04000493          	li	s1,64
80000d38:	407484b3          	sub	s1,s1,t2
80000d3c:	00158593          	addi	a1,a1,1
80000d40:	009712b3          	sll	t0,a4,s1
80000d44:	00b55333          	srl	t1,a0,a1
80000d48:	009514b3          	sll	s1,a0,s1
80000d4c:	00b75733          	srl	a4,a4,a1
80000d50:	0062e533          	or	a0,t0,t1
80000d54:	d81ff06f          	j	80000ad4 <__udivmoddi4+0x180>

80000d58 <__divdi3>:
80000d58:	41f5d313          	srai	t1,a1,0x1f
80000d5c:	41f6d793          	srai	a5,a3,0x1f
80000d60:	006542b3          	xor	t0,a0,t1
80000d64:	00f643b3          	xor	t2,a2,a5
80000d68:	40f38633          	sub	a2,t2,a5
80000d6c:	40628533          	sub	a0,t0,t1
80000d70:	0065c5b3          	xor	a1,a1,t1
80000d74:	00f6c6b3          	xor	a3,a3,a5
80000d78:	00c3b3b3          	sltu	t2,t2,a2
80000d7c:	40f686b3          	sub	a3,a3,a5
80000d80:	00a2b2b3          	sltu	t0,t0,a0
80000d84:	406585b3          	sub	a1,a1,t1
80000d88:	ff410113          	addi	sp,sp,-12
80000d8c:	00000713          	li	a4,0
80000d90:	407686b3          	sub	a3,a3,t2
80000d94:	405585b3          	sub	a1,a1,t0
80000d98:	00812223          	sw	s0,4(sp)
80000d9c:	00112423          	sw	ra,8(sp)
80000da0:	00f34433          	xor	s0,t1,a5
80000da4:	bb1ff0ef          	jal	80000954 <__udivmoddi4>
80000da8:	00854733          	xor	a4,a0,s0
80000dac:	0085c5b3          	xor	a1,a1,s0
80000db0:	40870533          	sub	a0,a4,s0
80000db4:	00812083          	lw	ra,8(sp)
80000db8:	408585b3          	sub	a1,a1,s0
80000dbc:	00412403          	lw	s0,4(sp)
80000dc0:	00a73733          	sltu	a4,a4,a0
80000dc4:	40e585b3          	sub	a1,a1,a4
80000dc8:	00c10113          	addi	sp,sp,12
80000dcc:	00008067          	ret

80000dd0 <__moddi3>:
80000dd0:	fe810113          	addi	sp,sp,-24
80000dd4:	00812823          	sw	s0,16(sp)
80000dd8:	41f6d313          	srai	t1,a3,0x1f
80000ddc:	41f5d413          	srai	s0,a1,0x1f
80000de0:	00854733          	xor	a4,a0,s0
80000de4:	006647b3          	xor	a5,a2,t1
80000de8:	00912623          	sw	s1,12(sp)
80000dec:	40870533          	sub	a0,a4,s0
80000df0:	40678633          	sub	a2,a5,t1
80000df4:	0066c6b3          	xor	a3,a3,t1
80000df8:	0085c5b3          	xor	a1,a1,s0
80000dfc:	00710493          	addi	s1,sp,7
80000e00:	ff84f493          	andi	s1,s1,-8
80000e04:	00c7b7b3          	sltu	a5,a5,a2
80000e08:	406686b3          	sub	a3,a3,t1
80000e0c:	408585b3          	sub	a1,a1,s0
80000e10:	00a73333          	sltu	t1,a4,a0
80000e14:	40f686b3          	sub	a3,a3,a5
80000e18:	00048713          	mv	a4,s1
80000e1c:	406585b3          	sub	a1,a1,t1
80000e20:	00112a23          	sw	ra,20(sp)
80000e24:	b31ff0ef          	jal	80000954 <__udivmoddi4>
80000e28:	0004a783          	lw	a5,0(s1)
80000e2c:	0044a583          	lw	a1,4(s1)
80000e30:	01412083          	lw	ra,20(sp)
80000e34:	0087c7b3          	xor	a5,a5,s0
80000e38:	0085c5b3          	xor	a1,a1,s0
80000e3c:	40878533          	sub	a0,a5,s0
80000e40:	408585b3          	sub	a1,a1,s0
80000e44:	01012403          	lw	s0,16(sp)
80000e48:	00a7b7b3          	sltu	a5,a5,a0
80000e4c:	00c12483          	lw	s1,12(sp)
80000e50:	40f585b3          	sub	a1,a1,a5
80000e54:	01810113          	addi	sp,sp,24
80000e58:	00008067          	ret

80000e5c <__udivdi3>:
80000e5c:	00000713          	li	a4,0
80000e60:	af5ff06f          	j	80000954 <__udivmoddi4>

80000e64 <__umoddi3>:
80000e64:	fe810113          	addi	sp,sp,-24
80000e68:	00812823          	sw	s0,16(sp)
80000e6c:	00710413          	addi	s0,sp,7
80000e70:	ff847413          	andi	s0,s0,-8
80000e74:	00040713          	mv	a4,s0
80000e78:	00112a23          	sw	ra,20(sp)
80000e7c:	ad9ff0ef          	jal	80000954 <__udivmoddi4>
80000e80:	00042503          	lw	a0,0(s0)
80000e84:	00442583          	lw	a1,4(s0)
80000e88:	01412083          	lw	ra,20(sp)
80000e8c:	01012403          	lw	s0,16(sp)
80000e90:	01810113          	addi	sp,sp,24
80000e94:	00008067          	ret

80000e98 <__clzsi2>:
80000e98:	000105b7          	lui	a1,0x10
80000e9c:	00b535b3          	sltu	a1,a0,a1
80000ea0:	00459593          	slli	a1,a1,0x4
80000ea4:	01000793          	li	a5,16
80000ea8:	40b787b3          	sub	a5,a5,a1
80000eac:	00010737          	lui	a4,0x10
80000eb0:	00f557b3          	srl	a5,a0,a5
80000eb4:	f0070713          	addi	a4,a4,-256 # ff00 <_entry_offset+0xff00>
80000eb8:	00e7f733          	and	a4,a5,a4
80000ebc:	00173713          	seqz	a4,a4
80000ec0:	00371713          	slli	a4,a4,0x3
80000ec4:	00800693          	li	a3,8
80000ec8:	40e686b3          	sub	a3,a3,a4
80000ecc:	00d7d7b3          	srl	a5,a5,a3
80000ed0:	0f07f693          	andi	a3,a5,240
80000ed4:	0016b693          	seqz	a3,a3
80000ed8:	00269693          	slli	a3,a3,0x2
80000edc:	00400613          	li	a2,4
80000ee0:	40d60633          	sub	a2,a2,a3
80000ee4:	00c7d7b3          	srl	a5,a5,a2
80000ee8:	00c7f613          	andi	a2,a5,12
80000eec:	00163613          	seqz	a2,a2
80000ef0:	00200513          	li	a0,2
80000ef4:	00161613          	slli	a2,a2,0x1
80000ef8:	40c50333          	sub	t1,a0,a2
80000efc:	0067d7b3          	srl	a5,a5,t1
80000f00:	0017d313          	srli	t1,a5,0x1
80000f04:	00b70733          	add	a4,a4,a1
80000f08:	00137593          	andi	a1,t1,1
80000f0c:	00e686b3          	add	a3,a3,a4
80000f10:	40f50533          	sub	a0,a0,a5
80000f14:	00058463          	beqz	a1,80000f1c <__clzsi2+0x84>
80000f18:	00000513          	li	a0,0
80000f1c:	00d606b3          	add	a3,a2,a3
80000f20:	00d50533          	add	a0,a0,a3
80000f24:	00008067          	ret

80000f28 <__ctzsi2>:
80000f28:	01051593          	slli	a1,a0,0x10
80000f2c:	0105d593          	srli	a1,a1,0x10
80000f30:	0015b593          	seqz	a1,a1
80000f34:	00459593          	slli	a1,a1,0x4
80000f38:	00b557b3          	srl	a5,a0,a1
80000f3c:	0ff7f613          	zext.b	a2,a5
80000f40:	00163613          	seqz	a2,a2
80000f44:	00361613          	slli	a2,a2,0x3
80000f48:	00c7d7b3          	srl	a5,a5,a2
80000f4c:	00f7f693          	andi	a3,a5,15
80000f50:	0016b693          	seqz	a3,a3
80000f54:	00269693          	slli	a3,a3,0x2
80000f58:	00d7d7b3          	srl	a5,a5,a3
80000f5c:	0037f713          	andi	a4,a5,3
80000f60:	00173713          	seqz	a4,a4
80000f64:	00171713          	slli	a4,a4,0x1
80000f68:	00e7d7b3          	srl	a5,a5,a4
80000f6c:	0017d513          	srli	a0,a5,0x1
80000f70:	fff7c793          	not	a5,a5
80000f74:	00b60633          	add	a2,a2,a1
80000f78:	0017f793          	andi	a5,a5,1
80000f7c:	00157593          	andi	a1,a0,1
80000f80:	00200513          	li	a0,2
80000f84:	40b50533          	sub	a0,a0,a1
80000f88:	00c686b3          	add	a3,a3,a2
80000f8c:	40f007b3          	neg	a5,a5
80000f90:	00f577b3          	and	a5,a0,a5
80000f94:	00d70533          	add	a0,a4,a3
80000f98:	00a78533          	add	a0,a5,a0
80000f9c:	00008067          	ret

80000fa0 <__divsi3>:
80000fa0:	06054063          	bltz	a0,80001000 <__umodsi3+0x10>
80000fa4:	0605c663          	bltz	a1,80001010 <__umodsi3+0x20>

80000fa8 <__hidden___udivsi3>:
80000fa8:	00058613          	mv	a2,a1
80000fac:	00050593          	mv	a1,a0
80000fb0:	fff00513          	li	a0,-1
80000fb4:	02060c63          	beqz	a2,80000fec <__hidden___udivsi3+0x44>
80000fb8:	00100693          	li	a3,1
80000fbc:	00b67a63          	bgeu	a2,a1,80000fd0 <__hidden___udivsi3+0x28>
80000fc0:	00c05863          	blez	a2,80000fd0 <__hidden___udivsi3+0x28>
80000fc4:	00161613          	slli	a2,a2,0x1
80000fc8:	00169693          	slli	a3,a3,0x1
80000fcc:	feb66ae3          	bltu	a2,a1,80000fc0 <__hidden___udivsi3+0x18>
80000fd0:	00000513          	li	a0,0
80000fd4:	00c5e663          	bltu	a1,a2,80000fe0 <__hidden___udivsi3+0x38>
80000fd8:	40c585b3          	sub	a1,a1,a2
80000fdc:	00d56533          	or	a0,a0,a3
80000fe0:	0016d693          	srli	a3,a3,0x1
80000fe4:	00165613          	srli	a2,a2,0x1
80000fe8:	fe0696e3          	bnez	a3,80000fd4 <__hidden___udivsi3+0x2c>
80000fec:	00008067          	ret

80000ff0 <__umodsi3>:
80000ff0:	00008293          	mv	t0,ra
80000ff4:	fb5ff0ef          	jal	80000fa8 <__hidden___udivsi3>
80000ff8:	00058513          	mv	a0,a1
80000ffc:	00028067          	jr	t0 # 1000 <_entry_offset+0x1000>
80001000:	40a00533          	neg	a0,a0
80001004:	00b04863          	bgtz	a1,80001014 <__umodsi3+0x24>
80001008:	40b005b3          	neg	a1,a1
8000100c:	f9dff06f          	j	80000fa8 <__hidden___udivsi3>
80001010:	40b005b3          	neg	a1,a1
80001014:	00008293          	mv	t0,ra
80001018:	f91ff0ef          	jal	80000fa8 <__hidden___udivsi3>
8000101c:	40a00533          	neg	a0,a0
80001020:	00028067          	jr	t0

80001024 <__modsi3>:
80001024:	00008293          	mv	t0,ra
80001028:	0005ca63          	bltz	a1,8000103c <__modsi3+0x18>
8000102c:	00054c63          	bltz	a0,80001044 <__modsi3+0x20>
80001030:	f79ff0ef          	jal	80000fa8 <__hidden___udivsi3>
80001034:	00058513          	mv	a0,a1
80001038:	00028067          	jr	t0
8000103c:	40b005b3          	neg	a1,a1
80001040:	fe0558e3          	bgez	a0,80001030 <__modsi3+0xc>
80001044:	40a00533          	neg	a0,a0
80001048:	f61ff0ef          	jal	80000fa8 <__hidden___udivsi3>
8000104c:	40b00533          	neg	a0,a1
80001050:	00028067          	jr	t0
