
/home/jinghanhui/ysyx-workbench/am-kernels/tests/cpu-tests/build/goldbach-riscv32e-npc.elf:     file format elf32-littleriscv


Disassembly of section .text:

80000000 <_start>:
80000000:	00000413          	li	s0,0
80000004:	00009117          	auipc	sp,0x9
80000008:	ffc10113          	addi	sp,sp,-4 # 80009000 <_end>
8000000c:	18c000ef          	jal	80000198 <_trm_init>

80000010 <check>:
80000010:	00050463          	beqz	a0,80000018 <check+0x8>
80000014:	00008067          	ret
80000018:	ff410113          	addi	sp,sp,-12
8000001c:	00100513          	li	a0,1
80000020:	00112423          	sw	ra,8(sp)
80000024:	168000ef          	jal	8000018c <halt>

80000028 <goldbach>:
80000028:	fe810113          	addi	sp,sp,-24
8000002c:	00112a23          	sw	ra,20(sp)
80000030:	00a12423          	sw	a0,8(sp)
80000034:	00200793          	li	a5,2
80000038:	10a7d063          	bge	a5,a0,80000138 <goldbach+0x110>
8000003c:	ffe50793          	addi	a5,a0,-2
80000040:	00078713          	mv	a4,a5
80000044:	00f12223          	sw	a5,4(sp)
80000048:	00012023          	sw	zero,0(sp)
8000004c:	00100793          	li	a5,1
80000050:	04f70a63          	beq	a4,a5,800000a4 <goldbach+0x7c>
80000054:	00812823          	sw	s0,16(sp)
80000058:	00912623          	sw	s1,12(sp)
8000005c:	00200413          	li	s0,2
80000060:	00412783          	lw	a5,4(sp)
80000064:	00200713          	li	a4,2
80000068:	0ce78263          	beq	a5,a4,8000012c <goldbach+0x104>
8000006c:	0017f793          	andi	a5,a5,1
80000070:	00f12023          	sw	a5,0(sp)
80000074:	00200493          	li	s1,2
80000078:	00079863          	bnez	a5,80000088 <goldbach+0x60>
8000007c:	0440006f          	j	800000c0 <goldbach+0x98>
80000080:	1bc000ef          	jal	8000023c <__modsi3>
80000084:	02050e63          	beqz	a0,800000c0 <goldbach+0x98>
80000088:	00412783          	lw	a5,4(sp)
8000008c:	00148493          	addi	s1,s1,1
80000090:	00048593          	mv	a1,s1
80000094:	00078513          	mv	a0,a5
80000098:	fef494e3          	bne	s1,a5,80000080 <goldbach+0x58>
8000009c:	01012403          	lw	s0,16(sp)
800000a0:	00c12483          	lw	s1,12(sp)
800000a4:	01412083          	lw	ra,20(sp)
800000a8:	00012503          	lw	a0,0(sp)
800000ac:	01810113          	addi	sp,sp,24
800000b0:	00008067          	ret
800000b4:	00412783          	lw	a5,4(sp)
800000b8:	00100713          	li	a4,1
800000bc:	fae792e3          	bne	a5,a4,80000060 <goldbach+0x38>
800000c0:	00412783          	lw	a5,4(sp)
800000c4:	00812023          	sw	s0,0(sp)
800000c8:	00140413          	addi	s0,s0,1
800000cc:	fff78793          	addi	a5,a5,-1
800000d0:	00f12223          	sw	a5,4(sp)
800000d4:	00812783          	lw	a5,8(sp)
800000d8:	02878c63          	beq	a5,s0,80000110 <goldbach+0xe8>
800000dc:	00147793          	andi	a5,s0,1
800000e0:	fe0780e3          	beqz	a5,800000c0 <goldbach+0x98>
800000e4:	00200493          	li	s1,2
800000e8:	00c0006f          	j	800000f4 <goldbach+0xcc>
800000ec:	150000ef          	jal	8000023c <__modsi3>
800000f0:	fc0508e3          	beqz	a0,800000c0 <goldbach+0x98>
800000f4:	00012783          	lw	a5,0(sp)
800000f8:	00048713          	mv	a4,s1
800000fc:	00148493          	addi	s1,s1,1
80000100:	00040513          	mv	a0,s0
80000104:	00048593          	mv	a1,s1
80000108:	fef712e3          	bne	a4,a5,800000ec <goldbach+0xc4>
8000010c:	fa9ff06f          	j	800000b4 <goldbach+0x8c>
80000110:	01012403          	lw	s0,16(sp)
80000114:	01412083          	lw	ra,20(sp)
80000118:	00012023          	sw	zero,0(sp)
8000011c:	00012503          	lw	a0,0(sp)
80000120:	00c12483          	lw	s1,12(sp)
80000124:	01810113          	addi	sp,sp,24
80000128:	00008067          	ret
8000012c:	00100793          	li	a5,1
80000130:	00f12023          	sw	a5,0(sp)
80000134:	f69ff06f          	j	8000009c <goldbach+0x74>
80000138:	00012023          	sw	zero,0(sp)
8000013c:	f69ff06f          	j	800000a4 <goldbach+0x7c>

80000140 <main>:
80000140:	ff410113          	addi	sp,sp,-12
80000144:	00812223          	sw	s0,4(sp)
80000148:	00912023          	sw	s1,0(sp)
8000014c:	00112423          	sw	ra,8(sp)
80000150:	00400413          	li	s0,4
80000154:	02000493          	li	s1,32
80000158:	00040513          	mv	a0,s0
8000015c:	ecdff0ef          	jal	80000028 <goldbach>
80000160:	fff50513          	addi	a0,a0,-1
80000164:	00153513          	seqz	a0,a0
80000168:	00240413          	addi	s0,s0,2
8000016c:	ea5ff0ef          	jal	80000010 <check>
80000170:	fe9414e3          	bne	s0,s1,80000158 <main+0x18>
80000174:	00812083          	lw	ra,8(sp)
80000178:	00412403          	lw	s0,4(sp)
8000017c:	00012483          	lw	s1,0(sp)
80000180:	00000513          	li	a0,0
80000184:	00c10113          	addi	sp,sp,12
80000188:	00008067          	ret

8000018c <halt>:
8000018c:	00050513          	mv	a0,a0
80000190:	00100073          	ebreak
80000194:	0000006f          	j	80000194 <halt+0x8>

80000198 <_trm_init>:
80000198:	ff410113          	addi	sp,sp,-12
8000019c:	00000517          	auipc	a0,0x0
800001a0:	0d050513          	addi	a0,a0,208 # 8000026c <_etext>
800001a4:	00112423          	sw	ra,8(sp)
800001a8:	f99ff0ef          	jal	80000140 <main>
800001ac:	00050513          	mv	a0,a0
800001b0:	00100073          	ebreak
800001b4:	0000006f          	j	800001b4 <_trm_init+0x1c>

800001b8 <__divsi3>:
800001b8:	06054063          	bltz	a0,80000218 <__umodsi3+0x10>
800001bc:	0605c663          	bltz	a1,80000228 <__umodsi3+0x20>

800001c0 <__hidden___udivsi3>:
800001c0:	00058613          	mv	a2,a1
800001c4:	00050593          	mv	a1,a0
800001c8:	fff00513          	li	a0,-1
800001cc:	02060c63          	beqz	a2,80000204 <__hidden___udivsi3+0x44>
800001d0:	00100693          	li	a3,1
800001d4:	00b67a63          	bgeu	a2,a1,800001e8 <__hidden___udivsi3+0x28>
800001d8:	00c05863          	blez	a2,800001e8 <__hidden___udivsi3+0x28>
800001dc:	00161613          	slli	a2,a2,0x1
800001e0:	00169693          	slli	a3,a3,0x1
800001e4:	feb66ae3          	bltu	a2,a1,800001d8 <__hidden___udivsi3+0x18>
800001e8:	00000513          	li	a0,0
800001ec:	00c5e663          	bltu	a1,a2,800001f8 <__hidden___udivsi3+0x38>
800001f0:	40c585b3          	sub	a1,a1,a2
800001f4:	00d56533          	or	a0,a0,a3
800001f8:	0016d693          	srli	a3,a3,0x1
800001fc:	00165613          	srli	a2,a2,0x1
80000200:	fe0696e3          	bnez	a3,800001ec <__hidden___udivsi3+0x2c>
80000204:	00008067          	ret

80000208 <__umodsi3>:
80000208:	00008293          	mv	t0,ra
8000020c:	fb5ff0ef          	jal	800001c0 <__hidden___udivsi3>
80000210:	00058513          	mv	a0,a1
80000214:	00028067          	jr	t0
80000218:	40a00533          	neg	a0,a0
8000021c:	00b04863          	bgtz	a1,8000022c <__umodsi3+0x24>
80000220:	40b005b3          	neg	a1,a1
80000224:	f9dff06f          	j	800001c0 <__hidden___udivsi3>
80000228:	40b005b3          	neg	a1,a1
8000022c:	00008293          	mv	t0,ra
80000230:	f91ff0ef          	jal	800001c0 <__hidden___udivsi3>
80000234:	40a00533          	neg	a0,a0
80000238:	00028067          	jr	t0

8000023c <__modsi3>:
8000023c:	00008293          	mv	t0,ra
80000240:	0005ca63          	bltz	a1,80000254 <__modsi3+0x18>
80000244:	00054c63          	bltz	a0,8000025c <__modsi3+0x20>
80000248:	f79ff0ef          	jal	800001c0 <__hidden___udivsi3>
8000024c:	00058513          	mv	a0,a1
80000250:	00028067          	jr	t0
80000254:	40b005b3          	neg	a1,a1
80000258:	fe0558e3          	bgez	a0,80000248 <__modsi3+0xc>
8000025c:	40a00533          	neg	a0,a0
80000260:	f61ff0ef          	jal	800001c0 <__hidden___udivsi3>
80000264:	40b00533          	neg	a0,a1
80000268:	00028067          	jr	t0
