
/home/jinghanhui/ysyx-workbench/am-kernels/tests/cpu-tests/build/matrix-mul-riscv32e-npc.elf:     file format elf32-littleriscv


Disassembly of section .text:

80000000 <_start>:
80000000:	00000413          	li	s0,0
80000004:	00009117          	auipc	sp,0x9
80000008:	ffc10113          	addi	sp,sp,-4 # 80009000 <_end>
8000000c:	128000ef          	jal	80000134 <_trm_init>

80000010 <check>:
80000010:	00050463          	beqz	a0,80000018 <check+0x8>
80000014:	00008067          	ret
80000018:	ff410113          	addi	sp,sp,-12
8000001c:	00100513          	li	a0,1
80000020:	00112423          	sw	ra,8(sp)
80000024:	104000ef          	jal	80000128 <halt>

80000028 <main>:
80000028:	fe410113          	addi	sp,sp,-28
8000002c:	00112c23          	sw	ra,24(sp)
80000030:	00812a23          	sw	s0,20(sp)
80000034:	00912823          	sw	s1,16(sp)
80000038:	00000693          	li	a3,0
8000003c:	00000717          	auipc	a4,0x0
80000040:	46070713          	addi	a4,a4,1120 # 8000049c <a>
80000044:	00068613          	mv	a2,a3
80000048:	00d12623          	sw	a3,12(sp)
8000004c:	00c12683          	lw	a3,12(sp)
80000050:	00000797          	auipc	a5,0x0
80000054:	44c78793          	addi	a5,a5,1100 # 8000049c <a>
80000058:	e7070413          	addi	s0,a4,-400
8000005c:	00d787b3          	add	a5,a5,a3
80000060:	00000493          	li	s1,0
80000064:	00e12223          	sw	a4,4(sp)
80000068:	00c12423          	sw	a2,8(sp)
8000006c:	00042583          	lw	a1,0(s0)
80000070:	0007a503          	lw	a0,0(a5)
80000074:	00f12023          	sw	a5,0(sp)
80000078:	02840413          	addi	s0,s0,40
8000007c:	0d8000ef          	jal	80000154 <__mulsi3>
80000080:	00012783          	lw	a5,0(sp)
80000084:	00412703          	lw	a4,4(sp)
80000088:	00a484b3          	add	s1,s1,a0
8000008c:	00478793          	addi	a5,a5,4
80000090:	fce41ee3          	bne	s0,a4,8000006c <main+0x44>
80000094:	00812603          	lw	a2,8(sp)
80000098:	00000797          	auipc	a5,0x0
8000009c:	0e478793          	addi	a5,a5,228 # 8000017c <ans>
800000a0:	00c787b3          	add	a5,a5,a2
800000a4:	0007a503          	lw	a0,0(a5)
800000a8:	00000797          	auipc	a5,0x0
800000ac:	58478793          	addi	a5,a5,1412 # 8000062c <c>
800000b0:	00c787b3          	add	a5,a5,a2
800000b4:	40950533          	sub	a0,a0,s1
800000b8:	0097a023          	sw	s1,0(a5)
800000bc:	00153513          	seqz	a0,a0
800000c0:	00c12023          	sw	a2,0(sp)
800000c4:	f4dff0ef          	jal	80000010 <check>
800000c8:	00100513          	li	a0,1
800000cc:	f45ff0ef          	jal	80000010 <check>
800000d0:	00012603          	lw	a2,0(sp)
800000d4:	00440713          	addi	a4,s0,4
800000d8:	00000797          	auipc	a5,0x0
800000dc:	3ec78793          	addi	a5,a5,1004 # 800004c4 <a+0x28>
800000e0:	00460613          	addi	a2,a2,4
800000e4:	f6e794e3          	bne	a5,a4,8000004c <main+0x24>
800000e8:	00c12683          	lw	a3,12(sp)
800000ec:	00100513          	li	a0,1
800000f0:	00d12023          	sw	a3,0(sp)
800000f4:	f1dff0ef          	jal	80000010 <check>
800000f8:	00012683          	lw	a3,0(sp)
800000fc:	19000793          	li	a5,400
80000100:	02868693          	addi	a3,a3,40
80000104:	f2f69ce3          	bne	a3,a5,8000003c <main+0x14>
80000108:	00100513          	li	a0,1
8000010c:	f05ff0ef          	jal	80000010 <check>
80000110:	01812083          	lw	ra,24(sp)
80000114:	01412403          	lw	s0,20(sp)
80000118:	01012483          	lw	s1,16(sp)
8000011c:	00000513          	li	a0,0
80000120:	01c10113          	addi	sp,sp,28
80000124:	00008067          	ret

80000128 <halt>:
80000128:	00050513          	mv	a0,a0
8000012c:	00100073          	ebreak
80000130:	0000006f          	j	80000130 <halt+0x8>

80000134 <_trm_init>:
80000134:	ff410113          	addi	sp,sp,-12
80000138:	00000517          	auipc	a0,0x0
8000013c:	04050513          	addi	a0,a0,64 # 80000178 <_etext>
80000140:	00112423          	sw	ra,8(sp)
80000144:	ee5ff0ef          	jal	80000028 <main>
80000148:	00050513          	mv	a0,a0
8000014c:	00100073          	ebreak
80000150:	0000006f          	j	80000150 <_trm_init+0x1c>

80000154 <__mulsi3>:
80000154:	00050613          	mv	a2,a0
80000158:	00000513          	li	a0,0
8000015c:	0015f693          	andi	a3,a1,1
80000160:	00068463          	beqz	a3,80000168 <__mulsi3+0x14>
80000164:	00c50533          	add	a0,a0,a2
80000168:	0015d593          	srli	a1,a1,0x1
8000016c:	00161613          	slli	a2,a2,0x1
80000170:	fe0596e3          	bnez	a1,8000015c <__mulsi3+0x8>
80000174:	00008067          	ret
