
/home/jinghanhui/ysyx-workbench/am-kernels/tests/cpu-tests/build/mersenne-riscv32-nemu.elf:     file format elf32-littleriscv


Disassembly of section .text:

80000000 <_start>:
80000000:	00000413          	li	s0,0
80000004:	00009117          	auipc	sp,0x9
80000008:	ffc10113          	addi	sp,sp,-4 # 80009000 <_end>
8000000c:	148000ef          	jal	80000154 <_trm_init>

80000010 <check>:
80000010:	00050463          	beqz	a0,80000018 <check+0x8>
80000014:	00008067          	ret
80000018:	ff010113          	addi	sp,sp,-16
8000001c:	00100513          	li	a0,1
80000020:	00112623          	sw	ra,12(sp)
80000024:	124000ef          	jal	80000148 <halt>

80000028 <main>:
80000028:	fe010113          	addi	sp,sp,-32
8000002c:	00112e23          	sw	ra,28(sp)
80000030:	00812c23          	sw	s0,24(sp)
80000034:	00500793          	li	a5,5
80000038:	3a100693          	li	a3,929
8000003c:	00878713          	addi	a4,a5,8
80000040:	00678793          	addi	a5,a5,6
80000044:	02f78633          	mul	a2,a5,a5
80000048:	02c6c463          	blt	a3,a2,80000070 <main+0x48>
8000004c:	00d78663          	beq	a5,a3,80000058 <main+0x30>
80000050:	02e6e733          	rem	a4,a3,a4
80000054:	fe0714e3          	bnez	a4,8000003c <main+0x14>
80000058:	00100413          	li	s0,1
8000005c:	01c12083          	lw	ra,28(sp)
80000060:	00040513          	mv	a0,s0
80000064:	01812403          	lw	s0,24(sp)
80000068:	02010113          	addi	sp,sp,32
8000006c:	00008067          	ret
80000070:	01312623          	sw	s3,12(sp)
80000074:	00912a23          	sw	s1,20(sp)
80000078:	01212823          	sw	s2,16(sp)
8000007c:	01412423          	sw	s4,8(sp)
80000080:	01512223          	sw	s5,4(sp)
80000084:	01600793          	li	a5,22
80000088:	3a100993          	li	s3,929
8000008c:	fff78793          	addi	a5,a5,-1
80000090:	00199993          	slli	s3,s3,0x1
80000094:	fe079ce3          	bnez	a5,8000008c <main+0x64>
80000098:	74300493          	li	s1,1859
8000009c:	00000913          	li	s2,0
800000a0:	00100a93          	li	s5,1
800000a4:	00048a13          	mv	s4,s1
800000a8:	00098413          	mv	s0,s3
800000ac:	00100793          	li	a5,1
800000b0:	02f795b3          	mulh	a1,a5,a5
800000b4:	00048613          	mv	a2,s1
800000b8:	00090693          	mv	a3,s2
800000bc:	02f78533          	mul	a0,a5,a5
800000c0:	41c000ef          	jal	800004dc <__moddi3>
800000c4:	00050793          	mv	a5,a0
800000c8:	02044663          	bltz	s0,800000f4 <main+0xcc>
800000cc:	00a4d463          	bge	s1,a0,800000d4 <main+0xac>
800000d0:	409507b3          	sub	a5,a0,s1
800000d4:	02f795b3          	mulh	a1,a5,a5
800000d8:	00048613          	mv	a2,s1
800000dc:	00090693          	mv	a3,s2
800000e0:	00141413          	slli	s0,s0,0x1
800000e4:	02f78533          	mul	a0,a5,a5
800000e8:	3f4000ef          	jal	800004dc <__moddi3>
800000ec:	00050793          	mv	a5,a0
800000f0:	fc045ee3          	bgez	s0,800000cc <main+0xa4>
800000f4:	00151793          	slli	a5,a0,0x1
800000f8:	00141413          	slli	s0,s0,0x1
800000fc:	00f4d463          	bge	s1,a5,80000104 <main+0xdc>
80000100:	409787b3          	sub	a5,a5,s1
80000104:	fa0416e3          	bnez	s0,800000b0 <main+0x88>
80000108:	74248713          	addi	a4,s1,1858
8000010c:	009734b3          	sltu	s1,a4,s1
80000110:	01248933          	add	s2,s1,s2
80000114:	00070493          	mv	s1,a4
80000118:	f95796e3          	bne	a5,s5,800000a4 <main+0x7c>
8000011c:	ffffd7b7          	lui	a5,0xffffd
80000120:	d3178793          	addi	a5,a5,-719 # ffffcd31 <_end+0x7fff3d31>
80000124:	00fa0533          	add	a0,s4,a5
80000128:	00153513          	seqz	a0,a0
8000012c:	ee5ff0ef          	jal	80000010 <check>
80000130:	01412483          	lw	s1,20(sp)
80000134:	01012903          	lw	s2,16(sp)
80000138:	00c12983          	lw	s3,12(sp)
8000013c:	00812a03          	lw	s4,8(sp)
80000140:	00412a83          	lw	s5,4(sp)
80000144:	f19ff06f          	j	8000005c <main+0x34>

80000148 <halt>:
80000148:	00050513          	mv	a0,a0
8000014c:	00100073          	ebreak
80000150:	0000006f          	j	80000150 <halt+0x8>

80000154 <_trm_init>:
80000154:	ff010113          	addi	sp,sp,-16
80000158:	00000517          	auipc	a0,0x0
8000015c:	50850513          	addi	a0,a0,1288 # 80000660 <_etext>
80000160:	00112623          	sw	ra,12(sp)
80000164:	ec5ff0ef          	jal	80000028 <main>
80000168:	00050513          	mv	a0,a0
8000016c:	00100073          	ebreak
80000170:	0000006f          	j	80000170 <_trm_init+0x1c>

80000174 <__udivmoddi4>:
80000174:	fd010113          	addi	sp,sp,-48
80000178:	01312e23          	sw	s3,28(sp)
8000017c:	01412c23          	sw	s4,24(sp)
80000180:	01612823          	sw	s6,16(sp)
80000184:	01712623          	sw	s7,12(sp)
80000188:	02112623          	sw	ra,44(sp)
8000018c:	00068b13          	mv	s6,a3
80000190:	00050993          	mv	s3,a0
80000194:	00060a13          	mv	s4,a2
80000198:	00070b93          	mv	s7,a4
8000019c:	02059e63          	bnez	a1,800001d8 <__udivmoddi4+0x64>
800001a0:	1a069263          	bnez	a3,80000344 <__udivmoddi4+0x1d0>
800001a4:	00070863          	beqz	a4,800001b4 <__udivmoddi4+0x40>
800001a8:	02c577b3          	remu	a5,a0,a2
800001ac:	00072223          	sw	zero,4(a4)
800001b0:	00f72023          	sw	a5,0(a4)
800001b4:	0349d533          	divu	a0,s3,s4
800001b8:	00000593          	li	a1,0
800001bc:	02c12083          	lw	ra,44(sp)
800001c0:	01c12983          	lw	s3,28(sp)
800001c4:	01812a03          	lw	s4,24(sp)
800001c8:	01012b03          	lw	s6,16(sp)
800001cc:	00c12b83          	lw	s7,12(sp)
800001d0:	03010113          	addi	sp,sp,48
800001d4:	00008067          	ret
800001d8:	02912223          	sw	s1,36(sp)
800001dc:	03212023          	sw	s2,32(sp)
800001e0:	01512a23          	sw	s5,20(sp)
800001e4:	02812423          	sw	s0,40(sp)
800001e8:	00058913          	mv	s2,a1
800001ec:	00058493          	mv	s1,a1
800001f0:	00060a93          	mv	s5,a2
800001f4:	0e061e63          	bnez	a2,800002f0 <__udivmoddi4+0x17c>
800001f8:	1c068063          	beqz	a3,800003b8 <__udivmoddi4+0x244>
800001fc:	22050a63          	beqz	a0,80000430 <__udivmoddi4+0x2bc>
80000200:	fff68793          	addi	a5,a3,-1
80000204:	00d7f733          	and	a4,a5,a3
80000208:	28070263          	beqz	a4,8000048c <__udivmoddi4+0x318>
8000020c:	00068513          	mv	a0,a3
80000210:	348000ef          	jal	80000558 <__clzsi2>
80000214:	00050413          	mv	s0,a0
80000218:	00090513          	mv	a0,s2
8000021c:	33c000ef          	jal	80000558 <__clzsi2>
80000220:	40a406b3          	sub	a3,s0,a0
80000224:	01e00793          	li	a5,30
80000228:	18d7ea63          	bltu	a5,a3,800003bc <__udivmoddi4+0x248>
8000022c:	00168693          	addi	a3,a3,1
80000230:	02000793          	li	a5,32
80000234:	40d787b3          	sub	a5,a5,a3
80000238:	00f91633          	sll	a2,s2,a5
8000023c:	00d9d733          	srl	a4,s3,a3
80000240:	00d95433          	srl	s0,s2,a3
80000244:	00f99833          	sll	a6,s3,a5
80000248:	00e664b3          	or	s1,a2,a4
8000024c:	00000713          	li	a4,0
80000250:	01f85793          	srli	a5,a6,0x1f
80000254:	00149593          	slli	a1,s1,0x1
80000258:	00f5e5b3          	or	a1,a1,a5
8000025c:	01f4d493          	srli	s1,s1,0x1f
80000260:	00141793          	slli	a5,s0,0x1
80000264:	0097e7b3          	or	a5,a5,s1
80000268:	40ba0333          	sub	t1,s4,a1
8000026c:	006a3633          	sltu	a2,s4,t1
80000270:	40fb08b3          	sub	a7,s6,a5
80000274:	40c888b3          	sub	a7,a7,a2
80000278:	00133313          	seqz	t1,t1
8000027c:	406888b3          	sub	a7,a7,t1
80000280:	41f8d313          	srai	t1,a7,0x1f
80000284:	014374b3          	and	s1,t1,s4
80000288:	409584b3          	sub	s1,a1,s1
8000028c:	01637333          	and	t1,t1,s6
80000290:	01fad613          	srli	a2,s5,0x1f
80000294:	00181813          	slli	a6,a6,0x1
80000298:	001a9a93          	slli	s5,s5,0x1
8000029c:	0095b5b3          	sltu	a1,a1,s1
800002a0:	406787b3          	sub	a5,a5,t1
800002a4:	fff68693          	addi	a3,a3,-1
800002a8:	00eaeab3          	or	s5,s5,a4
800002ac:	00c86833          	or	a6,a6,a2
800002b0:	01f8d713          	srli	a4,a7,0x1f
800002b4:	40b78433          	sub	s0,a5,a1
800002b8:	f8069ce3          	bnez	a3,80000250 <__udivmoddi4+0xdc>
800002bc:	000b8663          	beqz	s7,800002c8 <__udivmoddi4+0x154>
800002c0:	009ba023          	sw	s1,0(s7)
800002c4:	008ba223          	sw	s0,4(s7)
800002c8:	01fad913          	srli	s2,s5,0x1f
800002cc:	001a9993          	slli	s3,s5,0x1
800002d0:	00181793          	slli	a5,a6,0x1
800002d4:	00f965b3          	or	a1,s2,a5
800002d8:	02812403          	lw	s0,40(sp)
800002dc:	02412483          	lw	s1,36(sp)
800002e0:	02012903          	lw	s2,32(sp)
800002e4:	01412a83          	lw	s5,20(sp)
800002e8:	00e9e533          	or	a0,s3,a4
800002ec:	ed1ff06f          	j	800001bc <__udivmoddi4+0x48>
800002f0:	06068663          	beqz	a3,8000035c <__udivmoddi4+0x1e8>
800002f4:	00068513          	mv	a0,a3
800002f8:	260000ef          	jal	80000558 <__clzsi2>
800002fc:	00050413          	mv	s0,a0
80000300:	00090513          	mv	a0,s2
80000304:	254000ef          	jal	80000558 <__clzsi2>
80000308:	40a406b3          	sub	a3,s0,a0
8000030c:	01f00793          	li	a5,31
80000310:	0ad7e663          	bltu	a5,a3,800003bc <__udivmoddi4+0x248>
80000314:	00168693          	addi	a3,a3,1
80000318:	02000793          	li	a5,32
8000031c:	00098813          	mv	a6,s3
80000320:	18f68663          	beq	a3,a5,800004ac <__udivmoddi4+0x338>
80000324:	40d787b3          	sub	a5,a5,a3
80000328:	00d9d733          	srl	a4,s3,a3
8000032c:	00f91633          	sll	a2,s2,a5
80000330:	00d95433          	srl	s0,s2,a3
80000334:	00f99833          	sll	a6,s3,a5
80000338:	00e664b3          	or	s1,a2,a4
8000033c:	00000a93          	li	s5,0
80000340:	f0dff06f          	j	8000024c <__udivmoddi4+0xd8>
80000344:	00070663          	beqz	a4,80000350 <__udivmoddi4+0x1dc>
80000348:	00aba023          	sw	a0,0(s7)
8000034c:	00072223          	sw	zero,4(a4)
80000350:	00000513          	li	a0,0
80000354:	00000593          	li	a1,0
80000358:	e65ff06f          	j	800001bc <__udivmoddi4+0x48>
8000035c:	fff60793          	addi	a5,a2,-1
80000360:	00c7f733          	and	a4,a5,a2
80000364:	06071c63          	bnez	a4,800003dc <__udivmoddi4+0x268>
80000368:	000b8863          	beqz	s7,80000378 <__udivmoddi4+0x204>
8000036c:	00a7f7b3          	and	a5,a5,a0
80000370:	00fba023          	sw	a5,0(s7)
80000374:	000ba223          	sw	zero,4(s7)
80000378:	00100793          	li	a5,1
8000037c:	0efa0063          	beq	s4,a5,8000045c <__udivmoddi4+0x2e8>
80000380:	000a0513          	mv	a0,s4
80000384:	264000ef          	jal	800005e8 <__ctzsi2>
80000388:	02000713          	li	a4,32
8000038c:	40a70733          	sub	a4,a4,a0
80000390:	00050793          	mv	a5,a0
80000394:	00e91733          	sll	a4,s2,a4
80000398:	00a9d833          	srl	a6,s3,a0
8000039c:	00f955b3          	srl	a1,s2,a5
800003a0:	02812403          	lw	s0,40(sp)
800003a4:	02412483          	lw	s1,36(sp)
800003a8:	02012903          	lw	s2,32(sp)
800003ac:	01412a83          	lw	s5,20(sp)
800003b0:	01076533          	or	a0,a4,a6
800003b4:	e09ff06f          	j	800001bc <__udivmoddi4+0x48>
800003b8:	00100073          	ebreak
800003bc:	0a0b8e63          	beqz	s7,80000478 <__udivmoddi4+0x304>
800003c0:	012ba223          	sw	s2,4(s7)
800003c4:	02812403          	lw	s0,40(sp)
800003c8:	02412483          	lw	s1,36(sp)
800003cc:	02012903          	lw	s2,32(sp)
800003d0:	01412a83          	lw	s5,20(sp)
800003d4:	013ba023          	sw	s3,0(s7)
800003d8:	f79ff06f          	j	80000350 <__udivmoddi4+0x1dc>
800003dc:	00060513          	mv	a0,a2
800003e0:	00068413          	mv	s0,a3
800003e4:	174000ef          	jal	80000558 <__clzsi2>
800003e8:	00050913          	mv	s2,a0
800003ec:	00048513          	mv	a0,s1
800003f0:	168000ef          	jal	80000558 <__clzsi2>
800003f4:	40a90533          	sub	a0,s2,a0
800003f8:	02150693          	addi	a3,a0,33
800003fc:	02000793          	li	a5,32
80000400:	00098813          	mv	a6,s3
80000404:	00000a93          	li	s5,0
80000408:	e4f682e3          	beq	a3,a5,8000024c <__udivmoddi4+0xd8>
8000040c:	01f00713          	li	a4,31
80000410:	0ad76463          	bltu	a4,a3,800004b8 <__udivmoddi4+0x344>
80000414:	40d78733          	sub	a4,a5,a3
80000418:	00d4d433          	srl	s0,s1,a3
8000041c:	00d9d7b3          	srl	a5,s3,a3
80000420:	00e494b3          	sll	s1,s1,a4
80000424:	00f4e4b3          	or	s1,s1,a5
80000428:	00e99833          	sll	a6,s3,a4
8000042c:	e21ff06f          	j	8000024c <__udivmoddi4+0xd8>
80000430:	00070863          	beqz	a4,80000440 <__udivmoddi4+0x2cc>
80000434:	02d5f7b3          	remu	a5,a1,a3
80000438:	00072023          	sw	zero,0(a4)
8000043c:	00f72223          	sw	a5,4(a4)
80000440:	03695533          	divu	a0,s2,s6
80000444:	02812403          	lw	s0,40(sp)
80000448:	02412483          	lw	s1,36(sp)
8000044c:	02012903          	lw	s2,32(sp)
80000450:	01412a83          	lw	s5,20(sp)
80000454:	00000593          	li	a1,0
80000458:	d65ff06f          	j	800001bc <__udivmoddi4+0x48>
8000045c:	00090593          	mv	a1,s2
80000460:	02812403          	lw	s0,40(sp)
80000464:	02412483          	lw	s1,36(sp)
80000468:	02012903          	lw	s2,32(sp)
8000046c:	01412a83          	lw	s5,20(sp)
80000470:	00098513          	mv	a0,s3
80000474:	d49ff06f          	j	800001bc <__udivmoddi4+0x48>
80000478:	02812403          	lw	s0,40(sp)
8000047c:	02412483          	lw	s1,36(sp)
80000480:	02012903          	lw	s2,32(sp)
80000484:	01412a83          	lw	s5,20(sp)
80000488:	ec9ff06f          	j	80000350 <__udivmoddi4+0x1dc>
8000048c:	000b8863          	beqz	s7,8000049c <__udivmoddi4+0x328>
80000490:	00b7f7b3          	and	a5,a5,a1
80000494:	00aba023          	sw	a0,0(s7)
80000498:	00fba223          	sw	a5,4(s7)
8000049c:	000b0513          	mv	a0,s6
800004a0:	148000ef          	jal	800005e8 <__ctzsi2>
800004a4:	00a95533          	srl	a0,s2,a0
800004a8:	f9dff06f          	j	80000444 <__udivmoddi4+0x2d0>
800004ac:	00000413          	li	s0,0
800004b0:	00000a93          	li	s5,0
800004b4:	d99ff06f          	j	8000024c <__udivmoddi4+0xd8>
800004b8:	04000a93          	li	s5,64
800004bc:	40da8ab3          	sub	s5,s5,a3
800004c0:	00150513          	addi	a0,a0,1
800004c4:	01549733          	sll	a4,s1,s5
800004c8:	00a9d7b3          	srl	a5,s3,a0
800004cc:	01599ab3          	sll	s5,s3,s5
800004d0:	00a4d4b3          	srl	s1,s1,a0
800004d4:	00f76833          	or	a6,a4,a5
800004d8:	d75ff06f          	j	8000024c <__udivmoddi4+0xd8>

800004dc <__moddi3>:
800004dc:	fe010113          	addi	sp,sp,-32
800004e0:	00812c23          	sw	s0,24(sp)
800004e4:	41f6d893          	srai	a7,a3,0x1f
800004e8:	41f5d413          	srai	s0,a1,0x1f
800004ec:	01164733          	xor	a4,a2,a7
800004f0:	008547b3          	xor	a5,a0,s0
800004f4:	41170633          	sub	a2,a4,a7
800004f8:	40878533          	sub	a0,a5,s0
800004fc:	0116c6b3          	xor	a3,a3,a7
80000500:	0085c5b3          	xor	a1,a1,s0
80000504:	00c73833          	sltu	a6,a4,a2
80000508:	00a7b7b3          	sltu	a5,a5,a0
8000050c:	411686b3          	sub	a3,a3,a7
80000510:	408585b3          	sub	a1,a1,s0
80000514:	00810713          	addi	a4,sp,8
80000518:	40f585b3          	sub	a1,a1,a5
8000051c:	410686b3          	sub	a3,a3,a6
80000520:	00112e23          	sw	ra,28(sp)
80000524:	c51ff0ef          	jal	80000174 <__udivmoddi4>
80000528:	00812783          	lw	a5,8(sp)
8000052c:	00c12583          	lw	a1,12(sp)
80000530:	01c12083          	lw	ra,28(sp)
80000534:	0087c7b3          	xor	a5,a5,s0
80000538:	0085c5b3          	xor	a1,a1,s0
8000053c:	40878533          	sub	a0,a5,s0
80000540:	408585b3          	sub	a1,a1,s0
80000544:	01812403          	lw	s0,24(sp)
80000548:	00a7b7b3          	sltu	a5,a5,a0
8000054c:	40f585b3          	sub	a1,a1,a5
80000550:	02010113          	addi	sp,sp,32
80000554:	00008067          	ret

80000558 <__clzsi2>:
80000558:	000105b7          	lui	a1,0x10
8000055c:	00b535b3          	sltu	a1,a0,a1
80000560:	00459593          	slli	a1,a1,0x4
80000564:	01000793          	li	a5,16
80000568:	40b787b3          	sub	a5,a5,a1
8000056c:	00010737          	lui	a4,0x10
80000570:	00f557b3          	srl	a5,a0,a5
80000574:	f0070713          	addi	a4,a4,-256 # ff00 <_entry_offset+0xff00>
80000578:	00e7f733          	and	a4,a5,a4
8000057c:	00173713          	seqz	a4,a4
80000580:	00371713          	slli	a4,a4,0x3
80000584:	00800693          	li	a3,8
80000588:	40e686b3          	sub	a3,a3,a4
8000058c:	00d7d7b3          	srl	a5,a5,a3
80000590:	0f07f613          	andi	a2,a5,240
80000594:	00163613          	seqz	a2,a2
80000598:	00261613          	slli	a2,a2,0x2
8000059c:	00400693          	li	a3,4
800005a0:	40c686b3          	sub	a3,a3,a2
800005a4:	00d7d7b3          	srl	a5,a5,a3
800005a8:	00c7f693          	andi	a3,a5,12
800005ac:	0016b693          	seqz	a3,a3
800005b0:	00200513          	li	a0,2
800005b4:	00169693          	slli	a3,a3,0x1
800005b8:	40d50833          	sub	a6,a0,a3
800005bc:	0107d7b3          	srl	a5,a5,a6
800005c0:	0017d813          	srli	a6,a5,0x1
800005c4:	00b70733          	add	a4,a4,a1
800005c8:	00187593          	andi	a1,a6,1
800005cc:	00e60633          	add	a2,a2,a4
800005d0:	40f50533          	sub	a0,a0,a5
800005d4:	00058463          	beqz	a1,800005dc <__clzsi2+0x84>
800005d8:	00000513          	li	a0,0
800005dc:	00c686b3          	add	a3,a3,a2
800005e0:	00d50533          	add	a0,a0,a3
800005e4:	00008067          	ret

800005e8 <__ctzsi2>:
800005e8:	01051593          	slli	a1,a0,0x10
800005ec:	0105d593          	srli	a1,a1,0x10
800005f0:	0015b593          	seqz	a1,a1
800005f4:	00459593          	slli	a1,a1,0x4
800005f8:	00b557b3          	srl	a5,a0,a1
800005fc:	0ff7f613          	zext.b	a2,a5
80000600:	00163613          	seqz	a2,a2
80000604:	00361613          	slli	a2,a2,0x3
80000608:	00c7d7b3          	srl	a5,a5,a2
8000060c:	00f7f693          	andi	a3,a5,15
80000610:	0016b693          	seqz	a3,a3
80000614:	00269693          	slli	a3,a3,0x2
80000618:	00d7d7b3          	srl	a5,a5,a3
8000061c:	0037f713          	andi	a4,a5,3
80000620:	00173713          	seqz	a4,a4
80000624:	00171713          	slli	a4,a4,0x1
80000628:	00e7d7b3          	srl	a5,a5,a4
8000062c:	0017d513          	srli	a0,a5,0x1
80000630:	fff7c793          	not	a5,a5
80000634:	00b60633          	add	a2,a2,a1
80000638:	0017f793          	andi	a5,a5,1
8000063c:	00157593          	andi	a1,a0,1
80000640:	00200513          	li	a0,2
80000644:	00c686b3          	add	a3,a3,a2
80000648:	40b50533          	sub	a0,a0,a1
8000064c:	40f007b3          	neg	a5,a5
80000650:	00f57533          	and	a0,a0,a5
80000654:	00d70733          	add	a4,a4,a3
80000658:	00e50533          	add	a0,a0,a4
8000065c:	00008067          	ret
