
/home/jinghanhui/ysyx-workbench/am-kernels/tests/cpu-tests/build/quick-sort-riscv32e-npc.elf:     file format elf32-littleriscv


Disassembly of section .text:

80000000 <_start>:
80000000:	00000413          	li	s0,0
80000004:	00009117          	auipc	sp,0x9
80000008:	ffc10113          	addi	sp,sp,-4 # 80009000 <_end>
8000000c:	3b0000ef          	jal	800003bc <_trm_init>

80000010 <check>:
80000010:	00050463          	beqz	a0,80000018 <check+0x8>
80000014:	00008067          	ret
80000018:	ff410113          	addi	sp,sp,-12
8000001c:	00100513          	li	a0,1
80000020:	00112423          	sw	ra,8(sp)
80000024:	38c000ef          	jal	800003b0 <halt>

80000028 <partition>:
80000028:	00259693          	slli	a3,a1,0x2
8000002c:	00d506b3          	add	a3,a0,a3
80000030:	00050313          	mv	t1,a0
80000034:	0006a283          	lw	t0,0(a3)
80000038:	00060513          	mv	a0,a2
8000003c:	06c5dc63          	bge	a1,a2,800000b4 <partition+0x8c>
80000040:	00261793          	slli	a5,a2,0x2
80000044:	00f307b3          	add	a5,t1,a5
80000048:	0007a783          	lw	a5,0(a5)
8000004c:	fff50613          	addi	a2,a0,-1
80000050:	00261613          	slli	a2,a2,0x2
80000054:	00c30633          	add	a2,t1,a2
80000058:	0140006f          	j	8000006c <partition+0x44>
8000005c:	fff50513          	addi	a0,a0,-1
80000060:	00472783          	lw	a5,4(a4)
80000064:	06b50863          	beq	a0,a1,800000d4 <partition+0xac>
80000068:	00070613          	mv	a2,a4
8000006c:	ffc60713          	addi	a4,a2,-4
80000070:	fef2c6e3          	blt	t0,a5,8000005c <partition+0x34>
80000074:	00259693          	slli	a3,a1,0x2
80000078:	00d306b3          	add	a3,t1,a3
8000007c:	00251393          	slli	t2,a0,0x2
80000080:	00f6a023          	sw	a5,0(a3)
80000084:	00730633          	add	a2,t1,t2
80000088:	04a5de63          	bge	a1,a0,800000e4 <partition+0xbc>
8000008c:	00068713          	mv	a4,a3
80000090:	00c0006f          	j	8000009c <partition+0x74>
80000094:	00158593          	addi	a1,a1,1
80000098:	02a58463          	beq	a1,a0,800000c0 <partition+0x98>
8000009c:	00072783          	lw	a5,0(a4)
800000a0:	00070693          	mv	a3,a4
800000a4:	00470713          	addi	a4,a4,4
800000a8:	fef2d6e3          	bge	t0,a5,80000094 <partition+0x6c>
800000ac:	00f62023          	sw	a5,0(a2)
800000b0:	f8a5cee3          	blt	a1,a0,8000004c <partition+0x24>
800000b4:	00058513          	mv	a0,a1
800000b8:	0056a023          	sw	t0,0(a3)
800000bc:	00008067          	ret
800000c0:	007306b3          	add	a3,t1,t2
800000c4:	0006a783          	lw	a5,0(a3)
800000c8:	00f62023          	sw	a5,0(a2)
800000cc:	0056a023          	sw	t0,0(a3)
800000d0:	00008067          	ret
800000d4:	00251693          	slli	a3,a0,0x2
800000d8:	00d306b3          	add	a3,t1,a3
800000dc:	00f6a023          	sw	a5,0(a3)
800000e0:	fe9ff06f          	j	800000c8 <partition+0xa0>
800000e4:	00058513          	mv	a0,a1
800000e8:	fe1ff06f          	j	800000c8 <partition+0xa0>

800000ec <quick_sort>:
800000ec:	fac10113          	addi	sp,sp,-84
800000f0:	04112823          	sw	ra,80(sp)
800000f4:	02c12023          	sw	a2,32(sp)
800000f8:	00a12023          	sw	a0,0(sp)
800000fc:	1ec5d663          	bge	a1,a2,800002e8 <quick_sort+0x1fc>
80000100:	04812623          	sw	s0,76(sp)
80000104:	04912423          	sw	s1,72(sp)
80000108:	00058413          	mv	s0,a1
8000010c:	02012603          	lw	a2,32(sp)
80000110:	00012503          	lw	a0,0(sp)
80000114:	00040593          	mv	a1,s0
80000118:	f11ff0ef          	jal	80000028 <partition>
8000011c:	fff50613          	addi	a2,a0,-1
80000120:	00050493          	mv	s1,a0
80000124:	1ac45863          	bge	s0,a2,800002d4 <quick_sort+0x1e8>
80000128:	02a12423          	sw	a0,40(sp)
8000012c:	00060493          	mv	s1,a2
80000130:	00012503          	lw	a0,0(sp)
80000134:	00048613          	mv	a2,s1
80000138:	00040593          	mv	a1,s0
8000013c:	eedff0ef          	jal	80000028 <partition>
80000140:	fff50793          	addi	a5,a0,-1
80000144:	00f12c23          	sw	a5,24(sp)
80000148:	18f45063          	bge	s0,a5,800002c8 <quick_sort+0x1dc>
8000014c:	02912623          	sw	s1,44(sp)
80000150:	02a12823          	sw	a0,48(sp)
80000154:	00040493          	mv	s1,s0
80000158:	01812603          	lw	a2,24(sp)
8000015c:	00012503          	lw	a0,0(sp)
80000160:	00048593          	mv	a1,s1
80000164:	ec5ff0ef          	jal	80000028 <partition>
80000168:	fff50793          	addi	a5,a0,-1
8000016c:	00f12e23          	sw	a5,28(sp)
80000170:	14f4d263          	bge	s1,a5,800002b4 <quick_sort+0x1c8>
80000174:	02a12a23          	sw	a0,52(sp)
80000178:	00048413          	mv	s0,s1
8000017c:	01c12603          	lw	a2,28(sp)
80000180:	00012503          	lw	a0,0(sp)
80000184:	00040593          	mv	a1,s0
80000188:	ea1ff0ef          	jal	80000028 <partition>
8000018c:	fff50793          	addi	a5,a0,-1
80000190:	00f12223          	sw	a5,4(sp)
80000194:	00050493          	mv	s1,a0
80000198:	10f45663          	bge	s0,a5,800002a4 <quick_sort+0x1b8>
8000019c:	02a12c23          	sw	a0,56(sp)
800001a0:	00040493          	mv	s1,s0
800001a4:	00412603          	lw	a2,4(sp)
800001a8:	00012503          	lw	a0,0(sp)
800001ac:	00048593          	mv	a1,s1
800001b0:	e79ff0ef          	jal	80000028 <partition>
800001b4:	fff50413          	addi	s0,a0,-1
800001b8:	0c84de63          	bge	s1,s0,80000294 <quick_sort+0x1a8>
800001bc:	00a12623          	sw	a0,12(sp)
800001c0:	00812423          	sw	s0,8(sp)
800001c4:	00812603          	lw	a2,8(sp)
800001c8:	00012503          	lw	a0,0(sp)
800001cc:	00048593          	mv	a1,s1
800001d0:	e59ff0ef          	jal	80000028 <partition>
800001d4:	fff50713          	addi	a4,a0,-1
800001d8:	00e12823          	sw	a4,16(sp)
800001dc:	00050793          	mv	a5,a0
800001e0:	0ae4d263          	bge	s1,a4,80000284 <quick_sort+0x198>
800001e4:	00048413          	mv	s0,s1
800001e8:	01012603          	lw	a2,16(sp)
800001ec:	00012503          	lw	a0,0(sp)
800001f0:	00040593          	mv	a1,s0
800001f4:	00f12a23          	sw	a5,20(sp)
800001f8:	e31ff0ef          	jal	80000028 <partition>
800001fc:	02a12223          	sw	a0,36(sp)
80000200:	fff50493          	addi	s1,a0,-1
80000204:	01412783          	lw	a5,20(sp)
80000208:	06945663          	bge	s0,s1,80000274 <quick_sort+0x188>
8000020c:	00012503          	lw	a0,0(sp)
80000210:	00048613          	mv	a2,s1
80000214:	00040593          	mv	a1,s0
80000218:	e11ff0ef          	jal	80000028 <partition>
8000021c:	fff50713          	addi	a4,a0,-1
80000220:	00050793          	mv	a5,a0
80000224:	04e45263          	bge	s0,a4,80000268 <quick_sort+0x17c>
80000228:	00040593          	mv	a1,s0
8000022c:	00012503          	lw	a0,0(sp)
80000230:	00070613          	mv	a2,a4
80000234:	04f12223          	sw	a5,68(sp)
80000238:	04e12023          	sw	a4,64(sp)
8000023c:	02b12e23          	sw	a1,60(sp)
80000240:	de9ff0ef          	jal	80000028 <partition>
80000244:	03c12583          	lw	a1,60(sp)
80000248:	00050413          	mv	s0,a0
8000024c:	fff50613          	addi	a2,a0,-1
80000250:	00012503          	lw	a0,0(sp)
80000254:	e99ff0ef          	jal	800000ec <quick_sort>
80000258:	04012703          	lw	a4,64(sp)
8000025c:	00140593          	addi	a1,s0,1
80000260:	04412783          	lw	a5,68(sp)
80000264:	fce5c4e3          	blt	a1,a4,8000022c <quick_sort+0x140>
80000268:	00178413          	addi	s0,a5,1
8000026c:	fa9440e3          	blt	s0,s1,8000020c <quick_sort+0x120>
80000270:	01412783          	lw	a5,20(sp)
80000274:	02412703          	lw	a4,36(sp)
80000278:	00170413          	addi	s0,a4,1
8000027c:	01012703          	lw	a4,16(sp)
80000280:	f6e444e3          	blt	s0,a4,800001e8 <quick_sort+0xfc>
80000284:	00178493          	addi	s1,a5,1
80000288:	00812783          	lw	a5,8(sp)
8000028c:	f2f4cce3          	blt	s1,a5,800001c4 <quick_sort+0xd8>
80000290:	00c12503          	lw	a0,12(sp)
80000294:	00412783          	lw	a5,4(sp)
80000298:	00150493          	addi	s1,a0,1
8000029c:	f0f4c4e3          	blt	s1,a5,800001a4 <quick_sort+0xb8>
800002a0:	03812483          	lw	s1,56(sp)
800002a4:	01c12783          	lw	a5,28(sp)
800002a8:	00148413          	addi	s0,s1,1
800002ac:	ecf448e3          	blt	s0,a5,8000017c <quick_sort+0x90>
800002b0:	03412503          	lw	a0,52(sp)
800002b4:	01812783          	lw	a5,24(sp)
800002b8:	00150493          	addi	s1,a0,1
800002bc:	e8f4cee3          	blt	s1,a5,80000158 <quick_sort+0x6c>
800002c0:	02c12483          	lw	s1,44(sp)
800002c4:	03012503          	lw	a0,48(sp)
800002c8:	00150413          	addi	s0,a0,1
800002cc:	e69442e3          	blt	s0,s1,80000130 <quick_sort+0x44>
800002d0:	02812483          	lw	s1,40(sp)
800002d4:	02012783          	lw	a5,32(sp)
800002d8:	00148413          	addi	s0,s1,1
800002dc:	e2f448e3          	blt	s0,a5,8000010c <quick_sort+0x20>
800002e0:	04c12403          	lw	s0,76(sp)
800002e4:	04812483          	lw	s1,72(sp)
800002e8:	05012083          	lw	ra,80(sp)
800002ec:	05410113          	addi	sp,sp,84
800002f0:	00008067          	ret

800002f4 <main>:
800002f4:	ff010113          	addi	sp,sp,-16
800002f8:	01300613          	li	a2,19
800002fc:	00000593          	li	a1,0
80000300:	00000517          	auipc	a0,0x0
80000304:	0e050513          	addi	a0,a0,224 # 800003e0 <a>
80000308:	00812423          	sw	s0,8(sp)
8000030c:	00912223          	sw	s1,4(sp)
80000310:	00112623          	sw	ra,12(sp)
80000314:	00000497          	auipc	s1,0x0
80000318:	0cc48493          	addi	s1,s1,204 # 800003e0 <a>
8000031c:	dd1ff0ef          	jal	800000ec <quick_sort>
80000320:	00048713          	mv	a4,s1
80000324:	00000413          	li	s0,0
80000328:	00072503          	lw	a0,0(a4)
8000032c:	00e12023          	sw	a4,0(sp)
80000330:	40850533          	sub	a0,a0,s0
80000334:	00153513          	seqz	a0,a0
80000338:	cd9ff0ef          	jal	80000010 <check>
8000033c:	00012703          	lw	a4,0(sp)
80000340:	00140413          	addi	s0,s0,1
80000344:	01400793          	li	a5,20
80000348:	00470713          	addi	a4,a4,4
8000034c:	fcf41ee3          	bne	s0,a5,80000328 <main+0x34>
80000350:	00100513          	li	a0,1
80000354:	cbdff0ef          	jal	80000010 <check>
80000358:	01300613          	li	a2,19
8000035c:	00000593          	li	a1,0
80000360:	00000517          	auipc	a0,0x0
80000364:	08050513          	addi	a0,a0,128 # 800003e0 <a>
80000368:	d85ff0ef          	jal	800000ec <quick_sort>
8000036c:	00000413          	li	s0,0
80000370:	0004a503          	lw	a0,0(s1)
80000374:	00448493          	addi	s1,s1,4
80000378:	40850533          	sub	a0,a0,s0
8000037c:	00153513          	seqz	a0,a0
80000380:	c91ff0ef          	jal	80000010 <check>
80000384:	00140413          	addi	s0,s0,1
80000388:	01400793          	li	a5,20
8000038c:	fef412e3          	bne	s0,a5,80000370 <main+0x7c>
80000390:	00100513          	li	a0,1
80000394:	c7dff0ef          	jal	80000010 <check>
80000398:	00c12083          	lw	ra,12(sp)
8000039c:	00812403          	lw	s0,8(sp)
800003a0:	00412483          	lw	s1,4(sp)
800003a4:	00000513          	li	a0,0
800003a8:	01010113          	addi	sp,sp,16
800003ac:	00008067          	ret

800003b0 <halt>:
800003b0:	00050513          	mv	a0,a0
800003b4:	00100073          	ebreak
800003b8:	0000006f          	j	800003b8 <halt+0x8>

800003bc <_trm_init>:
800003bc:	ff410113          	addi	sp,sp,-12
800003c0:	00000517          	auipc	a0,0x0
800003c4:	01c50513          	addi	a0,a0,28 # 800003dc <_etext>
800003c8:	00112423          	sw	ra,8(sp)
800003cc:	f29ff0ef          	jal	800002f4 <main>
800003d0:	00050513          	mv	a0,a0
800003d4:	00100073          	ebreak
800003d8:	0000006f          	j	800003d8 <_trm_init+0x1c>
