
/home/jinghanhui/ysyx-workbench/am-kernels/tests/cpu-tests/build/string-riscv32-nemu.elf:     file format elf32-littleriscv


Disassembly of section .text:

80000000 <_start>:
80000000:	00000413          	li	s0,0
80000004:	00009117          	auipc	sp,0x9
80000008:	ffc10113          	addi	sp,sp,-4 # 80009000 <_end>
8000000c:	120000ef          	jal	8000012c <_trm_init>

80000010 <check>:
80000010:	00050463          	beqz	a0,80000018 <check+0x8>
80000014:	00008067          	ret
80000018:	ff010113          	addi	sp,sp,-16
8000001c:	00100513          	li	a0,1
80000020:	00112623          	sw	ra,12(sp)
80000024:	0fc000ef          	jal	80000120 <halt>

80000028 <main>:
80000028:	ff010113          	addi	sp,sp,-16
8000002c:	00812423          	sw	s0,8(sp)
80000030:	00000417          	auipc	s0,0x0
80000034:	28c40413          	addi	s0,s0,652 # 800002bc <s>
80000038:	00842583          	lw	a1,8(s0)
8000003c:	00042503          	lw	a0,0(s0)
80000040:	00112623          	sw	ra,12(sp)
80000044:	174000ef          	jal	800001b8 <strcmp>
80000048:	00153513          	seqz	a0,a0
8000004c:	fc5ff0ef          	jal	80000010 <check>
80000050:	00442583          	lw	a1,4(s0)
80000054:	00042503          	lw	a0,0(s0)
80000058:	160000ef          	jal	800001b8 <strcmp>
8000005c:	01f55513          	srli	a0,a0,0x1f
80000060:	fb1ff0ef          	jal	80000010 <check>
80000064:	00442583          	lw	a1,4(s0)
80000068:	00042503          	lw	a0,0(s0)
8000006c:	00158593          	addi	a1,a1,1
80000070:	00150513          	addi	a0,a0,1
80000074:	144000ef          	jal	800001b8 <strcmp>
80000078:	01f55513          	srli	a0,a0,0x1f
8000007c:	f95ff0ef          	jal	80000010 <check>
80000080:	00442583          	lw	a1,4(s0)
80000084:	00042503          	lw	a0,0(s0)
80000088:	00258593          	addi	a1,a1,2
8000008c:	00250513          	addi	a0,a0,2
80000090:	128000ef          	jal	800001b8 <strcmp>
80000094:	01f55513          	srli	a0,a0,0x1f
80000098:	f79ff0ef          	jal	80000010 <check>
8000009c:	00442583          	lw	a1,4(s0)
800000a0:	00042503          	lw	a0,0(s0)
800000a4:	00358593          	addi	a1,a1,3
800000a8:	00350513          	addi	a0,a0,3
800000ac:	10c000ef          	jal	800001b8 <strcmp>
800000b0:	01f55513          	srli	a0,a0,0x1f
800000b4:	f5dff0ef          	jal	80000010 <check>
800000b8:	00000597          	auipc	a1,0x0
800000bc:	1fc58593          	addi	a1,a1,508 # 800002b4 <str1>
800000c0:	00000517          	auipc	a0,0x0
800000c4:	21450513          	addi	a0,a0,532 # 800002d4 <str>
800000c8:	084000ef          	jal	8000014c <strcpy>
800000cc:	00c42583          	lw	a1,12(s0)
800000d0:	0a4000ef          	jal	80000174 <strcat>
800000d4:	01042583          	lw	a1,16(s0)
800000d8:	0e0000ef          	jal	800001b8 <strcmp>
800000dc:	00153513          	seqz	a0,a0
800000e0:	f31ff0ef          	jal	80000010 <check>
800000e4:	00500613          	li	a2,5
800000e8:	02300593          	li	a1,35
800000ec:	00000517          	auipc	a0,0x0
800000f0:	1e850513          	addi	a0,a0,488 # 800002d4 <str>
800000f4:	0f4000ef          	jal	800001e8 <memset>
800000f8:	01442583          	lw	a1,20(s0)
800000fc:	00500613          	li	a2,5
80000100:	108000ef          	jal	80000208 <memcmp>
80000104:	00153513          	seqz	a0,a0
80000108:	f09ff0ef          	jal	80000010 <check>
8000010c:	00c12083          	lw	ra,12(sp)
80000110:	00812403          	lw	s0,8(sp)
80000114:	00000513          	li	a0,0
80000118:	01010113          	addi	sp,sp,16
8000011c:	00008067          	ret

80000120 <halt>:
80000120:	00050513          	mv	a0,a0
80000124:	00100073          	ebreak
80000128:	0000006f          	j	80000128 <halt+0x8>

8000012c <_trm_init>:
8000012c:	ff010113          	addi	sp,sp,-16
80000130:	00000517          	auipc	a0,0x0
80000134:	18050513          	addi	a0,a0,384 # 800002b0 <mainargs>
80000138:	00112623          	sw	ra,12(sp)
8000013c:	eedff0ef          	jal	80000028 <main>
80000140:	00050513          	mv	a0,a0
80000144:	00100073          	ebreak
80000148:	0000006f          	j	80000148 <_trm_init+0x1c>

8000014c <strcpy>:
8000014c:	0005c783          	lbu	a5,0(a1)
80000150:	00050713          	mv	a4,a0
80000154:	00078c63          	beqz	a5,8000016c <strcpy+0x20>
80000158:	00f70023          	sb	a5,0(a4)
8000015c:	0015c783          	lbu	a5,1(a1)
80000160:	00170713          	addi	a4,a4,1
80000164:	00158593          	addi	a1,a1,1
80000168:	fe0798e3          	bnez	a5,80000158 <strcpy+0xc>
8000016c:	00070023          	sb	zero,0(a4)
80000170:	00008067          	ret

80000174 <strcat>:
80000174:	00054783          	lbu	a5,0(a0)
80000178:	02078c63          	beqz	a5,800001b0 <strcat+0x3c>
8000017c:	00050793          	mv	a5,a0
80000180:	0017c703          	lbu	a4,1(a5)
80000184:	00178793          	addi	a5,a5,1
80000188:	fe071ce3          	bnez	a4,80000180 <strcat+0xc>
8000018c:	0005c703          	lbu	a4,0(a1)
80000190:	00070c63          	beqz	a4,800001a8 <strcat+0x34>
80000194:	00e78023          	sb	a4,0(a5)
80000198:	0015c703          	lbu	a4,1(a1)
8000019c:	00178793          	addi	a5,a5,1
800001a0:	00158593          	addi	a1,a1,1
800001a4:	fe0718e3          	bnez	a4,80000194 <strcat+0x20>
800001a8:	00078023          	sb	zero,0(a5)
800001ac:	00008067          	ret
800001b0:	00050793          	mv	a5,a0
800001b4:	fd9ff06f          	j	8000018c <strcat+0x18>

800001b8 <strcmp>:
800001b8:	00054783          	lbu	a5,0(a0)
800001bc:	0005c703          	lbu	a4,0(a1)
800001c0:	00079863          	bnez	a5,800001d0 <strcmp+0x18>
800001c4:	00070e63          	beqz	a4,800001e0 <strcmp+0x28>
800001c8:	40e78533          	sub	a0,a5,a4
800001cc:	00008067          	ret
800001d0:	fee79ce3          	bne	a5,a4,800001c8 <strcmp+0x10>
800001d4:	00150513          	addi	a0,a0,1
800001d8:	00158593          	addi	a1,a1,1
800001dc:	fddff06f          	j	800001b8 <strcmp>
800001e0:	00000513          	li	a0,0
800001e4:	00008067          	ret

800001e8 <memset>:
800001e8:	0ff5f593          	zext.b	a1,a1
800001ec:	00c50733          	add	a4,a0,a2
800001f0:	00050793          	mv	a5,a0
800001f4:	00060863          	beqz	a2,80000204 <memset+0x1c>
800001f8:	00b78023          	sb	a1,0(a5)
800001fc:	00178793          	addi	a5,a5,1
80000200:	fef71ce3          	bne	a4,a5,800001f8 <memset+0x10>
80000204:	00008067          	ret

80000208 <memcmp>:
80000208:	02060463          	beqz	a2,80000230 <memcmp+0x28>
8000020c:	00c50633          	add	a2,a0,a2
80000210:	00054783          	lbu	a5,0(a0)
80000214:	0005c703          	lbu	a4,0(a1)
80000218:	00e78663          	beq	a5,a4,80000224 <memcmp+0x1c>
8000021c:	40e78533          	sub	a0,a5,a4
80000220:	00008067          	ret
80000224:	00150513          	addi	a0,a0,1
80000228:	00158593          	addi	a1,a1,1
8000022c:	fec512e3          	bne	a0,a2,80000210 <memcmp+0x8>
80000230:	00000513          	li	a0,0
80000234:	00008067          	ret
