
/home/jinghanhui/ysyx-workbench/am-kernels/tests/cpu-tests/build/switch-riscv32e-npc.elf:     file format elf32-littleriscv


Disassembly of section .text:

80000000 <_start>:
80000000:	00000413          	li	s0,0
80000004:	00009117          	auipc	sp,0x9
80000008:	ffc10113          	addi	sp,sp,-4 # 80009000 <_end>
8000000c:	0d4000ef          	jal	800000e0 <_trm_init>

80000010 <check>:
80000010:	00050463          	beqz	a0,80000018 <check+0x8>
80000014:	00008067          	ret
80000018:	ff410113          	addi	sp,sp,-12
8000001c:	00100513          	li	a0,1
80000020:	00112423          	sw	ra,8(sp)
80000024:	0b0000ef          	jal	800000d4 <halt>

80000028 <main>:
80000028:	ff010113          	addi	sp,sp,-16
8000002c:	00812423          	sw	s0,8(sp)
80000030:	00912223          	sw	s1,4(sp)
80000034:	00112623          	sw	ra,12(sp)
80000038:	fff00493          	li	s1,-1
8000003c:	00c00793          	li	a5,12
80000040:	00000417          	auipc	s0,0x0
80000044:	0f840413          	addi	s0,s0,248 # 80000138 <ans>
80000048:	00000717          	auipc	a4,0x0
8000004c:	0b470713          	addi	a4,a4,180 # 800000fc <_trm_init+0x1c>
80000050:	0297ea63          	bltu	a5,s1,80000084 <main+0x5c>
80000054:	00072503          	lw	a0,0(a4)
80000058:	00042683          	lw	a3,0(s0)
8000005c:	00e12023          	sw	a4,0(sp)
80000060:	00148493          	addi	s1,s1,1
80000064:	40d50533          	sub	a0,a0,a3
80000068:	00153513          	seqz	a0,a0
8000006c:	fa5ff0ef          	jal	80000010 <check>
80000070:	00012703          	lw	a4,0(sp)
80000074:	00c00793          	li	a5,12
80000078:	00440413          	addi	s0,s0,4
8000007c:	00470713          	addi	a4,a4,4
80000080:	fc97fae3          	bgeu	a5,s1,80000054 <main+0x2c>
80000084:	00042503          	lw	a0,0(s0)
80000088:	00e12023          	sw	a4,0(sp)
8000008c:	00440413          	addi	s0,s0,4
80000090:	00150513          	addi	a0,a0,1
80000094:	00153513          	seqz	a0,a0
80000098:	f79ff0ef          	jal	80000010 <check>
8000009c:	00012703          	lw	a4,0(sp)
800000a0:	00d00693          	li	a3,13
800000a4:	00470713          	addi	a4,a4,4
800000a8:	00d48663          	beq	s1,a3,800000b4 <main+0x8c>
800000ac:	00000493          	li	s1,0
800000b0:	fa5ff06f          	j	80000054 <main+0x2c>
800000b4:	00100513          	li	a0,1
800000b8:	f59ff0ef          	jal	80000010 <check>
800000bc:	00c12083          	lw	ra,12(sp)
800000c0:	00812403          	lw	s0,8(sp)
800000c4:	00412483          	lw	s1,4(sp)
800000c8:	00000513          	li	a0,0
800000cc:	01010113          	addi	sp,sp,16
800000d0:	00008067          	ret

800000d4 <halt>:
800000d4:	00050513          	mv	a0,a0
800000d8:	00100073          	ebreak
800000dc:	0000006f          	j	800000dc <halt+0x8>

800000e0 <_trm_init>:
800000e0:	ff410113          	addi	sp,sp,-12
800000e4:	00000517          	auipc	a0,0x0
800000e8:	05050513          	addi	a0,a0,80 # 80000134 <mainargs>
800000ec:	00112423          	sw	ra,8(sp)
800000f0:	f39ff0ef          	jal	80000028 <main>
800000f4:	00050513          	mv	a0,a0
800000f8:	00100073          	ebreak
800000fc:	0000006f          	j	800000fc <_trm_init+0x1c>
