
/home/jinghanhui/ysyx-workbench/am-kernels/kernels/typing-game/build/typing-game-riscv32e-npc.elf:     file format elf32-littleriscv


Disassembly of section .text:

80000000 <_start>:
80000000:	00000413          	li	s0,0
80000004:	00015117          	auipc	sp,0x15
80000008:	ffc10113          	addi	sp,sp,-4 # 80015000 <_end>
8000000c:	099000ef          	jal	800008a4 <_trm_init>

80000010 <new_char>:
80000010:	ff010113          	addi	sp,sp,-16
80000014:	0000c617          	auipc	a2,0xc
80000018:	dcc60613          	addi	a2,a2,-564 # 8000bde0 <chars>
8000001c:	00812423          	sw	s0,8(sp)
80000020:	00112623          	sw	ra,12(sp)
80000024:	00060793          	mv	a5,a2
80000028:	00000413          	li	s0,0
8000002c:	08000693          	li	a3,128
80000030:	00c0006f          	j	8000003c <new_char+0x2c>
80000034:	00140413          	addi	s0,s0,1
80000038:	0ad40063          	beq	s0,a3,800000d8 <new_char+0xc8>
8000003c:	0007c703          	lbu	a4,0(a5)
80000040:	01478793          	addi	a5,a5,20
80000044:	fe0718e3          	bnez	a4,80000034 <new_char+0x24>
80000048:	00912223          	sw	s1,4(sp)
8000004c:	514010ef          	jal	80001560 <rand>
80000050:	00241793          	slli	a5,s0,0x2
80000054:	800004b7          	lui	s1,0x80000
80000058:	fff48493          	addi	s1,s1,-1 # 7fffffff <_entry_offset+0x7fffffff>
8000005c:	008787b3          	add	a5,a5,s0
80000060:	00279793          	slli	a5,a5,0x2
80000064:	0000c617          	auipc	a2,0xc
80000068:	d7c60613          	addi	a2,a2,-644 # 8000bde0 <chars>
8000006c:	01a00593          	li	a1,26
80000070:	00957533          	and	a0,a0,s1
80000074:	00f60433          	add	s0,a2,a5
80000078:	239000ef          	jal	80000ab0 <__modsi3>
8000007c:	0000c597          	auipc	a1,0xc
80000080:	7785a583          	lw	a1,1912(a1) # 8000c7f4 <screen_w>
80000084:	04150513          	addi	a0,a0,65
80000088:	00b12023          	sw	a1,0(sp)
8000008c:	00a40023          	sb	a0,0(s0)
80000090:	4d0010ef          	jal	80001560 <rand>
80000094:	00012583          	lw	a1,0(sp)
80000098:	00957533          	and	a0,a0,s1
8000009c:	ff958593          	addi	a1,a1,-7
800000a0:	211000ef          	jal	80000ab0 <__modsi3>
800000a4:	00a42223          	sw	a0,4(s0)
800000a8:	0000c497          	auipc	s1,0xc
800000ac:	7484a483          	lw	s1,1864(s1) # 8000c7f0 <screen_h>
800000b0:	00042423          	sw	zero,8(s0)
800000b4:	4ac010ef          	jal	80001560 <rand>
800000b8:	ff148493          	addi	s1,s1,-15
800000bc:	00f57593          	andi	a1,a0,15
800000c0:	02d58593          	addi	a1,a1,45
800000c4:	00048513          	mv	a0,s1
800000c8:	165000ef          	jal	80000a2c <__divsi3>
800000cc:	00412483          	lw	s1,4(sp)
800000d0:	00a42623          	sw	a0,12(s0)
800000d4:	00042823          	sw	zero,16(s0)
800000d8:	00c12083          	lw	ra,12(sp)
800000dc:	00812403          	lw	s0,8(sp)
800000e0:	01010113          	addi	sp,sp,16
800000e4:	00008067          	ret

800000e8 <game_logic_update>:
800000e8:	ff410113          	addi	sp,sp,-12
800000ec:	00600593          	li	a1,6
800000f0:	00112423          	sw	ra,8(sp)
800000f4:	00812223          	sw	s0,4(sp)
800000f8:	1b9000ef          	jal	80000ab0 <__modsi3>
800000fc:	0a050c63          	beqz	a0,800001b4 <game_logic_update+0xcc>
80000100:	0000c397          	auipc	t2,0xc
80000104:	6e838393          	addi	t2,t2,1768 # 8000c7e8 <miss>
80000108:	0000c617          	auipc	a2,0xc
8000010c:	6e862603          	lw	a2,1768(a2) # 8000c7f0 <screen_h>
80000110:	0003a583          	lw	a1,0(t2)
80000114:	ff060293          	addi	t0,a2,-16
80000118:	0000c797          	auipc	a5,0xc
8000011c:	cc878793          	addi	a5,a5,-824 # 8000bde0 <chars>
80000120:	0000c697          	auipc	a3,0xc
80000124:	6c068693          	addi	a3,a3,1728 # 8000c7e0 <n.0>
80000128:	00000513          	li	a0,0
8000012c:	01e00313          	li	t1,30
80000130:	0180006f          	j	80000148 <game_logic_update+0x60>
80000134:	0087a823          	sw	s0,16(a5)
80000138:	00041463          	bnez	s0,80000140 <game_logic_update+0x58>
8000013c:	00078023          	sb	zero,0(a5)
80000140:	01478793          	addi	a5,a5,20
80000144:	04f68863          	beq	a3,a5,80000194 <game_logic_update+0xac>
80000148:	0007c703          	lbu	a4,0(a5)
8000014c:	fe070ae3          	beqz	a4,80000140 <game_logic_update+0x58>
80000150:	0107a703          	lw	a4,16(a5)
80000154:	fff70413          	addi	s0,a4,-1
80000158:	fce04ee3          	bgtz	a4,80000134 <game_logic_update+0x4c>
8000015c:	0087a703          	lw	a4,8(a5)
80000160:	00c7a403          	lw	s0,12(a5)
80000164:	00870733          	add	a4,a4,s0
80000168:	00e7a423          	sw	a4,8(a5)
8000016c:	01070413          	addi	s0,a4,16
80000170:	02074e63          	bltz	a4,800001ac <game_logic_update+0xc4>
80000174:	fcc446e3          	blt	s0,a2,80000140 <game_logic_update+0x58>
80000178:	0007a623          	sw	zero,12(a5)
8000017c:	0057a423          	sw	t0,8(a5)
80000180:	0067a823          	sw	t1,16(a5)
80000184:	01478793          	addi	a5,a5,20
80000188:	00158593          	addi	a1,a1,1
8000018c:	00100513          	li	a0,1
80000190:	faf69ce3          	bne	a3,a5,80000148 <game_logic_update+0x60>
80000194:	00050463          	beqz	a0,8000019c <game_logic_update+0xb4>
80000198:	00b3a023          	sw	a1,0(t2)
8000019c:	00812083          	lw	ra,8(sp)
800001a0:	00412403          	lw	s0,4(sp)
800001a4:	00c10113          	addi	sp,sp,12
800001a8:	00008067          	ret
800001ac:	00078023          	sb	zero,0(a5)
800001b0:	fc5ff06f          	j	80000174 <game_logic_update+0x8c>
800001b4:	e5dff0ef          	jal	80000010 <new_char>
800001b8:	f49ff06f          	j	80000100 <game_logic_update+0x18>

800001bc <render>:
800001bc:	fd010113          	addi	sp,sp,-48
800001c0:	02912223          	sw	s1,36(sp)
800001c4:	0000c497          	auipc	s1,0xc
800001c8:	61c48493          	addi	s1,s1,1564 # 8000c7e0 <n.0>
800001cc:	0004a783          	lw	a5,0(s1)
800001d0:	02112623          	sw	ra,44(sp)
800001d4:	02812423          	sw	s0,40(sp)
800001d8:	1af05863          	blez	a5,80000388 <render+0x1cc>
800001dc:	00c10793          	addi	a5,sp,12
800001e0:	00002697          	auipc	a3,0x2
800001e4:	c0068693          	addi	a3,a3,-1024 # 80001de0 <x.2>
800001e8:	00002717          	auipc	a4,0x2
800001ec:	9f870713          	addi	a4,a4,-1544 # 80001be0 <y.1>
800001f0:	00000413          	li	s0,0
800001f4:	00f12023          	sw	a5,0(sp)
800001f8:	00072603          	lw	a2,0(a4)
800001fc:	0006a303          	lw	t1,0(a3)
80000200:	00012583          	lw	a1,0(sp)
80000204:	00002797          	auipc	a5,0x2
80000208:	ddc78793          	addi	a5,a5,-548 # 80001fe0 <blank>
8000020c:	00c12823          	sw	a2,16(sp)
80000210:	00f12a23          	sw	a5,20(sp)
80000214:	01000613          	li	a2,16
80000218:	00800793          	li	a5,8
8000021c:	00b00513          	li	a0,11
80000220:	00d12423          	sw	a3,8(sp)
80000224:	00e12223          	sw	a4,4(sp)
80000228:	00c12e23          	sw	a2,28(sp)
8000022c:	00612623          	sw	t1,12(sp)
80000230:	00f12c23          	sw	a5,24(sp)
80000234:	02010023          	sb	zero,32(sp)
80000238:	788000ef          	jal	800009c0 <ioe_write>
8000023c:	00812683          	lw	a3,8(sp)
80000240:	00412703          	lw	a4,4(sp)
80000244:	0004a603          	lw	a2,0(s1)
80000248:	00140413          	addi	s0,s0,1
8000024c:	00468693          	addi	a3,a3,4
80000250:	00470713          	addi	a4,a4,4
80000254:	fac442e3          	blt	s0,a2,800001f8 <render+0x3c>
80000258:	0000c797          	auipc	a5,0xc
8000025c:	5807a423          	sw	zero,1416(a5) # 8000c7e0 <n.0>
80000260:	0000c417          	auipc	s0,0xc
80000264:	b8040413          	addi	s0,s0,-1152 # 8000bde0 <chars>
80000268:	00044683          	lbu	a3,0(s0)
8000026c:	00012583          	lw	a1,0(sp)
80000270:	00b00513          	li	a0,11
80000274:	fbf68713          	addi	a4,a3,-65
80000278:	08068863          	beqz	a3,80000308 <render+0x14c>
8000027c:	0004a683          	lw	a3,0(s1)
80000280:	00002617          	auipc	a2,0x2
80000284:	b6060613          	addi	a2,a2,-1184 # 80001de0 <x.2>
80000288:	00442383          	lw	t2,4(s0)
8000028c:	00269313          	slli	t1,a3,0x2
80000290:	00842283          	lw	t0,8(s0)
80000294:	00c42783          	lw	a5,12(s0)
80000298:	006600b3          	add	ra,a2,t1
8000029c:	00002617          	auipc	a2,0x2
800002a0:	94460613          	addi	a2,a2,-1724 # 80001be0 <y.1>
800002a4:	00660633          	add	a2,a2,t1
800002a8:	00168693          	addi	a3,a3,1
800002ac:	0017b313          	seqz	t1,a5
800002b0:	00d4a023          	sw	a3,0(s1)
800002b4:	0070a023          	sw	t2,0(ra)
800002b8:	00562023          	sw	t0,0(a2)
800002bc:	40600333          	neg	t1,t1
800002c0:	00000693          	li	a3,0
800002c4:	00f04663          	bgtz	a5,800002d0 <render+0x114>
800002c8:	fe637693          	andi	a3,t1,-26
800002cc:	03468693          	addi	a3,a3,52
800002d0:	00d70733          	add	a4,a4,a3
800002d4:	00971713          	slli	a4,a4,0x9
800002d8:	00002697          	auipc	a3,0x2
800002dc:	f0868693          	addi	a3,a3,-248 # 800021e0 <texture>
800002e0:	00d70733          	add	a4,a4,a3
800002e4:	00e12a23          	sw	a4,20(sp)
800002e8:	00800713          	li	a4,8
800002ec:	00e12c23          	sw	a4,24(sp)
800002f0:	01000713          	li	a4,16
800002f4:	00712623          	sw	t2,12(sp)
800002f8:	00512823          	sw	t0,16(sp)
800002fc:	00e12e23          	sw	a4,28(sp)
80000300:	02010023          	sb	zero,32(sp)
80000304:	6bc000ef          	jal	800009c0 <ioe_write>
80000308:	01440413          	addi	s0,s0,20
8000030c:	0000c797          	auipc	a5,0xc
80000310:	4d478793          	addi	a5,a5,1236 # 8000c7e0 <n.0>
80000314:	f4f41ae3          	bne	s0,a5,80000268 <render+0xac>
80000318:	00012583          	lw	a1,0(sp)
8000031c:	00100793          	li	a5,1
80000320:	00b00513          	li	a0,11
80000324:	00012623          	sw	zero,12(sp)
80000328:	00012823          	sw	zero,16(sp)
8000032c:	00012a23          	sw	zero,20(sp)
80000330:	00012c23          	sw	zero,24(sp)
80000334:	00012e23          	sw	zero,28(sp)
80000338:	02f10023          	sb	a5,32(sp)
8000033c:	02800413          	li	s0,40
80000340:	680000ef          	jal	800009c0 <ioe_write>
80000344:	00800513          	li	a0,8
80000348:	fff40413          	addi	s0,s0,-1
8000034c:	540000ef          	jal	8000088c <putch>
80000350:	fe041ae3          	bnez	s0,80000344 <render+0x188>
80000354:	02812403          	lw	s0,40(sp)
80000358:	02c12083          	lw	ra,44(sp)
8000035c:	02412483          	lw	s1,36(sp)
80000360:	0000c697          	auipc	a3,0xc
80000364:	4846a683          	lw	a3,1156(a3) # 8000c7e4 <wrong>
80000368:	0000c617          	auipc	a2,0xc
8000036c:	48062603          	lw	a2,1152(a2) # 8000c7e8 <miss>
80000370:	0000c597          	auipc	a1,0xc
80000374:	47c5a583          	lw	a1,1148(a1) # 8000c7ec <hit>
80000378:	00001517          	auipc	a0,0x1
8000037c:	24850513          	addi	a0,a0,584 # 800015c0 <_etext>
80000380:	03010113          	addi	sp,sp,48
80000384:	2e90006f          	j	80000e6c <printf>
80000388:	00c10793          	addi	a5,sp,12
8000038c:	00f12023          	sw	a5,0(sp)
80000390:	ec9ff06f          	j	80000258 <render+0x9c>

80000394 <check_hit>:
80000394:	0000c617          	auipc	a2,0xc
80000398:	a4c60613          	addi	a2,a2,-1460 # 8000bde0 <chars>
8000039c:	00060793          	mv	a5,a2
800003a0:	00000713          	li	a4,0
800003a4:	fff00313          	li	t1,-1
800003a8:	08000593          	li	a1,128
800003ac:	0100006f          	j	800003bc <check_hit+0x28>
800003b0:	00170713          	addi	a4,a4,1
800003b4:	01478793          	addi	a5,a5,20
800003b8:	04b70263          	beq	a4,a1,800003fc <check_hit+0x68>
800003bc:	0007c683          	lbu	a3,0(a5)
800003c0:	fea698e3          	bne	a3,a0,800003b0 <check_hit+0x1c>
800003c4:	00c7a683          	lw	a3,12(a5)
800003c8:	fed054e3          	blez	a3,800003b0 <check_hit+0x1c>
800003cc:	00231693          	slli	a3,t1,0x2
800003d0:	006686b3          	add	a3,a3,t1
800003d4:	00269693          	slli	a3,a3,0x2
800003d8:	00d606b3          	add	a3,a2,a3
800003dc:	00034863          	bltz	t1,800003ec <check_hit+0x58>
800003e0:	0087a283          	lw	t0,8(a5)
800003e4:	0086a683          	lw	a3,8(a3)
800003e8:	fc56d4e3          	bge	a3,t0,800003b0 <check_hit+0x1c>
800003ec:	00070313          	mv	t1,a4
800003f0:	00170713          	addi	a4,a4,1
800003f4:	01478793          	addi	a5,a5,20
800003f8:	fcb712e3          	bne	a4,a1,800003bc <check_hit+0x28>
800003fc:	fff00793          	li	a5,-1
80000400:	06f30063          	beq	t1,a5,80000460 <check_hit+0xcc>
80000404:	0000c697          	auipc	a3,0xc
80000408:	3e868693          	addi	a3,a3,1000 # 8000c7ec <hit>
8000040c:	0006a703          	lw	a4,0(a3)
80000410:	ff410113          	addi	sp,sp,-12
80000414:	00231793          	slli	a5,t1,0x2
80000418:	00812223          	sw	s0,4(sp)
8000041c:	00112423          	sw	ra,8(sp)
80000420:	006787b3          	add	a5,a5,t1
80000424:	00170713          	addi	a4,a4,1
80000428:	00f00313          	li	t1,15
8000042c:	0000c517          	auipc	a0,0xc
80000430:	3c452503          	lw	a0,964(a0) # 8000c7f0 <screen_h>
80000434:	00279793          	slli	a5,a5,0x2
80000438:	01e00593          	li	a1,30
8000043c:	40a30533          	sub	a0,t1,a0
80000440:	00e6a023          	sw	a4,0(a3)
80000444:	00f60433          	add	s0,a2,a5
80000448:	5e4000ef          	jal	80000a2c <__divsi3>
8000044c:	00812083          	lw	ra,8(sp)
80000450:	00a42623          	sw	a0,12(s0)
80000454:	00412403          	lw	s0,4(sp)
80000458:	00c10113          	addi	sp,sp,12
8000045c:	00008067          	ret
80000460:	0000c717          	auipc	a4,0xc
80000464:	38470713          	addi	a4,a4,900 # 8000c7e4 <wrong>
80000468:	00072783          	lw	a5,0(a4)
8000046c:	00178793          	addi	a5,a5,1
80000470:	00f72023          	sw	a5,0(a4)
80000474:	00008067          	ret

80000478 <video_init>:
80000478:	fb810113          	addi	sp,sp,-72
8000047c:	04112223          	sw	ra,68(sp)
80000480:	04812023          	sw	s0,64(sp)
80000484:	02912e23          	sw	s1,60(sp)
80000488:	04810413          	addi	s0,sp,72
8000048c:	fdc40593          	addi	a1,s0,-36
80000490:	00900513          	li	a0,9
80000494:	510000ef          	jal	800009a4 <ioe_read>
80000498:	fe042783          	lw	a5,-32(s0)
8000049c:	fdc40593          	addi	a1,s0,-36
800004a0:	0000c497          	auipc	s1,0xc
800004a4:	35448493          	addi	s1,s1,852 # 8000c7f4 <screen_w>
800004a8:	00900513          	li	a0,9
800004ac:	00f4a023          	sw	a5,0(s1)
800004b0:	4f4000ef          	jal	800009a4 <ioe_read>
800004b4:	fe442583          	lw	a1,-28(s0)
800004b8:	0000c617          	auipc	a2,0xc
800004bc:	33860613          	addi	a2,a2,824 # 8000c7f0 <screen_h>
800004c0:	002a1737          	lui	a4,0x2a1
800004c4:	00b62023          	sw	a1,0(a2)
800004c8:	00002797          	auipc	a5,0x2
800004cc:	b1878793          	addi	a5,a5,-1256 # 80001fe0 <blank>
800004d0:	00002697          	auipc	a3,0x2
800004d4:	d1068693          	addi	a3,a3,-752 # 800021e0 <texture>
800004d8:	a2970713          	addi	a4,a4,-1495 # 2a0a29 <_entry_offset+0x2a0a29>
800004dc:	00e7a023          	sw	a4,0(a5)
800004e0:	00478793          	addi	a5,a5,4
800004e4:	fed79ce3          	bne	a5,a3,800004dc <video_init+0x64>
800004e8:	0004a703          	lw	a4,0(s1)
800004ec:	002a1537          	lui	a0,0x2a1
800004f0:	00000693          	li	a3,0
800004f4:	00271793          	slli	a5,a4,0x2
800004f8:	40f10133          	sub	sp,sp,a5
800004fc:	00010793          	mv	a5,sp
80000500:	fcf42a23          	sw	a5,-44(s0)
80000504:	a2950513          	addi	a0,a0,-1495 # 2a0a29 <_entry_offset+0x2a0a29>
80000508:	00e05a63          	blez	a4,8000051c <video_init+0xa4>
8000050c:	00a7a023          	sw	a0,0(a5)
80000510:	00168693          	addi	a3,a3,1
80000514:	00478793          	addi	a5,a5,4
80000518:	fed71ae3          	bne	a4,a3,8000050c <video_init+0x94>
8000051c:	00000793          	li	a5,0
80000520:	00b04663          	bgtz	a1,8000052c <video_init+0xb4>
80000524:	0500006f          	j	80000574 <video_init+0xfc>
80000528:	0004a703          	lw	a4,0(s1)
8000052c:	fef42023          	sw	a5,-32(s0)
80000530:	fcf42c23          	sw	a5,-40(s0)
80000534:	fd442783          	lw	a5,-44(s0)
80000538:	fdc40593          	addi	a1,s0,-36
8000053c:	00b00513          	li	a0,11
80000540:	fef42223          	sw	a5,-28(s0)
80000544:	00100793          	li	a5,1
80000548:	fee42423          	sw	a4,-24(s0)
8000054c:	fef42623          	sw	a5,-20(s0)
80000550:	fc042e23          	sw	zero,-36(s0)
80000554:	fe040823          	sb	zero,-16(s0)
80000558:	468000ef          	jal	800009c0 <ioe_write>
8000055c:	fd842783          	lw	a5,-40(s0)
80000560:	0000c617          	auipc	a2,0xc
80000564:	29060613          	addi	a2,a2,656 # 8000c7f0 <screen_h>
80000568:	00062703          	lw	a4,0(a2)
8000056c:	00178793          	addi	a5,a5,1
80000570:	fae7cce3          	blt	a5,a4,80000528 <video_init+0xb0>
80000574:	0000d637          	lui	a2,0xd
80000578:	c3360613          	addi	a2,a2,-973 # cc33 <_entry_offset+0xcc33>
8000057c:	00eef5b7          	lui	a1,0xeef
80000580:	00ff0537          	lui	a0,0xff0
80000584:	fcc42c23          	sw	a2,-40(s0)
80000588:	eee58613          	addi	a2,a1,-274 # eeeeee <_entry_offset+0xeeeeee>
8000058c:	002a13b7          	lui	t2,0x2a1
80000590:	00007337          	lui	t1,0x7
80000594:	fcc42a23          	sw	a2,-44(s0)
80000598:	03350613          	addi	a2,a0,51 # ff0033 <_entry_offset+0xff0033>
8000059c:	00001797          	auipc	a5,0x1
800005a0:	4a078793          	addi	a5,a5,1184 # 80001a3c <font>
800005a4:	00002717          	auipc	a4,0x2
800005a8:	c3c70713          	addi	a4,a4,-964 # 800021e0 <texture>
800005ac:	00000693          	li	a3,0
800005b0:	a2938393          	addi	t2,t2,-1495 # 2a0a29 <_entry_offset+0x2a0a29>
800005b4:	fcc42823          	sw	a2,-48(s0)
800005b8:	80030493          	addi	s1,t1,-2048 # 6800 <_entry_offset+0x6800>
800005bc:	00070613          	mv	a2,a4
800005c0:	00078593          	mv	a1,a5
800005c4:	00000513          	li	a0,0
800005c8:	fcf42023          	sw	a5,-64(s0)
800005cc:	fae42e23          	sw	a4,-68(s0)
800005d0:	fad42c23          	sw	a3,-72(s0)
800005d4:	00003337          	lui	t1,0x3
800005d8:	0005c283          	lbu	t0,0(a1)
800005dc:	00060793          	mv	a5,a2
800005e0:	00700713          	li	a4,7
800005e4:	40030313          	addi	t1,t1,1024 # 3400 <_entry_offset+0x3400>
800005e8:	fca42623          	sw	a0,-52(s0)
800005ec:	fcc42423          	sw	a2,-56(s0)
800005f0:	fcb42223          	sw	a1,-60(s0)
800005f4:	0340006f          	j	80000628 <video_init+0x1b0>
800005f8:	fd842503          	lw	a0,-40(s0)
800005fc:	fd442603          	lw	a2,-44(s0)
80000600:	fd042683          	lw	a3,-48(s0)
80000604:	009785b3          	add	a1,a5,s1
80000608:	00a5a023          	sw	a0,0(a1)
8000060c:	00c7a023          	sw	a2,0(a5)
80000610:	00678633          	add	a2,a5,t1
80000614:	00d62023          	sw	a3,0(a2)
80000618:	fff70713          	addi	a4,a4,-1
8000061c:	fff00693          	li	a3,-1
80000620:	00478793          	addi	a5,a5,4
80000624:	02d70063          	beq	a4,a3,80000644 <video_init+0x1cc>
80000628:	40e2d6b3          	sra	a3,t0,a4
8000062c:	0016f693          	andi	a3,a3,1
80000630:	fc0694e3          	bnez	a3,800005f8 <video_init+0x180>
80000634:	00038513          	mv	a0,t2
80000638:	00038613          	mv	a2,t2
8000063c:	00038693          	mv	a3,t2
80000640:	fc5ff06f          	j	80000604 <video_init+0x18c>
80000644:	fcc42503          	lw	a0,-52(s0)
80000648:	fc842603          	lw	a2,-56(s0)
8000064c:	fc442583          	lw	a1,-60(s0)
80000650:	00850513          	addi	a0,a0,8
80000654:	08000793          	li	a5,128
80000658:	00158593          	addi	a1,a1,1
8000065c:	02060613          	addi	a2,a2,32
80000660:	f6f51ae3          	bne	a0,a5,800005d4 <video_init+0x15c>
80000664:	fb842683          	lw	a3,-72(s0)
80000668:	fc042783          	lw	a5,-64(s0)
8000066c:	fbc42703          	lw	a4,-68(s0)
80000670:	00001637          	lui	a2,0x1
80000674:	08068693          	addi	a3,a3,128
80000678:	d0060613          	addi	a2,a2,-768 # d00 <_entry_offset+0xd00>
8000067c:	01078793          	addi	a5,a5,16
80000680:	20070713          	addi	a4,a4,512
80000684:	f2c69ce3          	bne	a3,a2,800005bc <video_init+0x144>
80000688:	fb840113          	addi	sp,s0,-72
8000068c:	04412083          	lw	ra,68(sp)
80000690:	04012403          	lw	s0,64(sp)
80000694:	03c12483          	lw	s1,60(sp)
80000698:	04810113          	addi	sp,sp,72
8000069c:	00008067          	ret

800006a0 <main>:
800006a0:	fd010113          	addi	sp,sp,-48
800006a4:	01f10793          	addi	a5,sp,31
800006a8:	ff87f793          	andi	a5,a5,-8
800006ac:	00f12023          	sw	a5,0(sp)
800006b0:	02112623          	sw	ra,44(sp)
800006b4:	02812423          	sw	s0,40(sp)
800006b8:	298000ef          	jal	80000950 <ioe_init>
800006bc:	dbdff0ef          	jal	80000478 <video_init>
800006c0:	01010593          	addi	a1,sp,16
800006c4:	00400513          	li	a0,4
800006c8:	2dc000ef          	jal	800009a4 <ioe_read>
800006cc:	01014783          	lbu	a5,16(sp)
800006d0:	06079263          	bnez	a5,80000734 <main+0x94>
800006d4:	00001417          	auipc	s0,0x1
800006d8:	f0c40413          	addi	s0,s0,-244 # 800015e0 <_etext+0x20>
800006dc:	04100513          	li	a0,65
800006e0:	1ac000ef          	jal	8000088c <putch>
800006e4:	00144503          	lbu	a0,1(s0)
800006e8:	00140413          	addi	s0,s0,1
800006ec:	fe051ae3          	bnez	a0,800006e0 <main+0x40>
800006f0:	00001417          	auipc	s0,0x1
800006f4:	f0040413          	addi	s0,s0,-256 # 800015f0 <_etext+0x30>
800006f8:	07200513          	li	a0,114
800006fc:	190000ef          	jal	8000088c <putch>
80000700:	00144503          	lbu	a0,1(s0)
80000704:	00140413          	addi	s0,s0,1
80000708:	fe051ae3          	bnez	a0,800006fc <main+0x5c>
8000070c:	00001417          	auipc	s0,0x1
80000710:	ef440413          	addi	s0,s0,-268 # 80001600 <_etext+0x40>
80000714:	02000513          	li	a0,32
80000718:	174000ef          	jal	8000088c <putch>
8000071c:	00144503          	lbu	a0,1(s0)
80000720:	00140413          	addi	s0,s0,1
80000724:	fe051ae3          	bnez	a0,80000718 <main+0x78>
80000728:	00100513          	li	a0,1
8000072c:	02912223          	sw	s1,36(sp)
80000730:	168000ef          	jal	80000898 <halt>
80000734:	01010593          	addi	a1,sp,16
80000738:	00700513          	li	a0,7
8000073c:	268000ef          	jal	800009a4 <ioe_read>
80000740:	01014783          	lbu	a5,16(sp)
80000744:	04079e63          	bnez	a5,800007a0 <main+0x100>
80000748:	00001417          	auipc	s0,0x1
8000074c:	e9840413          	addi	s0,s0,-360 # 800015e0 <_etext+0x20>
80000750:	04100513          	li	a0,65
80000754:	138000ef          	jal	8000088c <putch>
80000758:	00144503          	lbu	a0,1(s0)
8000075c:	00140413          	addi	s0,s0,1
80000760:	fe051ae3          	bnez	a0,80000754 <main+0xb4>
80000764:	00001417          	auipc	s0,0x1
80000768:	eec40413          	addi	s0,s0,-276 # 80001650 <_etext+0x90>
8000076c:	07200513          	li	a0,114
80000770:	11c000ef          	jal	8000088c <putch>
80000774:	00144503          	lbu	a0,1(s0)
80000778:	00140413          	addi	s0,s0,1
8000077c:	fe051ae3          	bnez	a0,80000770 <main+0xd0>
80000780:	00001417          	auipc	s0,0x1
80000784:	ee440413          	addi	s0,s0,-284 # 80001664 <_etext+0xa4>
80000788:	02000513          	li	a0,32
8000078c:	100000ef          	jal	8000088c <putch>
80000790:	00144503          	lbu	a0,1(s0)
80000794:	00140413          	addi	s0,s0,1
80000798:	fe051ae3          	bnez	a0,8000078c <main+0xec>
8000079c:	f8dff06f          	j	80000728 <main+0x88>
800007a0:	00001517          	auipc	a0,0x1
800007a4:	f1450513          	addi	a0,a0,-236 # 800016b4 <_etext+0xf4>
800007a8:	02912223          	sw	s1,36(sp)
800007ac:	6c0000ef          	jal	80000e6c <printf>
800007b0:	00012403          	lw	s0,0(sp)
800007b4:	00600513          	li	a0,6
800007b8:	00040593          	mv	a1,s0
800007bc:	1e8000ef          	jal	800009a4 <ioe_read>
800007c0:	00042703          	lw	a4,0(s0)
800007c4:	00442783          	lw	a5,4(s0)
800007c8:	00012623          	sw	zero,12(sp)
800007cc:	00e12223          	sw	a4,4(sp)
800007d0:	00f12423          	sw	a5,8(sp)
800007d4:	00000413          	li	s0,0
800007d8:	00012483          	lw	s1,0(sp)
800007dc:	00600513          	li	a0,6
800007e0:	00048593          	mv	a1,s1
800007e4:	1c0000ef          	jal	800009a4 <ioe_read>
800007e8:	0004a783          	lw	a5,0(s1)
800007ec:	00412703          	lw	a4,4(sp)
800007f0:	0044a583          	lw	a1,4(s1)
800007f4:	00008637          	lui	a2,0x8
800007f8:	40e78533          	sub	a0,a5,a4
800007fc:	00812703          	lw	a4,8(sp)
80000800:	00a7b7b3          	sltu	a5,a5,a0
80000804:	23560613          	addi	a2,a2,565 # 8235 <_entry_offset+0x8235>
80000808:	40e585b3          	sub	a1,a1,a4
8000080c:	00000693          	li	a3,0
80000810:	40f585b3          	sub	a1,a1,a5
80000814:	43d000ef          	jal	80001450 <__udivdi3>
80000818:	00050493          	mv	s1,a0
8000081c:	00a45a63          	bge	s0,a0,80000830 <main+0x190>
80000820:	00040513          	mv	a0,s0
80000824:	00140413          	addi	s0,s0,1
80000828:	8c1ff0ef          	jal	800000e8 <game_logic_update>
8000082c:	fe849ae3          	bne	s1,s0,80000820 <main+0x180>
80000830:	01010593          	addi	a1,sp,16
80000834:	00800513          	li	a0,8
80000838:	16c000ef          	jal	800009a4 <ioe_read>
8000083c:	01412783          	lw	a5,20(sp)
80000840:	01014703          	lbu	a4,16(sp)
80000844:	02078663          	beqz	a5,80000870 <main+0x1d0>
80000848:	fe0704e3          	beqz	a4,80000830 <main+0x190>
8000084c:	00100713          	li	a4,1
80000850:	02e78a63          	beq	a5,a4,80000884 <main+0x1e4>
80000854:	00001717          	auipc	a4,0x1
80000858:	ee870713          	addi	a4,a4,-280 # 8000173c <lut>
8000085c:	00f707b3          	add	a5,a4,a5
80000860:	0007c503          	lbu	a0,0(a5)
80000864:	fc0506e3          	beqz	a0,80000830 <main+0x190>
80000868:	b2dff0ef          	jal	80000394 <check_hit>
8000086c:	fc5ff06f          	j	80000830 <main+0x190>
80000870:	00c12783          	lw	a5,12(sp)
80000874:	f687d2e3          	bge	a5,s0,800007d8 <main+0x138>
80000878:	945ff0ef          	jal	800001bc <render>
8000087c:	00812623          	sw	s0,12(sp)
80000880:	f59ff06f          	j	800007d8 <main+0x138>
80000884:	00000513          	li	a0,0
80000888:	010000ef          	jal	80000898 <halt>

8000088c <putch>:
8000088c:	a00007b7          	lui	a5,0xa0000
80000890:	3ea78c23          	sb	a0,1016(a5) # a00003f8 <_end+0x1ffeb3f8>
80000894:	00008067          	ret

80000898 <halt>:
80000898:	00050513          	mv	a0,a0
8000089c:	00100073          	ebreak
800008a0:	0000006f          	j	800008a0 <halt+0x8>

800008a4 <_trm_init>:
800008a4:	ff410113          	addi	sp,sp,-12
800008a8:	00001517          	auipc	a0,0x1
800008ac:	e9050513          	addi	a0,a0,-368 # 80001738 <mainargs>
800008b0:	00112423          	sw	ra,8(sp)
800008b4:	dedff0ef          	jal	800006a0 <main>
800008b8:	00050513          	mv	a0,a0
800008bc:	00100073          	ebreak
800008c0:	0000006f          	j	800008c0 <_trm_init+0x1c>

800008c4 <__am_timer_config>:
800008c4:	00100793          	li	a5,1
800008c8:	00f50023          	sb	a5,0(a0)
800008cc:	00f500a3          	sb	a5,1(a0)
800008d0:	00008067          	ret

800008d4 <__am_input_config>:
800008d4:	00100793          	li	a5,1
800008d8:	00f50023          	sb	a5,0(a0)
800008dc:	00008067          	ret

800008e0 <__am_uart_config>:
800008e0:	00050023          	sb	zero,0(a0)
800008e4:	00008067          	ret

800008e8 <fail>:
800008e8:	ff410113          	addi	sp,sp,-12
800008ec:	00812223          	sw	s0,4(sp)
800008f0:	00112423          	sw	ra,8(sp)
800008f4:	00001417          	auipc	s0,0x1
800008f8:	cec40413          	addi	s0,s0,-788 # 800015e0 <_etext+0x20>
800008fc:	04100513          	li	a0,65
80000900:	f8dff0ef          	jal	8000088c <putch>
80000904:	00144503          	lbu	a0,1(s0)
80000908:	00140413          	addi	s0,s0,1
8000090c:	fe051ae3          	bnez	a0,80000900 <fail+0x18>
80000910:	00001417          	auipc	s0,0x1
80000914:	db840413          	addi	s0,s0,-584 # 800016c8 <_etext+0x108>
80000918:	06100513          	li	a0,97
8000091c:	f71ff0ef          	jal	8000088c <putch>
80000920:	00144503          	lbu	a0,1(s0)
80000924:	00140413          	addi	s0,s0,1
80000928:	fe051ae3          	bnez	a0,8000091c <fail+0x34>
8000092c:	00001417          	auipc	s0,0x1
80000930:	db840413          	addi	s0,s0,-584 # 800016e4 <_etext+0x124>
80000934:	02000513          	li	a0,32
80000938:	f55ff0ef          	jal	8000088c <putch>
8000093c:	00144503          	lbu	a0,1(s0)
80000940:	00140413          	addi	s0,s0,1
80000944:	fe051ae3          	bnez	a0,80000938 <fail+0x50>
80000948:	00100513          	li	a0,1
8000094c:	f4dff0ef          	jal	80000898 <halt>

80000950 <ioe_init>:
80000950:	ff410113          	addi	sp,sp,-12
80000954:	00112423          	sw	ra,8(sp)
80000958:	00001797          	auipc	a5,0x1
8000095c:	ee478793          	addi	a5,a5,-284 # 8000183c <lut>
80000960:	00001697          	auipc	a3,0x1
80000964:	0dc68693          	addi	a3,a3,220 # 80001a3c <font>
80000968:	00000617          	auipc	a2,0x0
8000096c:	f8060613          	addi	a2,a2,-128 # 800008e8 <fail>
80000970:	00c0006f          	j	8000097c <ioe_init+0x2c>
80000974:	00478793          	addi	a5,a5,4
80000978:	00d78c63          	beq	a5,a3,80000990 <ioe_init+0x40>
8000097c:	0007a703          	lw	a4,0(a5)
80000980:	fe071ae3          	bnez	a4,80000974 <ioe_init+0x24>
80000984:	00c7a023          	sw	a2,0(a5)
80000988:	00478793          	addi	a5,a5,4
8000098c:	fed798e3          	bne	a5,a3,8000097c <ioe_init+0x2c>
80000990:	04c000ef          	jal	800009dc <__am_timer_init>
80000994:	00812083          	lw	ra,8(sp)
80000998:	00100513          	li	a0,1
8000099c:	00c10113          	addi	sp,sp,12
800009a0:	00008067          	ret

800009a4 <ioe_read>:
800009a4:	00251513          	slli	a0,a0,0x2
800009a8:	00001797          	auipc	a5,0x1
800009ac:	e9478793          	addi	a5,a5,-364 # 8000183c <lut>
800009b0:	00a787b3          	add	a5,a5,a0
800009b4:	0007a783          	lw	a5,0(a5)
800009b8:	00058513          	mv	a0,a1
800009bc:	00078067          	jr	a5

800009c0 <ioe_write>:
800009c0:	00251513          	slli	a0,a0,0x2
800009c4:	00001797          	auipc	a5,0x1
800009c8:	e7878793          	addi	a5,a5,-392 # 8000183c <lut>
800009cc:	00a787b3          	add	a5,a5,a0
800009d0:	0007a783          	lw	a5,0(a5)
800009d4:	00058513          	mv	a0,a1
800009d8:	00078067          	jr	a5

800009dc <__am_timer_init>:
800009dc:	00008067          	ret

800009e0 <__am_timer_uptime>:
800009e0:	a0000737          	lui	a4,0xa0000
800009e4:	a00007b7          	lui	a5,0xa0000
800009e8:	04870713          	addi	a4,a4,72 # a0000048 <_end+0x1ffeb048>
800009ec:	04c7a683          	lw	a3,76(a5) # a000004c <_end+0x1ffeb04c>
800009f0:	00072703          	lw	a4,0(a4)
800009f4:	00d52223          	sw	a3,4(a0)
800009f8:	00e52023          	sw	a4,0(a0)
800009fc:	00008067          	ret

80000a00 <__am_timer_rtc>:
80000a00:	76c00793          	li	a5,1900
80000a04:	00052a23          	sw	zero,20(a0)
80000a08:	00052823          	sw	zero,16(a0)
80000a0c:	00052623          	sw	zero,12(a0)
80000a10:	00052423          	sw	zero,8(a0)
80000a14:	00052223          	sw	zero,4(a0)
80000a18:	00f52023          	sw	a5,0(a0)
80000a1c:	00008067          	ret

80000a20 <__am_input_keybrd>:
80000a20:	00050023          	sb	zero,0(a0)
80000a24:	00052223          	sw	zero,4(a0)
80000a28:	00008067          	ret

80000a2c <__divsi3>:
80000a2c:	06054063          	bltz	a0,80000a8c <__umodsi3+0x10>
80000a30:	0605c663          	bltz	a1,80000a9c <__umodsi3+0x20>

80000a34 <__hidden___udivsi3>:
80000a34:	00058613          	mv	a2,a1
80000a38:	00050593          	mv	a1,a0
80000a3c:	fff00513          	li	a0,-1
80000a40:	02060c63          	beqz	a2,80000a78 <__hidden___udivsi3+0x44>
80000a44:	00100693          	li	a3,1
80000a48:	00b67a63          	bgeu	a2,a1,80000a5c <__hidden___udivsi3+0x28>
80000a4c:	00c05863          	blez	a2,80000a5c <__hidden___udivsi3+0x28>
80000a50:	00161613          	slli	a2,a2,0x1
80000a54:	00169693          	slli	a3,a3,0x1
80000a58:	feb66ae3          	bltu	a2,a1,80000a4c <__hidden___udivsi3+0x18>
80000a5c:	00000513          	li	a0,0
80000a60:	00c5e663          	bltu	a1,a2,80000a6c <__hidden___udivsi3+0x38>
80000a64:	40c585b3          	sub	a1,a1,a2
80000a68:	00d56533          	or	a0,a0,a3
80000a6c:	0016d693          	srli	a3,a3,0x1
80000a70:	00165613          	srli	a2,a2,0x1
80000a74:	fe0696e3          	bnez	a3,80000a60 <__hidden___udivsi3+0x2c>
80000a78:	00008067          	ret

80000a7c <__umodsi3>:
80000a7c:	00008293          	mv	t0,ra
80000a80:	fb5ff0ef          	jal	80000a34 <__hidden___udivsi3>
80000a84:	00058513          	mv	a0,a1
80000a88:	00028067          	jr	t0
80000a8c:	40a00533          	neg	a0,a0
80000a90:	00b04863          	bgtz	a1,80000aa0 <__umodsi3+0x24>
80000a94:	40b005b3          	neg	a1,a1
80000a98:	f9dff06f          	j	80000a34 <__hidden___udivsi3>
80000a9c:	40b005b3          	neg	a1,a1
80000aa0:	00008293          	mv	t0,ra
80000aa4:	f91ff0ef          	jal	80000a34 <__hidden___udivsi3>
80000aa8:	40a00533          	neg	a0,a0
80000aac:	00028067          	jr	t0

80000ab0 <__modsi3>:
80000ab0:	00008293          	mv	t0,ra
80000ab4:	0005ca63          	bltz	a1,80000ac8 <__modsi3+0x18>
80000ab8:	00054c63          	bltz	a0,80000ad0 <__modsi3+0x20>
80000abc:	f79ff0ef          	jal	80000a34 <__hidden___udivsi3>
80000ac0:	00058513          	mv	a0,a1
80000ac4:	00028067          	jr	t0
80000ac8:	40b005b3          	neg	a1,a1
80000acc:	fe0558e3          	bgez	a0,80000abc <__modsi3+0xc>
80000ad0:	40a00533          	neg	a0,a0
80000ad4:	f61ff0ef          	jal	80000a34 <__hidden___udivsi3>
80000ad8:	40b00533          	neg	a0,a1
80000adc:	00028067          	jr	t0

80000ae0 <vsprintf>:
80000ae0:	f8010113          	addi	sp,sp,-128
80000ae4:	06112e23          	sw	ra,124(sp)
80000ae8:	0005c303          	lbu	t1,0(a1)
80000aec:	00c12023          	sw	a2,0(sp)
80000af0:	00050393          	mv	t2,a0
80000af4:	34030c63          	beqz	t1,80000e4c <vsprintf+0x36c>
80000af8:	06812c23          	sw	s0,120(sp)
80000afc:	06912a23          	sw	s1,116(sp)
80000b00:	00000713          	li	a4,0
80000b04:	00000693          	li	a3,0
80000b08:	00050613          	mv	a2,a0
80000b0c:	00058293          	mv	t0,a1
80000b10:	0200006f          	j	80000b30 <vsprintf+0x50>
80000b14:	00078713          	mv	a4,a5
80000b18:	00660023          	sb	t1,0(a2)
80000b1c:	00e287b3          	add	a5,t0,a4
80000b20:	0007c303          	lbu	t1,0(a5)
80000b24:	00168693          	addi	a3,a3,1
80000b28:	00d38633          	add	a2,t2,a3
80000b2c:	0e030c63          	beqz	t1,80000c24 <vsprintf+0x144>
80000b30:	02500593          	li	a1,37
80000b34:	00170793          	addi	a5,a4,1
80000b38:	00068493          	mv	s1,a3
80000b3c:	fcb31ce3          	bne	t1,a1,80000b14 <vsprintf+0x34>
80000b40:	00f28533          	add	a0,t0,a5
80000b44:	00054303          	lbu	t1,0(a0)
80000b48:	00012623          	sw	zero,12(sp)
80000b4c:	03000593          	li	a1,48
80000b50:	00b31c63          	bne	t1,a1,80000b68 <vsprintf+0x88>
80000b54:	00270793          	addi	a5,a4,2
80000b58:	00f28533          	add	a0,t0,a5
80000b5c:	00054303          	lbu	t1,0(a0)
80000b60:	00100713          	li	a4,1
80000b64:	00e12623          	sw	a4,12(sp)
80000b68:	fd030713          	addi	a4,t1,-48
80000b6c:	00e12223          	sw	a4,4(sp)
80000b70:	00900593          	li	a1,9
80000b74:	0ff77713          	zext.b	a4,a4
80000b78:	00000413          	li	s0,0
80000b7c:	04e5e263          	bltu	a1,a4,80000bc0 <vsprintf+0xe0>
80000b80:	00412583          	lw	a1,4(sp)
80000b84:	00040713          	mv	a4,s0
80000b88:	00d12423          	sw	a3,8(sp)
80000b8c:	00178793          	addi	a5,a5,1
80000b90:	00f28533          	add	a0,t0,a5
80000b94:	00271413          	slli	s0,a4,0x2
80000b98:	00054303          	lbu	t1,0(a0)
80000b9c:	00e40433          	add	s0,s0,a4
80000ba0:	00141413          	slli	s0,s0,0x1
80000ba4:	00858733          	add	a4,a1,s0
80000ba8:	fd030593          	addi	a1,t1,-48
80000bac:	0ff5f413          	zext.b	s0,a1
80000bb0:	00900693          	li	a3,9
80000bb4:	fc86fce3          	bgeu	a3,s0,80000b8c <vsprintf+0xac>
80000bb8:	00812683          	lw	a3,8(sp)
80000bbc:	00070413          	mv	s0,a4
80000bc0:	06c00713          	li	a4,108
80000bc4:	0ae30463          	beq	t1,a4,80000c6c <vsprintf+0x18c>
80000bc8:	00054703          	lbu	a4,0(a0)
80000bcc:	06400593          	li	a1,100
80000bd0:	0ab70863          	beq	a4,a1,80000c80 <vsprintf+0x1a0>
80000bd4:	07300593          	li	a1,115
80000bd8:	06b71663          	bne	a4,a1,80000c44 <vsprintf+0x164>
80000bdc:	00012703          	lw	a4,0(sp)
80000be0:	00072503          	lw	a0,0(a4)
80000be4:	00470313          	addi	t1,a4,4
80000be8:	02050463          	beqz	a0,80000c10 <vsprintf+0x130>
80000bec:	00054583          	lbu	a1,0(a0)
80000bf0:	02058063          	beqz	a1,80000c10 <vsprintf+0x130>
80000bf4:	00168693          	addi	a3,a3,1
80000bf8:	00d38633          	add	a2,t2,a3
80000bfc:	40968733          	sub	a4,a3,s1
80000c00:	feb60fa3          	sb	a1,-1(a2)
80000c04:	00e50733          	add	a4,a0,a4
80000c08:	00074583          	lbu	a1,0(a4)
80000c0c:	fe0594e3          	bnez	a1,80000bf4 <vsprintf+0x114>
80000c10:	00612023          	sw	t1,0(sp)
80000c14:	00178713          	addi	a4,a5,1
80000c18:	00e287b3          	add	a5,t0,a4
80000c1c:	0007c303          	lbu	t1,0(a5)
80000c20:	f00318e3          	bnez	t1,80000b30 <vsprintf+0x50>
80000c24:	00060393          	mv	t2,a2
80000c28:	07812403          	lw	s0,120(sp)
80000c2c:	07412483          	lw	s1,116(sp)
80000c30:	00038023          	sb	zero,0(t2)
80000c34:	07c12083          	lw	ra,124(sp)
80000c38:	00068513          	mv	a0,a3
80000c3c:	08010113          	addi	sp,sp,128
80000c40:	00008067          	ret
80000c44:	02500713          	li	a4,37
80000c48:	00e60023          	sb	a4,0(a2)
80000c4c:	00054603          	lbu	a2,0(a0)
80000c50:	00168713          	addi	a4,a3,1
80000c54:	00e38733          	add	a4,t2,a4
80000c58:	00268693          	addi	a3,a3,2
80000c5c:	00c70023          	sb	a2,0(a4)
80000c60:	00d38633          	add	a2,t2,a3
80000c64:	00178713          	addi	a4,a5,1
80000c68:	fb1ff06f          	j	80000c18 <vsprintf+0x138>
80000c6c:	00178793          	addi	a5,a5,1
80000c70:	00f28533          	add	a0,t0,a5
80000c74:	00054703          	lbu	a4,0(a0)
80000c78:	06400593          	li	a1,100
80000c7c:	f4b71ce3          	bne	a4,a1,80000bd4 <vsprintf+0xf4>
80000c80:	00012703          	lw	a4,0(sp)
80000c84:	00072483          	lw	s1,0(a4)
80000c88:	00470713          	addi	a4,a4,4
80000c8c:	00e12023          	sw	a4,0(sp)
80000c90:	41f4d713          	srai	a4,s1,0x1f
80000c94:	00e4e5b3          	or	a1,s1,a4
80000c98:	08059263          	bnez	a1,80000d1c <vsprintf+0x23c>
80000c9c:	03000713          	li	a4,48
80000ca0:	02e10a23          	sb	a4,52(sp)
80000ca4:	fff40413          	addi	s0,s0,-1
80000ca8:	06805463          	blez	s0,80000d10 <vsprintf+0x230>
80000cac:	00c12703          	lw	a4,12(sp)
80000cb0:	03410593          	addi	a1,sp,52
80000cb4:	04070e63          	beqz	a4,80000d10 <vsprintf+0x230>
80000cb8:	00c12703          	lw	a4,12(sp)
80000cbc:	fff40413          	addi	s0,s0,-1
80000cc0:	00138513          	addi	a0,t2,1
80000cc4:	00d50533          	add	a0,a0,a3
80000cc8:	00850533          	add	a0,a0,s0
80000ccc:	03000313          	li	t1,48
80000cd0:	00660023          	sb	t1,0(a2)
80000cd4:	00160613          	addi	a2,a2,1
80000cd8:	fec51ce3          	bne	a0,a2,80000cd0 <vsprintf+0x1f0>
80000cdc:	00168693          	addi	a3,a3,1
80000ce0:	008686b3          	add	a3,a3,s0
80000ce4:	00d38633          	add	a2,t2,a3
80000ce8:	00e58533          	add	a0,a1,a4
80000cec:	fff54303          	lbu	t1,-1(a0)
80000cf0:	fff50513          	addi	a0,a0,-1
80000cf4:	00160613          	addi	a2,a2,1
80000cf8:	fe660fa3          	sb	t1,-1(a2)
80000cfc:	fea598e3          	bne	a1,a0,80000cec <vsprintf+0x20c>
80000d00:	00d706b3          	add	a3,a4,a3
80000d04:	00d38633          	add	a2,t2,a3
80000d08:	00178713          	addi	a4,a5,1
80000d0c:	f0dff06f          	j	80000c18 <vsprintf+0x138>
80000d10:	00100713          	li	a4,1
80000d14:	03410593          	addi	a1,sp,52
80000d18:	fd1ff06f          	j	80000ce8 <vsprintf+0x208>
80000d1c:	00012c23          	sw	zero,24(sp)
80000d20:	00075e63          	bgez	a4,80000d3c <vsprintf+0x25c>
80000d24:	009035b3          	snez	a1,s1
80000d28:	40e00733          	neg	a4,a4
80000d2c:	40b70733          	sub	a4,a4,a1
80000d30:	00100593          	li	a1,1
80000d34:	409004b3          	neg	s1,s1
80000d38:	00b12c23          	sw	a1,24(sp)
80000d3c:	00000313          	li	t1,0
80000d40:	03410593          	addi	a1,sp,52
80000d44:	00812e23          	sw	s0,28(sp)
80000d48:	02f12023          	sw	a5,32(sp)
80000d4c:	00048413          	mv	s0,s1
80000d50:	02d12223          	sw	a3,36(sp)
80000d54:	02712423          	sw	t2,40(sp)
80000d58:	02512623          	sw	t0,44(sp)
80000d5c:	00030493          	mv	s1,t1
80000d60:	00b12823          	sw	a1,16(sp)
80000d64:	02c12823          	sw	a2,48(sp)
80000d68:	01012783          	lw	a5,16(sp)
80000d6c:	00912a23          	sw	s1,20(sp)
80000d70:	00148493          	addi	s1,s1,1
80000d74:	009783b3          	add	t2,a5,s1
80000d78:	00a00613          	li	a2,10
80000d7c:	00000693          	li	a3,0
80000d80:	00040513          	mv	a0,s0
80000d84:	00070593          	mv	a1,a4
80000d88:	00e12423          	sw	a4,8(sp)
80000d8c:	00712223          	sw	t2,4(sp)
80000d90:	634000ef          	jal	800013c4 <__moddi3>
80000d94:	00812703          	lw	a4,8(sp)
80000d98:	00412383          	lw	t2,4(sp)
80000d9c:	03050293          	addi	t0,a0,48
80000da0:	00000693          	li	a3,0
80000da4:	00040513          	mv	a0,s0
80000da8:	00070593          	mv	a1,a4
80000dac:	00a00613          	li	a2,10
80000db0:	fe538fa3          	sb	t0,-1(t2)
80000db4:	598000ef          	jal	8000134c <__divdi3>
80000db8:	00a5e6b3          	or	a3,a1,a0
80000dbc:	00058713          	mv	a4,a1
80000dc0:	00050413          	mv	s0,a0
80000dc4:	fa0692e3          	bnez	a3,80000d68 <vsprintf+0x288>
80000dc8:	01812703          	lw	a4,24(sp)
80000dcc:	01c12403          	lw	s0,28(sp)
80000dd0:	02012783          	lw	a5,32(sp)
80000dd4:	02412683          	lw	a3,36(sp)
80000dd8:	02812383          	lw	t2,40(sp)
80000ddc:	02c12283          	lw	t0,44(sp)
80000de0:	01012583          	lw	a1,16(sp)
80000de4:	03012603          	lw	a2,48(sp)
80000de8:	00048313          	mv	t1,s1
80000dec:	00071e63          	bnez	a4,80000e08 <vsprintf+0x328>
80000df0:	40940433          	sub	s0,s0,s1
80000df4:	00805663          	blez	s0,80000e00 <vsprintf+0x320>
80000df8:	00c12703          	lw	a4,12(sp)
80000dfc:	06071463          	bnez	a4,80000e64 <vsprintf+0x384>
80000e00:	00030713          	mv	a4,t1
80000e04:	ee5ff06f          	j	80000ce8 <vsprintf+0x208>
80000e08:	01412703          	lw	a4,20(sp)
80000e0c:	04048513          	addi	a0,s1,64
80000e10:	03410493          	addi	s1,sp,52
80000e14:	00950533          	add	a0,a0,s1
80000e18:	00270713          	addi	a4,a4,2
80000e1c:	02d00493          	li	s1,45
80000e20:	fc950023          	sb	s1,-64(a0)
80000e24:	40e40433          	sub	s0,s0,a4
80000e28:	ec8050e3          	blez	s0,80000ce8 <vsprintf+0x208>
80000e2c:	00c12503          	lw	a0,12(sp)
80000e30:	ea050ce3          	beqz	a0,80000ce8 <vsprintf+0x208>
80000e34:	02d00713          	li	a4,45
80000e38:	00168693          	addi	a3,a3,1
80000e3c:	00e60023          	sb	a4,0(a2)
80000e40:	00030713          	mv	a4,t1
80000e44:	00d38633          	add	a2,t2,a3
80000e48:	e79ff06f          	j	80000cc0 <vsprintf+0x1e0>
80000e4c:	00038023          	sb	zero,0(t2)
80000e50:	07c12083          	lw	ra,124(sp)
80000e54:	00000693          	li	a3,0
80000e58:	00068513          	mv	a0,a3
80000e5c:	08010113          	addi	sp,sp,128
80000e60:	00008067          	ret
80000e64:	00912623          	sw	s1,12(sp)
80000e68:	e51ff06f          	j	80000cb8 <vsprintf+0x1d8>

80000e6c <printf>:
80000e6c:	fd810113          	addi	sp,sp,-40
80000e70:	fffff2b7          	lui	t0,0xfffff
80000e74:	00112823          	sw	ra,16(sp)
80000e78:	00912423          	sw	s1,8(sp)
80000e7c:	00812623          	sw	s0,12(sp)
80000e80:	00510133          	add	sp,sp,t0
80000e84:	000012b7          	lui	t0,0x1
80000e88:	fffff337          	lui	t1,0xfffff
80000e8c:	00428393          	addi	t2,t0,4 # 1004 <_entry_offset+0x1004>
80000e90:	006383b3          	add	t2,t2,t1
80000e94:	00410313          	addi	t1,sp,4
80000e98:	00410093          	addi	ra,sp,4
80000e9c:	00638333          	add	t1,t2,t1
80000ea0:	01028393          	addi	t2,t0,16
80000ea4:	00612023          	sw	t1,0(sp)
80000ea8:	001383b3          	add	t2,t2,ra
80000eac:	00b3a023          	sw	a1,0(t2)
80000eb0:	01428593          	addi	a1,t0,20
80000eb4:	001585b3          	add	a1,a1,ra
80000eb8:	01828393          	addi	t2,t0,24
80000ebc:	00c5a023          	sw	a2,0(a1)
80000ec0:	001383b3          	add	t2,t2,ra
80000ec4:	01428313          	addi	t1,t0,20
80000ec8:	00050593          	mv	a1,a0
80000ecc:	00012503          	lw	a0,0(sp)
80000ed0:	00d3a023          	sw	a3,0(t2)
80000ed4:	00028693          	mv	a3,t0
80000ed8:	01c28293          	addi	t0,t0,28
80000edc:	001282b3          	add	t0,t0,ra
80000ee0:	00e2a023          	sw	a4,0(t0)
80000ee4:	02068713          	addi	a4,a3,32
80000ee8:	00170733          	add	a4,a4,ra
80000eec:	00f72023          	sw	a5,0(a4)
80000ef0:	00012783          	lw	a5,0(sp)
80000ef4:	00230333          	add	t1,t1,sp
80000ef8:	00030613          	mv	a2,t1
80000efc:	fe67ae23          	sw	t1,-4(a5)
80000f00:	be1ff0ef          	jal	80000ae0 <vsprintf>
80000f04:	00012783          	lw	a5,0(sp)
80000f08:	00050493          	mv	s1,a0
80000f0c:	0007c503          	lbu	a0,0(a5)
80000f10:	00050c63          	beqz	a0,80000f28 <printf+0xbc>
80000f14:	00178413          	addi	s0,a5,1
80000f18:	975ff0ef          	jal	8000088c <putch>
80000f1c:	00044503          	lbu	a0,0(s0)
80000f20:	00140413          	addi	s0,s0,1
80000f24:	fe051ae3          	bnez	a0,80000f18 <printf+0xac>
80000f28:	000012b7          	lui	t0,0x1
80000f2c:	00510133          	add	sp,sp,t0
80000f30:	01012083          	lw	ra,16(sp)
80000f34:	00048513          	mv	a0,s1
80000f38:	00c12403          	lw	s0,12(sp)
80000f3c:	00812483          	lw	s1,8(sp)
80000f40:	02810113          	addi	sp,sp,40
80000f44:	00008067          	ret

80000f48 <__udivmoddi4>:
80000f48:	fdc10113          	addi	sp,sp,-36
80000f4c:	00812e23          	sw	s0,28(sp)
80000f50:	02112023          	sw	ra,32(sp)
80000f54:	00060413          	mv	s0,a2
80000f58:	00050293          	mv	t0,a0
80000f5c:	00070613          	mv	a2,a4
80000f60:	04059663          	bnez	a1,80000fac <__udivmoddi4+0x64>
80000f64:	20069e63          	bnez	a3,80001180 <__udivmoddi4+0x238>
80000f68:	00e12023          	sw	a4,0(sp)
80000f6c:	02070063          	beqz	a4,80000f8c <__udivmoddi4+0x44>
80000f70:	00040593          	mv	a1,s0
80000f74:	00a12223          	sw	a0,4(sp)
80000f78:	b05ff0ef          	jal	80000a7c <__umodsi3>
80000f7c:	00012603          	lw	a2,0(sp)
80000f80:	00412283          	lw	t0,4(sp)
80000f84:	00a62023          	sw	a0,0(a2)
80000f88:	00062223          	sw	zero,4(a2)
80000f8c:	00040593          	mv	a1,s0
80000f90:	00028513          	mv	a0,t0
80000f94:	aa1ff0ef          	jal	80000a34 <__hidden___udivsi3>
80000f98:	00000593          	li	a1,0
80000f9c:	02012083          	lw	ra,32(sp)
80000fa0:	01c12403          	lw	s0,28(sp)
80000fa4:	02410113          	addi	sp,sp,36
80000fa8:	00008067          	ret
80000fac:	00912c23          	sw	s1,24(sp)
80000fb0:	00058313          	mv	t1,a1
80000fb4:	00040493          	mv	s1,s0
80000fb8:	08041a63          	bnez	s0,8000104c <__udivmoddi4+0x104>
80000fbc:	22068e63          	beqz	a3,800011f8 <__udivmoddi4+0x2b0>
80000fc0:	2c050663          	beqz	a0,8000128c <__udivmoddi4+0x344>
80000fc4:	fff68793          	addi	a5,a3,-1
80000fc8:	00d7f5b3          	and	a1,a5,a3
80000fcc:	32058063          	beqz	a1,800012ec <__udivmoddi4+0x3a4>
80000fd0:	00a12823          	sw	a0,16(sp)
80000fd4:	00068513          	mv	a0,a3
80000fd8:	00612a23          	sw	t1,20(sp)
80000fdc:	00c12623          	sw	a2,12(sp)
80000fe0:	00612023          	sw	t1,0(sp)
80000fe4:	00d12423          	sw	a3,8(sp)
80000fe8:	470000ef          	jal	80001458 <__clzsi2>
80000fec:	00012703          	lw	a4,0(sp)
80000ff0:	00050793          	mv	a5,a0
80000ff4:	00f12023          	sw	a5,0(sp)
80000ff8:	00070513          	mv	a0,a4
80000ffc:	00e12223          	sw	a4,4(sp)
80001000:	458000ef          	jal	80001458 <__clzsi2>
80001004:	00012783          	lw	a5,0(sp)
80001008:	00412703          	lw	a4,4(sp)
8000100c:	00812683          	lw	a3,8(sp)
80001010:	40a78533          	sub	a0,a5,a0
80001014:	01e00793          	li	a5,30
80001018:	00c12603          	lw	a2,12(sp)
8000101c:	01012283          	lw	t0,16(sp)
80001020:	01412303          	lw	t1,20(sp)
80001024:	1ca7ec63          	bltu	a5,a0,800011fc <__udivmoddi4+0x2b4>
80001028:	00150393          	addi	t2,a0,1
8000102c:	02000513          	li	a0,32
80001030:	40750533          	sub	a0,a0,t2
80001034:	00a71333          	sll	t1,a4,a0
80001038:	0072d5b3          	srl	a1,t0,t2
8000103c:	007757b3          	srl	a5,a4,t2
80001040:	00a29533          	sll	a0,t0,a0
80001044:	00b36733          	or	a4,t1,a1
80001048:	0800006f          	j	800010c8 <__udivmoddi4+0x180>
8000104c:	14068663          	beqz	a3,80001198 <__udivmoddi4+0x250>
80001050:	00a12423          	sw	a0,8(sp)
80001054:	00068513          	mv	a0,a3
80001058:	00c12223          	sw	a2,4(sp)
8000105c:	00b12623          	sw	a1,12(sp)
80001060:	00b12023          	sw	a1,0(sp)
80001064:	00d12823          	sw	a3,16(sp)
80001068:	3f0000ef          	jal	80001458 <__clzsi2>
8000106c:	00012703          	lw	a4,0(sp)
80001070:	00050493          	mv	s1,a0
80001074:	00070513          	mv	a0,a4
80001078:	3e0000ef          	jal	80001458 <__clzsi2>
8000107c:	40a48533          	sub	a0,s1,a0
80001080:	01f00793          	li	a5,31
80001084:	00412603          	lw	a2,4(sp)
80001088:	00812283          	lw	t0,8(sp)
8000108c:	00c12303          	lw	t1,12(sp)
80001090:	16a7e663          	bltu	a5,a0,800011fc <__udivmoddi4+0x2b4>
80001094:	00150393          	addi	t2,a0,1
80001098:	02000793          	li	a5,32
8000109c:	00012703          	lw	a4,0(sp)
800010a0:	01012683          	lw	a3,16(sp)
800010a4:	00028513          	mv	a0,t0
800010a8:	26f38a63          	beq	t2,a5,8000131c <__udivmoddi4+0x3d4>
800010ac:	407785b3          	sub	a1,a5,t2
800010b0:	0072d333          	srl	t1,t0,t2
800010b4:	00b712b3          	sll	t0,a4,a1
800010b8:	007757b3          	srl	a5,a4,t2
800010bc:	00b51533          	sll	a0,a0,a1
800010c0:	0062e733          	or	a4,t0,t1
800010c4:	00000493          	li	s1,0
800010c8:	00c12223          	sw	a2,4(sp)
800010cc:	00068613          	mv	a2,a3
800010d0:	00012023          	sw	zero,0(sp)
800010d4:	00078693          	mv	a3,a5
800010d8:	00060793          	mv	a5,a2
800010dc:	01f55593          	srli	a1,a0,0x1f
800010e0:	00171613          	slli	a2,a4,0x1
800010e4:	00b66633          	or	a2,a2,a1
800010e8:	01f75713          	srli	a4,a4,0x1f
800010ec:	00169693          	slli	a3,a3,0x1
800010f0:	00e6e6b3          	or	a3,a3,a4
800010f4:	40c40733          	sub	a4,s0,a2
800010f8:	40d78333          	sub	t1,a5,a3
800010fc:	00e435b3          	sltu	a1,s0,a4
80001100:	40b305b3          	sub	a1,t1,a1
80001104:	00173713          	seqz	a4,a4
80001108:	40e585b3          	sub	a1,a1,a4
8000110c:	41f5d313          	srai	t1,a1,0x1f
80001110:	00837733          	and	a4,t1,s0
80001114:	00f37333          	and	t1,t1,a5
80001118:	406686b3          	sub	a3,a3,t1
8000111c:	00012303          	lw	t1,0(sp)
80001120:	40e60733          	sub	a4,a2,a4
80001124:	01f5d593          	srli	a1,a1,0x1f
80001128:	01f4d293          	srli	t0,s1,0x1f
8000112c:	00151513          	slli	a0,a0,0x1
80001130:	00149493          	slli	s1,s1,0x1
80001134:	00e63633          	sltu	a2,a2,a4
80001138:	fff38393          	addi	t2,t2,-1
8000113c:	00b12023          	sw	a1,0(sp)
80001140:	0064e4b3          	or	s1,s1,t1
80001144:	00556533          	or	a0,a0,t0
80001148:	40c686b3          	sub	a3,a3,a2
8000114c:	f80398e3          	bnez	t2,800010dc <__udivmoddi4+0x194>
80001150:	00412603          	lw	a2,4(sp)
80001154:	00060663          	beqz	a2,80001160 <__udivmoddi4+0x218>
80001158:	00e62023          	sw	a4,0(a2)
8000115c:	00d62223          	sw	a3,4(a2)
80001160:	00012703          	lw	a4,0(sp)
80001164:	01f4d313          	srli	t1,s1,0x1f
80001168:	00151793          	slli	a5,a0,0x1
8000116c:	00149513          	slli	a0,s1,0x1
80001170:	00e56533          	or	a0,a0,a4
80001174:	01812483          	lw	s1,24(sp)
80001178:	00f365b3          	or	a1,t1,a5
8000117c:	e21ff06f          	j	80000f9c <__udivmoddi4+0x54>
80001180:	00070663          	beqz	a4,8000118c <__udivmoddi4+0x244>
80001184:	00a62023          	sw	a0,0(a2)
80001188:	00072223          	sw	zero,4(a4)
8000118c:	00000513          	li	a0,0
80001190:	00000593          	li	a1,0
80001194:	e09ff06f          	j	80000f9c <__udivmoddi4+0x54>
80001198:	fff40593          	addi	a1,s0,-1
8000119c:	0085f533          	and	a0,a1,s0
800011a0:	06051863          	bnez	a0,80001210 <__udivmoddi4+0x2c8>
800011a4:	00060863          	beqz	a2,800011b4 <__udivmoddi4+0x26c>
800011a8:	0055f5b3          	and	a1,a1,t0
800011ac:	00b62023          	sw	a1,0(a2)
800011b0:	00062223          	sw	zero,4(a2)
800011b4:	00100793          	li	a5,1
800011b8:	10f40e63          	beq	s0,a5,800012d4 <__udivmoddi4+0x38c>
800011bc:	00040513          	mv	a0,s0
800011c0:	00612223          	sw	t1,4(sp)
800011c4:	00512023          	sw	t0,0(sp)
800011c8:	320000ef          	jal	800014e8 <__ctzsi2>
800011cc:	00412303          	lw	t1,4(sp)
800011d0:	00012283          	lw	t0,0(sp)
800011d4:	02000713          	li	a4,32
800011d8:	40a70733          	sub	a4,a4,a0
800011dc:	00050793          	mv	a5,a0
800011e0:	00e31733          	sll	a4,t1,a4
800011e4:	00a2d2b3          	srl	t0,t0,a0
800011e8:	01812483          	lw	s1,24(sp)
800011ec:	00576533          	or	a0,a4,t0
800011f0:	00f355b3          	srl	a1,t1,a5
800011f4:	da9ff06f          	j	80000f9c <__udivmoddi4+0x54>
800011f8:	00100073          	ebreak
800011fc:	0e060463          	beqz	a2,800012e4 <__udivmoddi4+0x39c>
80001200:	01812483          	lw	s1,24(sp)
80001204:	00562023          	sw	t0,0(a2)
80001208:	00662223          	sw	t1,4(a2)
8000120c:	f81ff06f          	j	8000118c <__udivmoddi4+0x244>
80001210:	00040513          	mv	a0,s0
80001214:	00d12823          	sw	a3,16(sp)
80001218:	00512623          	sw	t0,12(sp)
8000121c:	00c12423          	sw	a2,8(sp)
80001220:	00612023          	sw	t1,0(sp)
80001224:	00d12223          	sw	a3,4(sp)
80001228:	230000ef          	jal	80001458 <__clzsi2>
8000122c:	00012703          	lw	a4,0(sp)
80001230:	00050493          	mv	s1,a0
80001234:	00070513          	mv	a0,a4
80001238:	220000ef          	jal	80001458 <__clzsi2>
8000123c:	00c12283          	lw	t0,12(sp)
80001240:	40a485b3          	sub	a1,s1,a0
80001244:	02158393          	addi	t2,a1,33
80001248:	02000313          	li	t1,32
8000124c:	00012703          	lw	a4,0(sp)
80001250:	00412783          	lw	a5,4(sp)
80001254:	00812603          	lw	a2,8(sp)
80001258:	01012683          	lw	a3,16(sp)
8000125c:	00028513          	mv	a0,t0
80001260:	00000493          	li	s1,0
80001264:	e66382e3          	beq	t2,t1,800010c8 <__udivmoddi4+0x180>
80001268:	01f00293          	li	t0,31
8000126c:	0a72ee63          	bltu	t0,t2,80001328 <__udivmoddi4+0x3e0>
80001270:	40730333          	sub	t1,t1,t2
80001274:	007555b3          	srl	a1,a0,t2
80001278:	007757b3          	srl	a5,a4,t2
8000127c:	00671733          	sll	a4,a4,t1
80001280:	00b76733          	or	a4,a4,a1
80001284:	00651533          	sll	a0,a0,t1
80001288:	e41ff06f          	j	800010c8 <__udivmoddi4+0x180>
8000128c:	00c12023          	sw	a2,0(sp)
80001290:	02060663          	beqz	a2,800012bc <__udivmoddi4+0x374>
80001294:	00068593          	mv	a1,a3
80001298:	00030513          	mv	a0,t1
8000129c:	00d12423          	sw	a3,8(sp)
800012a0:	00612223          	sw	t1,4(sp)
800012a4:	fd8ff0ef          	jal	80000a7c <__umodsi3>
800012a8:	00012603          	lw	a2,0(sp)
800012ac:	00812683          	lw	a3,8(sp)
800012b0:	00412303          	lw	t1,4(sp)
800012b4:	00062023          	sw	zero,0(a2)
800012b8:	00a62223          	sw	a0,4(a2)
800012bc:	00068593          	mv	a1,a3
800012c0:	00030513          	mv	a0,t1
800012c4:	f70ff0ef          	jal	80000a34 <__hidden___udivsi3>
800012c8:	00000593          	li	a1,0
800012cc:	01812483          	lw	s1,24(sp)
800012d0:	ccdff06f          	j	80000f9c <__udivmoddi4+0x54>
800012d4:	01812483          	lw	s1,24(sp)
800012d8:	00028513          	mv	a0,t0
800012dc:	00030593          	mv	a1,t1
800012e0:	cbdff06f          	j	80000f9c <__udivmoddi4+0x54>
800012e4:	01812483          	lw	s1,24(sp)
800012e8:	ea5ff06f          	j	8000118c <__udivmoddi4+0x244>
800012ec:	00060863          	beqz	a2,800012fc <__udivmoddi4+0x3b4>
800012f0:	0067f7b3          	and	a5,a5,t1
800012f4:	00a62023          	sw	a0,0(a2)
800012f8:	00f62223          	sw	a5,4(a2)
800012fc:	00068513          	mv	a0,a3
80001300:	00612023          	sw	t1,0(sp)
80001304:	1e4000ef          	jal	800014e8 <__ctzsi2>
80001308:	00012303          	lw	t1,0(sp)
8000130c:	01812483          	lw	s1,24(sp)
80001310:	00000593          	li	a1,0
80001314:	00a35533          	srl	a0,t1,a0
80001318:	c85ff06f          	j	80000f9c <__udivmoddi4+0x54>
8000131c:	00000793          	li	a5,0
80001320:	00000493          	li	s1,0
80001324:	da5ff06f          	j	800010c8 <__udivmoddi4+0x180>
80001328:	04000493          	li	s1,64
8000132c:	407484b3          	sub	s1,s1,t2
80001330:	00158593          	addi	a1,a1,1
80001334:	009712b3          	sll	t0,a4,s1
80001338:	00b55333          	srl	t1,a0,a1
8000133c:	009514b3          	sll	s1,a0,s1
80001340:	00b75733          	srl	a4,a4,a1
80001344:	0062e533          	or	a0,t0,t1
80001348:	d81ff06f          	j	800010c8 <__udivmoddi4+0x180>

8000134c <__divdi3>:
8000134c:	41f5d313          	srai	t1,a1,0x1f
80001350:	41f6d793          	srai	a5,a3,0x1f
80001354:	006542b3          	xor	t0,a0,t1
80001358:	00f643b3          	xor	t2,a2,a5
8000135c:	40f38633          	sub	a2,t2,a5
80001360:	40628533          	sub	a0,t0,t1
80001364:	0065c5b3          	xor	a1,a1,t1
80001368:	00f6c6b3          	xor	a3,a3,a5
8000136c:	00c3b3b3          	sltu	t2,t2,a2
80001370:	40f686b3          	sub	a3,a3,a5
80001374:	00a2b2b3          	sltu	t0,t0,a0
80001378:	406585b3          	sub	a1,a1,t1
8000137c:	ff410113          	addi	sp,sp,-12
80001380:	00000713          	li	a4,0
80001384:	407686b3          	sub	a3,a3,t2
80001388:	405585b3          	sub	a1,a1,t0
8000138c:	00812223          	sw	s0,4(sp)
80001390:	00112423          	sw	ra,8(sp)
80001394:	00f34433          	xor	s0,t1,a5
80001398:	bb1ff0ef          	jal	80000f48 <__udivmoddi4>
8000139c:	00854733          	xor	a4,a0,s0
800013a0:	0085c5b3          	xor	a1,a1,s0
800013a4:	40870533          	sub	a0,a4,s0
800013a8:	00812083          	lw	ra,8(sp)
800013ac:	408585b3          	sub	a1,a1,s0
800013b0:	00412403          	lw	s0,4(sp)
800013b4:	00a73733          	sltu	a4,a4,a0
800013b8:	40e585b3          	sub	a1,a1,a4
800013bc:	00c10113          	addi	sp,sp,12
800013c0:	00008067          	ret

800013c4 <__moddi3>:
800013c4:	fe810113          	addi	sp,sp,-24
800013c8:	00812823          	sw	s0,16(sp)
800013cc:	41f6d313          	srai	t1,a3,0x1f
800013d0:	41f5d413          	srai	s0,a1,0x1f
800013d4:	00854733          	xor	a4,a0,s0
800013d8:	006647b3          	xor	a5,a2,t1
800013dc:	00912623          	sw	s1,12(sp)
800013e0:	40870533          	sub	a0,a4,s0
800013e4:	40678633          	sub	a2,a5,t1
800013e8:	0066c6b3          	xor	a3,a3,t1
800013ec:	0085c5b3          	xor	a1,a1,s0
800013f0:	00710493          	addi	s1,sp,7
800013f4:	ff84f493          	andi	s1,s1,-8
800013f8:	00c7b7b3          	sltu	a5,a5,a2
800013fc:	406686b3          	sub	a3,a3,t1
80001400:	408585b3          	sub	a1,a1,s0
80001404:	00a73333          	sltu	t1,a4,a0
80001408:	40f686b3          	sub	a3,a3,a5
8000140c:	00048713          	mv	a4,s1
80001410:	406585b3          	sub	a1,a1,t1
80001414:	00112a23          	sw	ra,20(sp)
80001418:	b31ff0ef          	jal	80000f48 <__udivmoddi4>
8000141c:	0004a783          	lw	a5,0(s1)
80001420:	0044a583          	lw	a1,4(s1)
80001424:	01412083          	lw	ra,20(sp)
80001428:	0087c7b3          	xor	a5,a5,s0
8000142c:	0085c5b3          	xor	a1,a1,s0
80001430:	40878533          	sub	a0,a5,s0
80001434:	408585b3          	sub	a1,a1,s0
80001438:	01012403          	lw	s0,16(sp)
8000143c:	00a7b7b3          	sltu	a5,a5,a0
80001440:	00c12483          	lw	s1,12(sp)
80001444:	40f585b3          	sub	a1,a1,a5
80001448:	01810113          	addi	sp,sp,24
8000144c:	00008067          	ret

80001450 <__udivdi3>:
80001450:	00000713          	li	a4,0
80001454:	af5ff06f          	j	80000f48 <__udivmoddi4>

80001458 <__clzsi2>:
80001458:	000105b7          	lui	a1,0x10
8000145c:	00b535b3          	sltu	a1,a0,a1
80001460:	00459593          	slli	a1,a1,0x4
80001464:	01000793          	li	a5,16
80001468:	40b787b3          	sub	a5,a5,a1
8000146c:	00010737          	lui	a4,0x10
80001470:	00f557b3          	srl	a5,a0,a5
80001474:	f0070713          	addi	a4,a4,-256 # ff00 <_entry_offset+0xff00>
80001478:	00e7f733          	and	a4,a5,a4
8000147c:	00173713          	seqz	a4,a4
80001480:	00371713          	slli	a4,a4,0x3
80001484:	00800693          	li	a3,8
80001488:	40e686b3          	sub	a3,a3,a4
8000148c:	00d7d7b3          	srl	a5,a5,a3
80001490:	0f07f693          	andi	a3,a5,240
80001494:	0016b693          	seqz	a3,a3
80001498:	00269693          	slli	a3,a3,0x2
8000149c:	00400613          	li	a2,4
800014a0:	40d60633          	sub	a2,a2,a3
800014a4:	00c7d7b3          	srl	a5,a5,a2
800014a8:	00c7f613          	andi	a2,a5,12
800014ac:	00163613          	seqz	a2,a2
800014b0:	00200513          	li	a0,2
800014b4:	00161613          	slli	a2,a2,0x1
800014b8:	40c50333          	sub	t1,a0,a2
800014bc:	0067d7b3          	srl	a5,a5,t1
800014c0:	0017d313          	srli	t1,a5,0x1
800014c4:	00b70733          	add	a4,a4,a1
800014c8:	00137593          	andi	a1,t1,1
800014cc:	00e686b3          	add	a3,a3,a4
800014d0:	40f50533          	sub	a0,a0,a5
800014d4:	00058463          	beqz	a1,800014dc <__clzsi2+0x84>
800014d8:	00000513          	li	a0,0
800014dc:	00d606b3          	add	a3,a2,a3
800014e0:	00d50533          	add	a0,a0,a3
800014e4:	00008067          	ret

800014e8 <__ctzsi2>:
800014e8:	01051593          	slli	a1,a0,0x10
800014ec:	0105d593          	srli	a1,a1,0x10
800014f0:	0015b593          	seqz	a1,a1
800014f4:	00459593          	slli	a1,a1,0x4
800014f8:	00b557b3          	srl	a5,a0,a1
800014fc:	0ff7f613          	zext.b	a2,a5
80001500:	00163613          	seqz	a2,a2
80001504:	00361613          	slli	a2,a2,0x3
80001508:	00c7d7b3          	srl	a5,a5,a2
8000150c:	00f7f693          	andi	a3,a5,15
80001510:	0016b693          	seqz	a3,a3
80001514:	00269693          	slli	a3,a3,0x2
80001518:	00d7d7b3          	srl	a5,a5,a3
8000151c:	0037f713          	andi	a4,a5,3
80001520:	00173713          	seqz	a4,a4
80001524:	00171713          	slli	a4,a4,0x1
80001528:	00e7d7b3          	srl	a5,a5,a4
8000152c:	0017d513          	srli	a0,a5,0x1
80001530:	fff7c793          	not	a5,a5
80001534:	00b60633          	add	a2,a2,a1
80001538:	0017f793          	andi	a5,a5,1
8000153c:	00157593          	andi	a1,a0,1
80001540:	00200513          	li	a0,2
80001544:	40b50533          	sub	a0,a0,a1
80001548:	00c686b3          	add	a3,a3,a2
8000154c:	40f007b3          	neg	a5,a5
80001550:	00f577b3          	and	a5,a0,a5
80001554:	00d70533          	add	a0,a4,a3
80001558:	00a78533          	add	a0,a5,a0
8000155c:	00008067          	ret

80001560 <rand>:
80001560:	00000697          	auipc	a3,0x0
80001564:	67c68693          	addi	a3,a3,1660 # 80001bdc <next>
80001568:	0006a583          	lw	a1,0(a3)
8000156c:	00003637          	lui	a2,0x3
80001570:	03960613          	addi	a2,a2,57 # 3039 <_entry_offset+0x3039>
80001574:	00859713          	slli	a4,a1,0x8
80001578:	40b70733          	sub	a4,a4,a1
8000157c:	00371713          	slli	a4,a4,0x3
80001580:	00b70733          	add	a4,a4,a1
80001584:	00771713          	slli	a4,a4,0x7
80001588:	00b70733          	add	a4,a4,a1
8000158c:	00371713          	slli	a4,a4,0x3
80001590:	40b70733          	sub	a4,a4,a1
80001594:	00571793          	slli	a5,a4,0x5
80001598:	00f707b3          	add	a5,a4,a5
8000159c:	00279793          	slli	a5,a5,0x2
800015a0:	40b787b3          	sub	a5,a5,a1
800015a4:	00279793          	slli	a5,a5,0x2
800015a8:	00b787b3          	add	a5,a5,a1
800015ac:	00c787b3          	add	a5,a5,a2
800015b0:	00179513          	slli	a0,a5,0x1
800015b4:	00f6a023          	sw	a5,0(a3)
800015b8:	01155513          	srli	a0,a0,0x11
800015bc:	00008067          	ret
