
/home/jinghanhui/ysyx-workbench/am-kernels/benchmarks/coremark/build/coremark-riscv32e-npc.elf:     file format elf32-littleriscv


Disassembly of section .text:

80000000 <_start>:
80000000:	00000413          	li	s0,0
80000004:	0000d117          	auipc	sp,0xd
80000008:	ffc10113          	addi	sp,sp,-4 # 8000d000 <_end>
8000000c:	420020ef          	jal	8000242c <_trm_init>

80000010 <core_init_state>:
80000010:	ff810113          	addi	sp,sp,-8
80000014:	00912023          	sw	s1,0(sp)
80000018:	00100793          	li	a5,1
8000001c:	fff50493          	addi	s1,a0,-1
80000020:	1497f063          	bgeu	a5,s1,80000160 <core_init_state+0x150>
80000024:	00158593          	addi	a1,a1,1
80000028:	01059313          	slli	t1,a1,0x10
8000002c:	01035313          	srli	t1,t1,0x10
80000030:	00335793          	srli	a5,t1,0x3
80000034:	00812223          	sw	s0,4(sp)
80000038:	00737693          	andi	a3,t1,7
8000003c:	00700593          	li	a1,7
80000040:	00000713          	li	a4,0
80000044:	0037f793          	andi	a5,a5,3
80000048:	08b68a63          	beq	a3,a1,800000dc <core_init_state+0xcc>
8000004c:	00400593          	li	a1,4
80000050:	0ed5ea63          	bltu	a1,a3,80000144 <core_init_state+0x134>
80000054:	ffd68693          	addi	a3,a3,-3
80000058:	01069693          	slli	a3,a3,0x10
8000005c:	0106d693          	srli	a3,a3,0x10
80000060:	00100593          	li	a1,1
80000064:	00279793          	slli	a5,a5,0x2
80000068:	0cd5e263          	bltu	a1,a3,8000012c <core_init_state+0x11c>
8000006c:	00003697          	auipc	a3,0x3
80000070:	58468693          	addi	a3,a3,1412 # 800035f0 <floatpat>
80000074:	00f687b3          	add	a5,a3,a5
80000078:	0007a783          	lw	a5,0(a5)
8000007c:	00800293          	li	t0,8
80000080:	00170693          	addi	a3,a4,1
80000084:	00568433          	add	s0,a3,t0
80000088:	06947c63          	bgeu	s0,s1,80000100 <core_init_state+0xf0>
8000008c:	00e60733          	add	a4,a2,a4
80000090:	00070693          	mv	a3,a4
80000094:	005783b3          	add	t2,a5,t0
80000098:	0007c583          	lbu	a1,0(a5)
8000009c:	00178793          	addi	a5,a5,1
800000a0:	00168693          	addi	a3,a3,1
800000a4:	feb68fa3          	sb	a1,-1(a3)
800000a8:	fef398e3          	bne	t2,a5,80000098 <core_init_state+0x88>
800000ac:	00130313          	addi	t1,t1,1
800000b0:	01031313          	slli	t1,t1,0x10
800000b4:	00570733          	add	a4,a4,t0
800000b8:	01035313          	srli	t1,t1,0x10
800000bc:	02c00793          	li	a5,44
800000c0:	00f70023          	sb	a5,0(a4)
800000c4:	00737693          	andi	a3,t1,7
800000c8:	00335793          	srli	a5,t1,0x3
800000cc:	00700593          	li	a1,7
800000d0:	00040713          	mv	a4,s0
800000d4:	0037f793          	andi	a5,a5,3
800000d8:	f6b69ae3          	bne	a3,a1,8000004c <core_init_state+0x3c>
800000dc:	00003697          	auipc	a3,0x3
800000e0:	4f468693          	addi	a3,a3,1268 # 800035d0 <errpat>
800000e4:	00279793          	slli	a5,a5,0x2
800000e8:	00f687b3          	add	a5,a3,a5
800000ec:	00800293          	li	t0,8
800000f0:	00170693          	addi	a3,a4,1
800000f4:	00568433          	add	s0,a3,t0
800000f8:	0007a783          	lw	a5,0(a5)
800000fc:	f89468e3          	bltu	s0,s1,8000008c <core_init_state+0x7c>
80000100:	00412403          	lw	s0,4(sp)
80000104:	00a76663          	bltu	a4,a0,80000110 <core_init_state+0x100>
80000108:	0180006f          	j	80000120 <core_init_state+0x110>
8000010c:	00168693          	addi	a3,a3,1
80000110:	00e60733          	add	a4,a2,a4
80000114:	00070023          	sb	zero,0(a4)
80000118:	00068713          	mv	a4,a3
8000011c:	fea6e8e3          	bltu	a3,a0,8000010c <core_init_state+0xfc>
80000120:	00012483          	lw	s1,0(sp)
80000124:	00810113          	addi	sp,sp,8
80000128:	00008067          	ret
8000012c:	00003697          	auipc	a3,0x3
80000130:	4d468693          	addi	a3,a3,1236 # 80003600 <intpat>
80000134:	00f687b3          	add	a5,a3,a5
80000138:	0007a783          	lw	a5,0(a5)
8000013c:	00400293          	li	t0,4
80000140:	f41ff06f          	j	80000080 <core_init_state+0x70>
80000144:	00279793          	slli	a5,a5,0x2
80000148:	00003697          	auipc	a3,0x3
8000014c:	49868693          	addi	a3,a3,1176 # 800035e0 <scipat>
80000150:	00f687b3          	add	a5,a3,a5
80000154:	0007a783          	lw	a5,0(a5)
80000158:	00800293          	li	t0,8
8000015c:	f25ff06f          	j	80000080 <core_init_state+0x70>
80000160:	00000713          	li	a4,0
80000164:	00100693          	li	a3,1
80000168:	fa9ff06f          	j	80000110 <core_init_state+0x100>

8000016c <core_state_transition>:
8000016c:	00052783          	lw	a5,0(a0)
80000170:	00050693          	mv	a3,a0
80000174:	0007c703          	lbu	a4,0(a5)
80000178:	28070063          	beqz	a4,800003f8 <core_state_transition+0x28c>
8000017c:	02c00613          	li	a2,44
80000180:	00000513          	li	a0,0
80000184:	20c70863          	beq	a4,a2,80000394 <core_state_transition+0x228>
80000188:	02e00313          	li	t1,46
8000018c:	22670463          	beq	a4,t1,800003b4 <core_state_transition+0x248>
80000190:	1ce36863          	bltu	t1,a4,80000360 <core_state_transition+0x1f4>
80000194:	fd570713          	addi	a4,a4,-43
80000198:	0fd77713          	andi	a4,a4,253
8000019c:	02070663          	beqz	a4,800001c8 <core_state_transition+0x5c>
800001a0:	0045a603          	lw	a2,4(a1)
800001a4:	0005a703          	lw	a4,0(a1)
800001a8:	00178793          	addi	a5,a5,1
800001ac:	00160613          	addi	a2,a2,1
800001b0:	00170713          	addi	a4,a4,1
800001b4:	00c5a223          	sw	a2,4(a1)
800001b8:	00e5a023          	sw	a4,0(a1)
800001bc:	00100513          	li	a0,1
800001c0:	00f6a023          	sw	a5,0(a3)
800001c4:	00008067          	ret
800001c8:	0005a703          	lw	a4,0(a1)
800001cc:	00178513          	addi	a0,a5,1
800001d0:	00170713          	addi	a4,a4,1
800001d4:	00e5a023          	sw	a4,0(a1)
800001d8:	0017c283          	lbu	t0,1(a5)
800001dc:	26028c63          	beqz	t0,80000454 <core_state_transition+0x2e8>
800001e0:	20c28463          	beq	t0,a2,800003e8 <core_state_transition+0x27c>
800001e4:	0085a603          	lw	a2,8(a1)
800001e8:	fd028713          	addi	a4,t0,-48
800001ec:	0ff77713          	zext.b	a4,a4
800001f0:	00900393          	li	t2,9
800001f4:	00160613          	addi	a2,a2,1
800001f8:	00e3fe63          	bgeu	t2,a4,80000214 <core_state_transition+0xa8>
800001fc:	1e628263          	beq	t0,t1,800003e0 <core_state_transition+0x274>
80000200:	00c5a423          	sw	a2,8(a1)
80000204:	00278793          	addi	a5,a5,2
80000208:	00100513          	li	a0,1
8000020c:	00f6a023          	sw	a5,0(a3)
80000210:	00008067          	ret
80000214:	00c5a423          	sw	a2,8(a1)
80000218:	00154783          	lbu	a5,1(a0)
8000021c:	00150513          	addi	a0,a0,1
80000220:	1e078063          	beqz	a5,80000400 <core_state_transition+0x294>
80000224:	02c00713          	li	a4,44
80000228:	16e78263          	beq	a5,a4,8000038c <core_state_transition+0x220>
8000022c:	02e00713          	li	a4,46
80000230:	02e78863          	beq	a5,a4,80000260 <core_state_transition+0xf4>
80000234:	fd078793          	addi	a5,a5,-48
80000238:	0ff7f793          	zext.b	a5,a5
8000023c:	00900713          	li	a4,9
80000240:	fcf77ce3          	bgeu	a4,a5,80000218 <core_state_transition+0xac>
80000244:	0105a703          	lw	a4,16(a1)
80000248:	00150793          	addi	a5,a0,1
8000024c:	00100513          	li	a0,1
80000250:	00170713          	addi	a4,a4,1
80000254:	00e5a823          	sw	a4,16(a1)
80000258:	00f6a023          	sw	a5,0(a3)
8000025c:	00008067          	ret
80000260:	0105a783          	lw	a5,16(a1)
80000264:	00178793          	addi	a5,a5,1
80000268:	00f5a823          	sw	a5,16(a1)
8000026c:	0140006f          	j	80000280 <core_state_transition+0x114>
80000270:	fd078793          	addi	a5,a5,-48
80000274:	0ff7f793          	zext.b	a5,a5
80000278:	00900713          	li	a4,9
8000027c:	12f76063          	bltu	a4,a5,8000039c <core_state_transition+0x230>
80000280:	00154783          	lbu	a5,1(a0)
80000284:	00150513          	addi	a0,a0,1
80000288:	1c078063          	beqz	a5,80000448 <core_state_transition+0x2dc>
8000028c:	02c00713          	li	a4,44
80000290:	14e78063          	beq	a5,a4,800003d0 <core_state_transition+0x264>
80000294:	0df7f713          	andi	a4,a5,223
80000298:	04500613          	li	a2,69
8000029c:	fcc71ae3          	bne	a4,a2,80000270 <core_state_transition+0x104>
800002a0:	0145a703          	lw	a4,20(a1)
800002a4:	00150793          	addi	a5,a0,1
800002a8:	00170713          	addi	a4,a4,1
800002ac:	00e5aa23          	sw	a4,20(a1)
800002b0:	00154703          	lbu	a4,1(a0)
800002b4:	16070063          	beqz	a4,80000414 <core_state_transition+0x2a8>
800002b8:	02c00613          	li	a2,44
800002bc:	16c70663          	beq	a4,a2,80000428 <core_state_transition+0x2bc>
800002c0:	00c5a783          	lw	a5,12(a1)
800002c4:	fd570713          	addi	a4,a4,-43
800002c8:	0fd77713          	andi	a4,a4,253
800002cc:	00178793          	addi	a5,a5,1
800002d0:	00f5a623          	sw	a5,12(a1)
800002d4:	00070a63          	beqz	a4,800002e8 <core_state_transition+0x17c>
800002d8:	00250793          	addi	a5,a0,2
800002dc:	00f6a023          	sw	a5,0(a3)
800002e0:	00100513          	li	a0,1
800002e4:	00008067          	ret
800002e8:	00254703          	lbu	a4,2(a0)
800002ec:	00250793          	addi	a5,a0,2
800002f0:	10070e63          	beqz	a4,8000040c <core_state_transition+0x2a0>
800002f4:	12c70463          	beq	a4,a2,8000041c <core_state_transition+0x2b0>
800002f8:	0185a603          	lw	a2,24(a1)
800002fc:	fd070713          	addi	a4,a4,-48
80000300:	0ff77713          	zext.b	a4,a4
80000304:	00160613          	addi	a2,a2,1
80000308:	00900313          	li	t1,9
8000030c:	00c5ac23          	sw	a2,24(a1)
80000310:	00e37863          	bgeu	t1,a4,80000320 <core_state_transition+0x1b4>
80000314:	00350793          	addi	a5,a0,3
80000318:	00100513          	li	a0,1
8000031c:	ea5ff06f          	j	800001c0 <core_state_transition+0x54>
80000320:	00900513          	li	a0,9
80000324:	0017c603          	lbu	a2,1(a5)
80000328:	00078313          	mv	t1,a5
8000032c:	02c00293          	li	t0,44
80000330:	fd060713          	addi	a4,a2,-48
80000334:	00178793          	addi	a5,a5,1
80000338:	0ff77713          	zext.b	a4,a4
8000033c:	0e060c63          	beqz	a2,80000434 <core_state_transition+0x2c8>
80000340:	0e560e63          	beq	a2,t0,8000043c <core_state_transition+0x2d0>
80000344:	fee570e3          	bgeu	a0,a4,80000324 <core_state_transition+0x1b8>
80000348:	0045a703          	lw	a4,4(a1)
8000034c:	00230793          	addi	a5,t1,2
80000350:	00100513          	li	a0,1
80000354:	00170713          	addi	a4,a4,1
80000358:	00e5a223          	sw	a4,4(a1)
8000035c:	e65ff06f          	j	800001c0 <core_state_transition+0x54>
80000360:	fd070713          	addi	a4,a4,-48
80000364:	0ff77713          	zext.b	a4,a4
80000368:	00900513          	li	a0,9
8000036c:	e2e56ae3          	bltu	a0,a4,800001a0 <core_state_transition+0x34>
80000370:	0005a703          	lw	a4,0(a1)
80000374:	00178513          	addi	a0,a5,1
80000378:	00170713          	addi	a4,a4,1
8000037c:	00e5a023          	sw	a4,0(a1)
80000380:	0017c783          	lbu	a5,1(a5)
80000384:	06078e63          	beqz	a5,80000400 <core_state_transition+0x294>
80000388:	eac792e3          	bne	a5,a2,8000022c <core_state_transition+0xc0>
8000038c:	00050793          	mv	a5,a0
80000390:	00400513          	li	a0,4
80000394:	00178793          	addi	a5,a5,1
80000398:	e29ff06f          	j	800001c0 <core_state_transition+0x54>
8000039c:	0145a703          	lw	a4,20(a1)
800003a0:	00150793          	addi	a5,a0,1
800003a4:	00100513          	li	a0,1
800003a8:	00170713          	addi	a4,a4,1
800003ac:	00e5aa23          	sw	a4,20(a1)
800003b0:	e11ff06f          	j	800001c0 <core_state_transition+0x54>
800003b4:	0005a703          	lw	a4,0(a1)
800003b8:	00178513          	addi	a0,a5,1
800003bc:	00170713          	addi	a4,a4,1
800003c0:	00e5a023          	sw	a4,0(a1)
800003c4:	0017c783          	lbu	a5,1(a5)
800003c8:	08078063          	beqz	a5,80000448 <core_state_transition+0x2dc>
800003cc:	ecc794e3          	bne	a5,a2,80000294 <core_state_transition+0x128>
800003d0:	00050793          	mv	a5,a0
800003d4:	00178793          	addi	a5,a5,1
800003d8:	00500513          	li	a0,5
800003dc:	de5ff06f          	j	800001c0 <core_state_transition+0x54>
800003e0:	00c5a423          	sw	a2,8(a1)
800003e4:	e9dff06f          	j	80000280 <core_state_transition+0x114>
800003e8:	00050793          	mv	a5,a0
800003ec:	00178793          	addi	a5,a5,1
800003f0:	00200513          	li	a0,2
800003f4:	dcdff06f          	j	800001c0 <core_state_transition+0x54>
800003f8:	00000513          	li	a0,0
800003fc:	dc5ff06f          	j	800001c0 <core_state_transition+0x54>
80000400:	00050793          	mv	a5,a0
80000404:	00400513          	li	a0,4
80000408:	db9ff06f          	j	800001c0 <core_state_transition+0x54>
8000040c:	00600513          	li	a0,6
80000410:	db1ff06f          	j	800001c0 <core_state_transition+0x54>
80000414:	00300513          	li	a0,3
80000418:	da9ff06f          	j	800001c0 <core_state_transition+0x54>
8000041c:	00600513          	li	a0,6
80000420:	00178793          	addi	a5,a5,1
80000424:	d9dff06f          	j	800001c0 <core_state_transition+0x54>
80000428:	00300513          	li	a0,3
8000042c:	00178793          	addi	a5,a5,1
80000430:	d91ff06f          	j	800001c0 <core_state_transition+0x54>
80000434:	00700513          	li	a0,7
80000438:	d89ff06f          	j	800001c0 <core_state_transition+0x54>
8000043c:	00700513          	li	a0,7
80000440:	00178793          	addi	a5,a5,1
80000444:	d7dff06f          	j	800001c0 <core_state_transition+0x54>
80000448:	00050793          	mv	a5,a0
8000044c:	00500513          	li	a0,5
80000450:	d71ff06f          	j	800001c0 <core_state_transition+0x54>
80000454:	00050793          	mv	a5,a0
80000458:	00200513          	li	a0,2
8000045c:	d65ff06f          	j	800001c0 <core_state_transition+0x54>

80000460 <core_bench_state>:
80000460:	f9c10113          	addi	sp,sp,-100
80000464:	04812e23          	sw	s0,92(sp)
80000468:	00d12623          	sw	a3,12(sp)
8000046c:	00e12023          	sw	a4,0(sp)
80000470:	00f12223          	sw	a5,4(sp)
80000474:	06112023          	sw	ra,96(sp)
80000478:	04912c23          	sw	s1,88(sp)
8000047c:	00b12823          	sw	a1,16(sp)
80000480:	00050413          	mv	s0,a0
80000484:	00c12423          	sw	a2,8(sp)
80000488:	00b12a23          	sw	a1,20(sp)
8000048c:	03810793          	addi	a5,sp,56
80000490:	01810713          	addi	a4,sp,24
80000494:	05810693          	addi	a3,sp,88
80000498:	0007a023          	sw	zero,0(a5)
8000049c:	00072023          	sw	zero,0(a4)
800004a0:	00478793          	addi	a5,a5,4
800004a4:	00470713          	addi	a4,a4,4
800004a8:	fed798e3          	bne	a5,a3,80000498 <core_bench_state+0x38>
800004ac:	01012783          	lw	a5,16(sp)
800004b0:	01410493          	addi	s1,sp,20
800004b4:	0007c783          	lbu	a5,0(a5)
800004b8:	12078a63          	beqz	a5,800005ec <core_bench_state+0x18c>
800004bc:	03810593          	addi	a1,sp,56
800004c0:	00048513          	mv	a0,s1
800004c4:	ca9ff0ef          	jal	8000016c <core_state_transition>
800004c8:	00251513          	slli	a0,a0,0x2
800004cc:	04450793          	addi	a5,a0,68
800004d0:	01410713          	addi	a4,sp,20
800004d4:	00e78533          	add	a0,a5,a4
800004d8:	01412703          	lw	a4,20(sp)
800004dc:	fc052783          	lw	a5,-64(a0)
800004e0:	00074703          	lbu	a4,0(a4)
800004e4:	00178793          	addi	a5,a5,1
800004e8:	fcf52023          	sw	a5,-64(a0)
800004ec:	fc0718e3          	bnez	a4,800004bc <core_bench_state+0x5c>
800004f0:	01012783          	lw	a5,16(sp)
800004f4:	00f12a23          	sw	a5,20(sp)
800004f8:	00878433          	add	s0,a5,s0
800004fc:	0287fe63          	bgeu	a5,s0,80000538 <core_bench_state+0xd8>
80000500:	01012783          	lw	a5,16(sp)
80000504:	02c00593          	li	a1,44
80000508:	0007c683          	lbu	a3,0(a5)
8000050c:	00812703          	lw	a4,8(sp)
80000510:	00e6c633          	xor	a2,a3,a4
80000514:	00b68463          	beq	a3,a1,8000051c <core_bench_state+0xbc>
80000518:	00c78023          	sb	a2,0(a5)
8000051c:	00012703          	lw	a4,0(sp)
80000520:	00e787b3          	add	a5,a5,a4
80000524:	fe87e2e3          	bltu	a5,s0,80000508 <core_bench_state+0xa8>
80000528:	01012783          	lw	a5,16(sp)
8000052c:	01410493          	addi	s1,sp,20
80000530:	0007c783          	lbu	a5,0(a5)
80000534:	02078c63          	beqz	a5,8000056c <core_bench_state+0x10c>
80000538:	03810593          	addi	a1,sp,56
8000053c:	00048513          	mv	a0,s1
80000540:	c2dff0ef          	jal	8000016c <core_state_transition>
80000544:	00251513          	slli	a0,a0,0x2
80000548:	04450793          	addi	a5,a0,68
8000054c:	01410713          	addi	a4,sp,20
80000550:	00e78533          	add	a0,a5,a4
80000554:	01412683          	lw	a3,20(sp)
80000558:	fc052783          	lw	a5,-64(a0)
8000055c:	0006c683          	lbu	a3,0(a3)
80000560:	00178793          	addi	a5,a5,1
80000564:	fcf52023          	sw	a5,-64(a0)
80000568:	fc0698e3          	bnez	a3,80000538 <core_bench_state+0xd8>
8000056c:	01012783          	lw	a5,16(sp)
80000570:	02c00593          	li	a1,44
80000574:	00f12a23          	sw	a5,20(sp)
80000578:	0287f263          	bgeu	a5,s0,8000059c <core_bench_state+0x13c>
8000057c:	0007c683          	lbu	a3,0(a5)
80000580:	00c12703          	lw	a4,12(sp)
80000584:	00e6c633          	xor	a2,a3,a4
80000588:	00b68463          	beq	a3,a1,80000590 <core_bench_state+0x130>
8000058c:	00c78023          	sb	a2,0(a5)
80000590:	00012703          	lw	a4,0(sp)
80000594:	00e787b3          	add	a5,a5,a4
80000598:	fe87e2e3          	bltu	a5,s0,8000057c <core_bench_state+0x11c>
8000059c:	00000493          	li	s1,0
800005a0:	02000413          	li	s0,32
800005a4:	01810793          	addi	a5,sp,24
800005a8:	00978733          	add	a4,a5,s1
800005ac:	00072503          	lw	a0,0(a4)
800005b0:	00412583          	lw	a1,4(sp)
800005b4:	3cd000ef          	jal	80001180 <crcu32>
800005b8:	03810793          	addi	a5,sp,56
800005bc:	00978733          	add	a4,a5,s1
800005c0:	00050593          	mv	a1,a0
800005c4:	00072503          	lw	a0,0(a4)
800005c8:	00448493          	addi	s1,s1,4
800005cc:	3b5000ef          	jal	80001180 <crcu32>
800005d0:	00a12223          	sw	a0,4(sp)
800005d4:	fc8498e3          	bne	s1,s0,800005a4 <core_bench_state+0x144>
800005d8:	06012083          	lw	ra,96(sp)
800005dc:	05c12403          	lw	s0,92(sp)
800005e0:	05812483          	lw	s1,88(sp)
800005e4:	06410113          	addi	sp,sp,100
800005e8:	00008067          	ret
800005ec:	01012783          	lw	a5,16(sp)
800005f0:	00878433          	add	s0,a5,s0
800005f4:	f087e6e3          	bltu	a5,s0,80000500 <core_bench_state+0xa0>
800005f8:	fa5ff06f          	j	8000059c <core_bench_state+0x13c>

800005fc <core_init_matrix>:
800005fc:	fc410113          	addi	sp,sp,-60
80000600:	02812a23          	sw	s0,52(sp)
80000604:	02112c23          	sw	ra,56(sp)
80000608:	02912823          	sw	s1,48(sp)
8000060c:	00b12223          	sw	a1,4(sp)
80000610:	00050413          	mv	s0,a0
80000614:	00061463          	bnez	a2,8000061c <core_init_matrix+0x20>
80000618:	00100613          	li	a2,1
8000061c:	00000493          	li	s1,0
80000620:	1a040063          	beqz	s0,800007c0 <core_init_matrix+0x1c4>
80000624:	00812023          	sw	s0,0(sp)
80000628:	00c12423          	sw	a2,8(sp)
8000062c:	00d12623          	sw	a3,12(sp)
80000630:	00048413          	mv	s0,s1
80000634:	00148493          	addi	s1,s1,1
80000638:	00048593          	mv	a1,s1
8000063c:	00048513          	mv	a0,s1
80000640:	00c020ef          	jal	8000264c <__mulsi3>
80000644:	00012783          	lw	a5,0(sp)
80000648:	00351513          	slli	a0,a0,0x3
8000064c:	fef562e3          	bltu	a0,a5,80000630 <core_init_matrix+0x34>
80000650:	00812603          	lw	a2,8(sp)
80000654:	00c12683          	lw	a3,12(sp)
80000658:	00040593          	mv	a1,s0
8000065c:	00040513          	mv	a0,s0
80000660:	00c12823          	sw	a2,16(sp)
80000664:	00d12423          	sw	a3,8(sp)
80000668:	00812023          	sw	s0,0(sp)
8000066c:	7e1010ef          	jal	8000264c <__mulsi3>
80000670:	00412783          	lw	a5,4(sp)
80000674:	00151513          	slli	a0,a0,0x1
80000678:	00812683          	lw	a3,8(sp)
8000067c:	fff78793          	addi	a5,a5,-1
80000680:	ffc7f793          	andi	a5,a5,-4
80000684:	00478593          	addi	a1,a5,4
80000688:	01012603          	lw	a2,16(sp)
8000068c:	00040313          	mv	t1,s0
80000690:	00058493          	mv	s1,a1
80000694:	00a587b3          	add	a5,a1,a0
80000698:	12040063          	beqz	s0,800007b8 <core_init_matrix+0x1bc>
8000069c:	40f48733          	sub	a4,s1,a5
800006a0:	00e12423          	sw	a4,8(sp)
800006a4:	ffe78713          	addi	a4,a5,-2
800006a8:	00e12c23          	sw	a4,24(sp)
800006ac:	00010737          	lui	a4,0x10
800006b0:	fff70713          	addi	a4,a4,-1 # ffff <_entry_offset+0xffff>
800006b4:	00a12e23          	sw	a0,28(sp)
800006b8:	00000393          	li	t2,0
800006bc:	00100293          	li	t0,1
800006c0:	00e12223          	sw	a4,4(sp)
800006c4:	02b12023          	sw	a1,32(sp)
800006c8:	02f12223          	sw	a5,36(sp)
800006cc:	02812423          	sw	s0,40(sp)
800006d0:	00060513          	mv	a0,a2
800006d4:	02d12623          	sw	a3,44(sp)
800006d8:	01812703          	lw	a4,24(sp)
800006dc:	00129793          	slli	a5,t0,0x1
800006e0:	00028413          	mv	s0,t0
800006e4:	005302b3          	add	t0,t1,t0
800006e8:	00f704b3          	add	s1,a4,a5
800006ec:	00512023          	sw	t0,0(sp)
800006f0:	00712623          	sw	t2,12(sp)
800006f4:	00512823          	sw	t0,16(sp)
800006f8:	00612a23          	sw	t1,20(sp)
800006fc:	00040593          	mv	a1,s0
80000700:	74d010ef          	jal	8000264c <__mulsi3>
80000704:	00412783          	lw	a5,4(sp)
80000708:	41f55693          	srai	a3,a0,0x1f
8000070c:	0106d693          	srli	a3,a3,0x10
80000710:	00d50533          	add	a0,a0,a3
80000714:	00f57533          	and	a0,a0,a5
80000718:	01041793          	slli	a5,s0,0x10
8000071c:	0107d793          	srli	a5,a5,0x10
80000720:	40d50533          	sub	a0,a0,a3
80000724:	00a786b3          	add	a3,a5,a0
80000728:	00812703          	lw	a4,8(sp)
8000072c:	01069693          	slli	a3,a3,0x10
80000730:	0106d693          	srli	a3,a3,0x10
80000734:	00f687b3          	add	a5,a3,a5
80000738:	00d49023          	sh	a3,0(s1)
8000073c:	0ff7f793          	zext.b	a5,a5
80000740:	009706b3          	add	a3,a4,s1
80000744:	00f69023          	sh	a5,0(a3)
80000748:	00012783          	lw	a5,0(sp)
8000074c:	00140413          	addi	s0,s0,1
80000750:	00248493          	addi	s1,s1,2
80000754:	faf414e3          	bne	s0,a5,800006fc <core_init_matrix+0x100>
80000758:	00c12383          	lw	t2,12(sp)
8000075c:	01412303          	lw	t1,20(sp)
80000760:	01012283          	lw	t0,16(sp)
80000764:	00138393          	addi	t2,t2,1
80000768:	f67318e3          	bne	t1,t2,800006d8 <core_init_matrix+0xdc>
8000076c:	01c12503          	lw	a0,28(sp)
80000770:	02012583          	lw	a1,32(sp)
80000774:	02412783          	lw	a5,36(sp)
80000778:	02812403          	lw	s0,40(sp)
8000077c:	02c12683          	lw	a3,44(sp)
80000780:	00a78733          	add	a4,a5,a0
80000784:	fff70713          	addi	a4,a4,-1
80000788:	03812083          	lw	ra,56(sp)
8000078c:	0086a023          	sw	s0,0(a3)
80000790:	ffc77713          	andi	a4,a4,-4
80000794:	03412403          	lw	s0,52(sp)
80000798:	00470713          	addi	a4,a4,4
8000079c:	00b6a223          	sw	a1,4(a3)
800007a0:	00f6a423          	sw	a5,8(a3)
800007a4:	00e6a623          	sw	a4,12(a3)
800007a8:	03012483          	lw	s1,48(sp)
800007ac:	00030513          	mv	a0,t1
800007b0:	03c10113          	addi	sp,sp,60
800007b4:	00008067          	ret
800007b8:	00000513          	li	a0,0
800007bc:	fc5ff06f          	j	80000780 <core_init_matrix+0x184>
800007c0:	00412783          	lw	a5,4(sp)
800007c4:	fff00413          	li	s0,-1
800007c8:	00200513          	li	a0,2
800007cc:	fff78793          	addi	a5,a5,-1
800007d0:	ffc7f793          	andi	a5,a5,-4
800007d4:	00478493          	addi	s1,a5,4
800007d8:	00048593          	mv	a1,s1
800007dc:	00678793          	addi	a5,a5,6
800007e0:	fff00313          	li	t1,-1
800007e4:	eb9ff06f          	j	8000069c <core_init_matrix+0xa0>

800007e8 <matrix_mul_vect>:
800007e8:	0a050a63          	beqz	a0,8000089c <matrix_mul_vect+0xb4>
800007ec:	fd410113          	addi	sp,sp,-44
800007f0:	02912023          	sw	s1,32(sp)
800007f4:	00251493          	slli	s1,a0,0x2
800007f8:	009587b3          	add	a5,a1,s1
800007fc:	02812223          	sw	s0,36(sp)
80000800:	00151413          	slli	s0,a0,0x1
80000804:	00f12c23          	sw	a5,24(sp)
80000808:	008687b3          	add	a5,a3,s0
8000080c:	00f12223          	sw	a5,4(sp)
80000810:	02112423          	sw	ra,40(sp)
80000814:	00000793          	li	a5,0
80000818:	00a12e23          	sw	a0,28(sp)
8000081c:	00c12823          	sw	a2,16(sp)
80000820:	00d12a23          	sw	a3,20(sp)
80000824:	01012703          	lw	a4,16(sp)
80000828:	01412403          	lw	s0,20(sp)
8000082c:	00179693          	slli	a3,a5,0x1
80000830:	00d706b3          	add	a3,a4,a3
80000834:	00000493          	li	s1,0
80000838:	00f12423          	sw	a5,8(sp)
8000083c:	00b12623          	sw	a1,12(sp)
80000840:	00041583          	lh	a1,0(s0)
80000844:	00069503          	lh	a0,0(a3)
80000848:	00d12023          	sw	a3,0(sp)
8000084c:	00240413          	addi	s0,s0,2
80000850:	5fd010ef          	jal	8000264c <__mulsi3>
80000854:	00012683          	lw	a3,0(sp)
80000858:	00412783          	lw	a5,4(sp)
8000085c:	00a484b3          	add	s1,s1,a0
80000860:	00268693          	addi	a3,a3,2
80000864:	fc879ee3          	bne	a5,s0,80000840 <matrix_mul_vect+0x58>
80000868:	01c12703          	lw	a4,28(sp)
8000086c:	00812783          	lw	a5,8(sp)
80000870:	00c12583          	lw	a1,12(sp)
80000874:	00e787b3          	add	a5,a5,a4
80000878:	01812703          	lw	a4,24(sp)
8000087c:	0095a023          	sw	s1,0(a1)
80000880:	00458593          	addi	a1,a1,4
80000884:	fab710e3          	bne	a4,a1,80000824 <matrix_mul_vect+0x3c>
80000888:	02812083          	lw	ra,40(sp)
8000088c:	02412403          	lw	s0,36(sp)
80000890:	02012483          	lw	s1,32(sp)
80000894:	02c10113          	addi	sp,sp,44
80000898:	00008067          	ret
8000089c:	00008067          	ret

800008a0 <matrix_mul_matrix>:
800008a0:	fc010113          	addi	sp,sp,-64
800008a4:	02112e23          	sw	ra,60(sp)
800008a8:	02b12623          	sw	a1,44(sp)
800008ac:	02d12823          	sw	a3,48(sp)
800008b0:	00050293          	mv	t0,a0
800008b4:	10050463          	beqz	a0,800009bc <matrix_mul_matrix+0x11c>
800008b8:	00129393          	slli	t2,t0,0x1
800008bc:	007606b3          	add	a3,a2,t2
800008c0:	00000793          	li	a5,0
800008c4:	00712423          	sw	t2,8(sp)
800008c8:	02812c23          	sw	s0,56(sp)
800008cc:	02912a23          	sw	s1,52(sp)
800008d0:	00060513          	mv	a0,a2
800008d4:	00078713          	mv	a4,a5
800008d8:	00068393          	mv	t2,a3
800008dc:	00512e23          	sw	t0,28(sp)
800008e0:	02c12603          	lw	a2,44(sp)
800008e4:	00179693          	slli	a3,a5,0x1
800008e8:	03012303          	lw	t1,48(sp)
800008ec:	00279593          	slli	a1,a5,0x2
800008f0:	00d506b3          	add	a3,a0,a3
800008f4:	00b605b3          	add	a1,a2,a1
800008f8:	00d12c23          	sw	a3,24(sp)
800008fc:	00000293          	li	t0,0
80000900:	02e12023          	sw	a4,32(sp)
80000904:	00712223          	sw	t2,4(sp)
80000908:	02f12223          	sw	a5,36(sp)
8000090c:	02a12423          	sw	a0,40(sp)
80000910:	01812483          	lw	s1,24(sp)
80000914:	00000413          	li	s0,0
80000918:	00512623          	sw	t0,12(sp)
8000091c:	00048793          	mv	a5,s1
80000920:	00612823          	sw	t1,16(sp)
80000924:	00b12a23          	sw	a1,20(sp)
80000928:	00030493          	mv	s1,t1
8000092c:	00049583          	lh	a1,0(s1)
80000930:	00079503          	lh	a0,0(a5)
80000934:	00f12023          	sw	a5,0(sp)
80000938:	515010ef          	jal	8000264c <__mulsi3>
8000093c:	00812703          	lw	a4,8(sp)
80000940:	00012783          	lw	a5,0(sp)
80000944:	00a40433          	add	s0,s0,a0
80000948:	00e484b3          	add	s1,s1,a4
8000094c:	00412703          	lw	a4,4(sp)
80000950:	00278793          	addi	a5,a5,2
80000954:	fcf71ce3          	bne	a4,a5,8000092c <matrix_mul_matrix+0x8c>
80000958:	01412583          	lw	a1,20(sp)
8000095c:	00c12283          	lw	t0,12(sp)
80000960:	01012303          	lw	t1,16(sp)
80000964:	01c12703          	lw	a4,28(sp)
80000968:	0085a023          	sw	s0,0(a1)
8000096c:	00128793          	addi	a5,t0,1
80000970:	00458593          	addi	a1,a1,4
80000974:	00230313          	addi	t1,t1,2
80000978:	00f70663          	beq	a4,a5,80000984 <matrix_mul_matrix+0xe4>
8000097c:	00078293          	mv	t0,a5
80000980:	f91ff06f          	j	80000910 <matrix_mul_matrix+0x70>
80000984:	01c12683          	lw	a3,28(sp)
80000988:	02412783          	lw	a5,36(sp)
8000098c:	02012703          	lw	a4,32(sp)
80000990:	00412383          	lw	t2,4(sp)
80000994:	00d787b3          	add	a5,a5,a3
80000998:	00812683          	lw	a3,8(sp)
8000099c:	02812503          	lw	a0,40(sp)
800009a0:	00170613          	addi	a2,a4,1
800009a4:	00d383b3          	add	t2,t2,a3
800009a8:	00570663          	beq	a4,t0,800009b4 <matrix_mul_matrix+0x114>
800009ac:	00060713          	mv	a4,a2
800009b0:	f31ff06f          	j	800008e0 <matrix_mul_matrix+0x40>
800009b4:	03812403          	lw	s0,56(sp)
800009b8:	03412483          	lw	s1,52(sp)
800009bc:	03c12083          	lw	ra,60(sp)
800009c0:	04010113          	addi	sp,sp,64
800009c4:	00008067          	ret

800009c8 <matrix_mul_matrix_bitextract>:
800009c8:	fc010113          	addi	sp,sp,-64
800009cc:	02112e23          	sw	ra,60(sp)
800009d0:	00a12e23          	sw	a0,28(sp)
800009d4:	02b12423          	sw	a1,40(sp)
800009d8:	02d12623          	sw	a3,44(sp)
800009dc:	10050863          	beqz	a0,80000aec <matrix_mul_matrix_bitextract+0x124>
800009e0:	00151793          	slli	a5,a0,0x1
800009e4:	00f12423          	sw	a5,8(sp)
800009e8:	00f60333          	add	t1,a2,a5
800009ec:	00000793          	li	a5,0
800009f0:	02812c23          	sw	s0,56(sp)
800009f4:	02912a23          	sw	s1,52(sp)
800009f8:	00078713          	mv	a4,a5
800009fc:	02c12823          	sw	a2,48(sp)
80000a00:	02812603          	lw	a2,40(sp)
80000a04:	00279293          	slli	t0,a5,0x2
80000a08:	00179693          	slli	a3,a5,0x1
80000a0c:	005602b3          	add	t0,a2,t0
80000a10:	03012603          	lw	a2,48(sp)
80000a14:	02c12383          	lw	t2,44(sp)
80000a18:	02e12023          	sw	a4,32(sp)
80000a1c:	00d606b3          	add	a3,a2,a3
80000a20:	00d12c23          	sw	a3,24(sp)
80000a24:	00000613          	li	a2,0
80000a28:	00612223          	sw	t1,4(sp)
80000a2c:	02f12223          	sw	a5,36(sp)
80000a30:	01812483          	lw	s1,24(sp)
80000a34:	00000413          	li	s0,0
80000a38:	00c12623          	sw	a2,12(sp)
80000a3c:	00048793          	mv	a5,s1
80000a40:	00712823          	sw	t2,16(sp)
80000a44:	00512a23          	sw	t0,20(sp)
80000a48:	00038493          	mv	s1,t2
80000a4c:	00049583          	lh	a1,0(s1)
80000a50:	00079503          	lh	a0,0(a5)
80000a54:	00f12023          	sw	a5,0(sp)
80000a58:	3f5010ef          	jal	8000264c <__mulsi3>
80000a5c:	40255613          	srai	a2,a0,0x2
80000a60:	40555593          	srai	a1,a0,0x5
80000a64:	07f5f593          	andi	a1,a1,127
80000a68:	00f67513          	andi	a0,a2,15
80000a6c:	3e1010ef          	jal	8000264c <__mulsi3>
80000a70:	00812703          	lw	a4,8(sp)
80000a74:	00012783          	lw	a5,0(sp)
80000a78:	00a40433          	add	s0,s0,a0
80000a7c:	00e484b3          	add	s1,s1,a4
80000a80:	00412703          	lw	a4,4(sp)
80000a84:	00278793          	addi	a5,a5,2
80000a88:	fcf712e3          	bne	a4,a5,80000a4c <matrix_mul_matrix_bitextract+0x84>
80000a8c:	01412283          	lw	t0,20(sp)
80000a90:	00c12603          	lw	a2,12(sp)
80000a94:	01012383          	lw	t2,16(sp)
80000a98:	01c12703          	lw	a4,28(sp)
80000a9c:	0082a023          	sw	s0,0(t0)
80000aa0:	00160793          	addi	a5,a2,1
80000aa4:	00428293          	addi	t0,t0,4
80000aa8:	00238393          	addi	t2,t2,2
80000aac:	00f70663          	beq	a4,a5,80000ab8 <matrix_mul_matrix_bitextract+0xf0>
80000ab0:	00078613          	mv	a2,a5
80000ab4:	f7dff06f          	j	80000a30 <matrix_mul_matrix_bitextract+0x68>
80000ab8:	01c12583          	lw	a1,28(sp)
80000abc:	02412783          	lw	a5,36(sp)
80000ac0:	02012703          	lw	a4,32(sp)
80000ac4:	00412303          	lw	t1,4(sp)
80000ac8:	00b787b3          	add	a5,a5,a1
80000acc:	00812583          	lw	a1,8(sp)
80000ad0:	00170693          	addi	a3,a4,1
80000ad4:	00b30333          	add	t1,t1,a1
80000ad8:	00c70663          	beq	a4,a2,80000ae4 <matrix_mul_matrix_bitextract+0x11c>
80000adc:	00068713          	mv	a4,a3
80000ae0:	f21ff06f          	j	80000a00 <matrix_mul_matrix_bitextract+0x38>
80000ae4:	03812403          	lw	s0,56(sp)
80000ae8:	03412483          	lw	s1,52(sp)
80000aec:	03c12083          	lw	ra,60(sp)
80000af0:	04010113          	addi	sp,sp,64
80000af4:	00008067          	ret

80000af8 <matrix_test>:
80000af8:	fc010113          	addi	sp,sp,-64
80000afc:	02112e23          	sw	ra,60(sp)
80000b00:	02812c23          	sw	s0,56(sp)
80000b04:	02912a23          	sw	s1,52(sp)
80000b08:	02a12623          	sw	a0,44(sp)
80000b0c:	00b12823          	sw	a1,16(sp)
80000b10:	00c12a23          	sw	a2,20(sp)
80000b14:	02d12423          	sw	a3,40(sp)
80000b18:	4a050263          	beqz	a0,80000fbc <matrix_test+0x4c4>
80000b1c:	00151293          	slli	t0,a0,0x1
80000b20:	00c287b3          	add	a5,t0,a2
80000b24:	40a00633          	neg	a2,a0
80000b28:	01071493          	slli	s1,a4,0x10
80000b2c:	00261413          	slli	s0,a2,0x2
80000b30:	00050093          	mv	ra,a0
80000b34:	0104d493          	srli	s1,s1,0x10
80000b38:	00078593          	mv	a1,a5
80000b3c:	00000693          	li	a3,0
80000b40:	00812c23          	sw	s0,24(sp)
80000b44:	405583b3          	sub	t2,a1,t0
80000b48:	00038613          	mv	a2,t2
80000b4c:	00065503          	lhu	a0,0(a2)
80000b50:	00260613          	addi	a2,a2,2
80000b54:	00a48533          	add	a0,s1,a0
80000b58:	fea61f23          	sh	a0,-2(a2)
80000b5c:	feb618e3          	bne	a2,a1,80000b4c <matrix_test+0x54>
80000b60:	00168313          	addi	t1,a3,1
80000b64:	408385b3          	sub	a1,t2,s0
80000b68:	00608663          	beq	ra,t1,80000b74 <matrix_test+0x7c>
80000b6c:	00030693          	mv	a3,t1
80000b70:	fd5ff06f          	j	80000b44 <matrix_test+0x4c>
80000b74:	00000613          	li	a2,0
80000b78:	00000593          	li	a1,0
80000b7c:	02512223          	sw	t0,36(sp)
80000b80:	00612e23          	sw	t1,28(sp)
80000b84:	02d12023          	sw	a3,32(sp)
80000b88:	00f12023          	sw	a5,0(sp)
80000b8c:	00e12223          	sw	a4,4(sp)
80000b90:	02912823          	sw	s1,48(sp)
80000b94:	01412683          	lw	a3,20(sp)
80000b98:	00161793          	slli	a5,a2,0x1
80000b9c:	00261713          	slli	a4,a2,0x2
80000ba0:	00f68433          	add	s0,a3,a5
80000ba4:	01012783          	lw	a5,16(sp)
80000ba8:	00c12423          	sw	a2,8(sp)
80000bac:	00b12623          	sw	a1,12(sp)
80000bb0:	00f704b3          	add	s1,a4,a5
80000bb4:	00048793          	mv	a5,s1
80000bb8:	00040493          	mv	s1,s0
80000bbc:	00078413          	mv	s0,a5
80000bc0:	00049503          	lh	a0,0(s1)
80000bc4:	00412583          	lw	a1,4(sp)
80000bc8:	00248493          	addi	s1,s1,2
80000bcc:	00440413          	addi	s0,s0,4
80000bd0:	27d010ef          	jal	8000264c <__mulsi3>
80000bd4:	00012783          	lw	a5,0(sp)
80000bd8:	fea42e23          	sw	a0,-4(s0)
80000bdc:	fe9792e3          	bne	a5,s1,80000bc0 <matrix_test+0xc8>
80000be0:	01c12703          	lw	a4,28(sp)
80000be4:	00812603          	lw	a2,8(sp)
80000be8:	02412683          	lw	a3,36(sp)
80000bec:	00c12583          	lw	a1,12(sp)
80000bf0:	00e60633          	add	a2,a2,a4
80000bf4:	00012703          	lw	a4,0(sp)
80000bf8:	00158793          	addi	a5,a1,1
80000bfc:	00d70733          	add	a4,a4,a3
80000c00:	00e12023          	sw	a4,0(sp)
80000c04:	02012703          	lw	a4,32(sp)
80000c08:	00e58663          	beq	a1,a4,80000c14 <matrix_test+0x11c>
80000c0c:	00078593          	mv	a1,a5
80000c10:	f85ff06f          	j	80000b94 <matrix_test+0x9c>
80000c14:	00070693          	mv	a3,a4
80000c18:	00412703          	lw	a4,4(sp)
80000c1c:	fffff7b7          	lui	a5,0xfffff
80000c20:	01012083          	lw	ra,16(sp)
80000c24:	00f76433          	or	s0,a4,a5
80000c28:	03012483          	lw	s1,48(sp)
80000c2c:	01812783          	lw	a5,24(sp)
80000c30:	01c12303          	lw	t1,28(sp)
80000c34:	00000513          	li	a0,0
80000c38:	40f085b3          	sub	a1,ra,a5
80000c3c:	00000293          	li	t0,0
80000c40:	00050793          	mv	a5,a0
80000c44:	00000713          	li	a4,0
80000c48:	00000613          	li	a2,0
80000c4c:	00000393          	li	t2,0
80000c50:	00008513          	mv	a0,ra
80000c54:	00912223          	sw	s1,4(sp)
80000c58:	00229093          	slli	ra,t0,0x2
80000c5c:	001500b3          	add	ra,a0,ra
80000c60:	00512023          	sw	t0,0(sp)
80000c64:	0140006f          	j	80000c78 <matrix_test+0x180>
80000c68:	01079793          	slli	a5,a5,0x10
80000c6c:	00408093          	addi	ra,ra,4
80000c70:	4107d793          	srai	a5,a5,0x10
80000c74:	02b08e63          	beq	ra,a1,80000cb0 <matrix_test+0x1b8>
80000c78:	00070293          	mv	t0,a4
80000c7c:	0000a703          	lw	a4,0(ra)
80000c80:	01079793          	slli	a5,a5,0x10
80000c84:	0107d793          	srli	a5,a5,0x10
80000c88:	00e2a2b3          	slt	t0,t0,a4
80000c8c:	00e60633          	add	a2,a2,a4
80000c90:	00a78493          	addi	s1,a5,10 # fffff00a <_end+0x7fff200a>
80000c94:	005787b3          	add	a5,a5,t0
80000c98:	fcc458e3          	bge	s0,a2,80000c68 <matrix_test+0x170>
80000c9c:	01049793          	slli	a5,s1,0x10
80000ca0:	00408093          	addi	ra,ra,4
80000ca4:	4107d793          	srai	a5,a5,0x10
80000ca8:	00000613          	li	a2,0
80000cac:	fcb096e3          	bne	ra,a1,80000c78 <matrix_test+0x180>
80000cb0:	00012283          	lw	t0,0(sp)
80000cb4:	01812583          	lw	a1,24(sp)
80000cb8:	00138493          	addi	s1,t2,1
80000cbc:	006282b3          	add	t0,t0,t1
80000cc0:	40b085b3          	sub	a1,ra,a1
80000cc4:	00768663          	beq	a3,t2,80000cd0 <matrix_test+0x1d8>
80000cc8:	00048393          	mv	t2,s1
80000ccc:	f8dff06f          	j	80000c58 <matrix_test+0x160>
80000cd0:	00078513          	mv	a0,a5
80000cd4:	00000593          	li	a1,0
80000cd8:	00412483          	lw	s1,4(sp)
80000cdc:	5c0000ef          	jal	8000129c <crc16>
80000ce0:	00050793          	mv	a5,a0
80000ce4:	02812683          	lw	a3,40(sp)
80000ce8:	01412603          	lw	a2,20(sp)
80000cec:	01012583          	lw	a1,16(sp)
80000cf0:	02c12503          	lw	a0,44(sp)
80000cf4:	00f12c23          	sw	a5,24(sp)
80000cf8:	af1ff0ef          	jal	800007e8 <matrix_mul_vect>
80000cfc:	02c12383          	lw	t2,44(sp)
80000d00:	01012283          	lw	t0,16(sp)
80000d04:	00912e23          	sw	s1,28(sp)
80000d08:	00239713          	slli	a4,t2,0x2
80000d0c:	00e28333          	add	t1,t0,a4
80000d10:	00030593          	mv	a1,t1
80000d14:	00612623          	sw	t1,12(sp)
80000d18:	00e12223          	sw	a4,4(sp)
80000d1c:	00000513          	li	a0,0
80000d20:	00000793          	li	a5,0
80000d24:	00000693          	li	a3,0
80000d28:	00000613          	li	a2,0
80000d2c:	00000093          	li	ra,0
80000d30:	00070313          	mv	t1,a4
80000d34:	00028493          	mv	s1,t0
80000d38:	00251713          	slli	a4,a0,0x2
80000d3c:	00e48733          	add	a4,s1,a4
80000d40:	00a12023          	sw	a0,0(sp)
80000d44:	0140006f          	j	80000d58 <matrix_test+0x260>
80000d48:	01079793          	slli	a5,a5,0x10
80000d4c:	00470713          	addi	a4,a4,4
80000d50:	4107d793          	srai	a5,a5,0x10
80000d54:	02b70e63          	beq	a4,a1,80000d90 <matrix_test+0x298>
80000d58:	00068513          	mv	a0,a3
80000d5c:	00072683          	lw	a3,0(a4)
80000d60:	01079793          	slli	a5,a5,0x10
80000d64:	0107d793          	srli	a5,a5,0x10
80000d68:	00d52533          	slt	a0,a0,a3
80000d6c:	00d60633          	add	a2,a2,a3
80000d70:	00a78293          	addi	t0,a5,10
80000d74:	00a787b3          	add	a5,a5,a0
80000d78:	fcc458e3          	bge	s0,a2,80000d48 <matrix_test+0x250>
80000d7c:	01029793          	slli	a5,t0,0x10
80000d80:	00470713          	addi	a4,a4,4
80000d84:	4107d793          	srai	a5,a5,0x10
80000d88:	00000613          	li	a2,0
80000d8c:	fcb716e3          	bne	a4,a1,80000d58 <matrix_test+0x260>
80000d90:	00012503          	lw	a0,0(sp)
80000d94:	00108293          	addi	t0,ra,1
80000d98:	006705b3          	add	a1,a4,t1
80000d9c:	00750533          	add	a0,a0,t2
80000da0:	00538663          	beq	t2,t0,80000dac <matrix_test+0x2b4>
80000da4:	00028093          	mv	ra,t0
80000da8:	f91ff06f          	j	80000d38 <matrix_test+0x240>
80000dac:	00c12303          	lw	t1,12(sp)
80000db0:	01812583          	lw	a1,24(sp)
80000db4:	00078513          	mv	a0,a5
80000db8:	01c12483          	lw	s1,28(sp)
80000dbc:	00112423          	sw	ra,8(sp)
80000dc0:	00612023          	sw	t1,0(sp)
80000dc4:	00512623          	sw	t0,12(sp)
80000dc8:	4d4000ef          	jal	8000129c <crc16>
80000dcc:	00050793          	mv	a5,a0
80000dd0:	01412603          	lw	a2,20(sp)
80000dd4:	01012583          	lw	a1,16(sp)
80000dd8:	00c12503          	lw	a0,12(sp)
80000ddc:	02812683          	lw	a3,40(sp)
80000de0:	00f12c23          	sw	a5,24(sp)
80000de4:	abdff0ef          	jal	800008a0 <matrix_mul_matrix>
80000de8:	00012303          	lw	t1,0(sp)
80000dec:	00000513          	li	a0,0
80000df0:	00050793          	mv	a5,a0
80000df4:	02912023          	sw	s1,32(sp)
80000df8:	00812503          	lw	a0,8(sp)
80000dfc:	01012083          	lw	ra,16(sp)
80000e00:	00c12483          	lw	s1,12(sp)
80000e04:	00030593          	mv	a1,t1
80000e08:	00000293          	li	t0,0
80000e0c:	00000713          	li	a4,0
80000e10:	00000613          	li	a2,0
80000e14:	00000393          	li	t2,0
80000e18:	00612e23          	sw	t1,28(sp)
80000e1c:	00229693          	slli	a3,t0,0x2
80000e20:	00d086b3          	add	a3,ra,a3
80000e24:	00512023          	sw	t0,0(sp)
80000e28:	0140006f          	j	80000e3c <matrix_test+0x344>
80000e2c:	01079793          	slli	a5,a5,0x10
80000e30:	00468693          	addi	a3,a3,4
80000e34:	4107d793          	srai	a5,a5,0x10
80000e38:	02d58e63          	beq	a1,a3,80000e74 <matrix_test+0x37c>
80000e3c:	00070313          	mv	t1,a4
80000e40:	0006a703          	lw	a4,0(a3)
80000e44:	01079793          	slli	a5,a5,0x10
80000e48:	0107d793          	srli	a5,a5,0x10
80000e4c:	00e32333          	slt	t1,t1,a4
80000e50:	00e60633          	add	a2,a2,a4
80000e54:	00a78293          	addi	t0,a5,10
80000e58:	006787b3          	add	a5,a5,t1
80000e5c:	fcc458e3          	bge	s0,a2,80000e2c <matrix_test+0x334>
80000e60:	01029793          	slli	a5,t0,0x10
80000e64:	00468693          	addi	a3,a3,4
80000e68:	4107d793          	srai	a5,a5,0x10
80000e6c:	00000613          	li	a2,0
80000e70:	fcd596e3          	bne	a1,a3,80000e3c <matrix_test+0x344>
80000e74:	00012283          	lw	t0,0(sp)
80000e78:	00412303          	lw	t1,4(sp)
80000e7c:	00138693          	addi	a3,t2,1
80000e80:	009282b3          	add	t0,t0,s1
80000e84:	006585b3          	add	a1,a1,t1
80000e88:	00a38663          	beq	t2,a0,80000e94 <matrix_test+0x39c>
80000e8c:	00068393          	mv	t2,a3
80000e90:	f8dff06f          	j	80000e1c <matrix_test+0x324>
80000e94:	01812583          	lw	a1,24(sp)
80000e98:	00078513          	mv	a0,a5
80000e9c:	02012483          	lw	s1,32(sp)
80000ea0:	3fc000ef          	jal	8000129c <crc16>
80000ea4:	00050793          	mv	a5,a0
80000ea8:	01412603          	lw	a2,20(sp)
80000eac:	01012583          	lw	a1,16(sp)
80000eb0:	00c12503          	lw	a0,12(sp)
80000eb4:	02812683          	lw	a3,40(sp)
80000eb8:	00f12023          	sw	a5,0(sp)
80000ebc:	b0dff0ef          	jal	800009c8 <matrix_mul_matrix_bitextract>
80000ec0:	00000513          	li	a0,0
80000ec4:	00050793          	mv	a5,a0
80000ec8:	01c12303          	lw	t1,28(sp)
80000ecc:	00c12503          	lw	a0,12(sp)
80000ed0:	01012083          	lw	ra,16(sp)
80000ed4:	00000593          	li	a1,0
80000ed8:	00000713          	li	a4,0
80000edc:	00000613          	li	a2,0
80000ee0:	00000293          	li	t0,0
80000ee4:	00912823          	sw	s1,16(sp)
80000ee8:	00259693          	slli	a3,a1,0x2
80000eec:	00d086b3          	add	a3,ra,a3
80000ef0:	0140006f          	j	80000f04 <matrix_test+0x40c>
80000ef4:	01079793          	slli	a5,a5,0x10
80000ef8:	00468693          	addi	a3,a3,4
80000efc:	4107d793          	srai	a5,a5,0x10
80000f00:	02d30e63          	beq	t1,a3,80000f3c <matrix_test+0x444>
80000f04:	00070393          	mv	t2,a4
80000f08:	0006a703          	lw	a4,0(a3)
80000f0c:	01079793          	slli	a5,a5,0x10
80000f10:	0107d793          	srli	a5,a5,0x10
80000f14:	00e3a3b3          	slt	t2,t2,a4
80000f18:	00e60633          	add	a2,a2,a4
80000f1c:	00a78493          	addi	s1,a5,10
80000f20:	007787b3          	add	a5,a5,t2
80000f24:	fcc458e3          	bge	s0,a2,80000ef4 <matrix_test+0x3fc>
80000f28:	01049793          	slli	a5,s1,0x10
80000f2c:	00468693          	addi	a3,a3,4
80000f30:	4107d793          	srai	a5,a5,0x10
80000f34:	00000613          	li	a2,0
80000f38:	fcd316e3          	bne	t1,a3,80000f04 <matrix_test+0x40c>
80000f3c:	00412383          	lw	t2,4(sp)
80000f40:	00128693          	addi	a3,t0,1
80000f44:	00a585b3          	add	a1,a1,a0
80000f48:	00730333          	add	t1,t1,t2
80000f4c:	00812383          	lw	t2,8(sp)
80000f50:	00728663          	beq	t0,t2,80000f5c <matrix_test+0x464>
80000f54:	00068293          	mv	t0,a3
80000f58:	f91ff06f          	j	80000ee8 <matrix_test+0x3f0>
80000f5c:	00012583          	lw	a1,0(sp)
80000f60:	00078513          	mv	a0,a5
80000f64:	01012483          	lw	s1,16(sp)
80000f68:	334000ef          	jal	8000129c <crc16>
80000f6c:	00c12783          	lw	a5,12(sp)
80000f70:	00812383          	lw	t2,8(sp)
80000f74:	00000313          	li	t1,0
80000f78:	00179593          	slli	a1,a5,0x1
80000f7c:	40f00633          	neg	a2,a5
80000f80:	01412783          	lw	a5,20(sp)
80000f84:	00261613          	slli	a2,a2,0x2
80000f88:	00b786b3          	add	a3,a5,a1
80000f8c:	40b682b3          	sub	t0,a3,a1
80000f90:	00028793          	mv	a5,t0
80000f94:	0007d703          	lhu	a4,0(a5)
80000f98:	00278793          	addi	a5,a5,2
80000f9c:	40970733          	sub	a4,a4,s1
80000fa0:	fee79f23          	sh	a4,-2(a5)
80000fa4:	fed798e3          	bne	a5,a3,80000f94 <matrix_test+0x49c>
80000fa8:	00130793          	addi	a5,t1,1
80000fac:	40c286b3          	sub	a3,t0,a2
80000fb0:	08730263          	beq	t1,t2,80001034 <matrix_test+0x53c>
80000fb4:	00078313          	mv	t1,a5
80000fb8:	fd5ff06f          	j	80000f8c <matrix_test+0x494>
80000fbc:	00000593          	li	a1,0
80000fc0:	2dc000ef          	jal	8000129c <crc16>
80000fc4:	01012483          	lw	s1,16(sp)
80000fc8:	02812683          	lw	a3,40(sp)
80000fcc:	01412603          	lw	a2,20(sp)
80000fd0:	00050413          	mv	s0,a0
80000fd4:	00048593          	mv	a1,s1
80000fd8:	00000513          	li	a0,0
80000fdc:	80dff0ef          	jal	800007e8 <matrix_mul_vect>
80000fe0:	00040593          	mv	a1,s0
80000fe4:	00000513          	li	a0,0
80000fe8:	2b4000ef          	jal	8000129c <crc16>
80000fec:	02812683          	lw	a3,40(sp)
80000ff0:	01412603          	lw	a2,20(sp)
80000ff4:	00050413          	mv	s0,a0
80000ff8:	00048593          	mv	a1,s1
80000ffc:	00000513          	li	a0,0
80001000:	8a1ff0ef          	jal	800008a0 <matrix_mul_matrix>
80001004:	00040593          	mv	a1,s0
80001008:	00000513          	li	a0,0
8000100c:	290000ef          	jal	8000129c <crc16>
80001010:	02812683          	lw	a3,40(sp)
80001014:	01412603          	lw	a2,20(sp)
80001018:	00050413          	mv	s0,a0
8000101c:	00048593          	mv	a1,s1
80001020:	00000513          	li	a0,0
80001024:	9a5ff0ef          	jal	800009c8 <matrix_mul_matrix_bitextract>
80001028:	00040593          	mv	a1,s0
8000102c:	00000513          	li	a0,0
80001030:	26c000ef          	jal	8000129c <crc16>
80001034:	03c12083          	lw	ra,60(sp)
80001038:	03812403          	lw	s0,56(sp)
8000103c:	01051513          	slli	a0,a0,0x10
80001040:	03412483          	lw	s1,52(sp)
80001044:	41055513          	srai	a0,a0,0x10
80001048:	04010113          	addi	sp,sp,64
8000104c:	00008067          	ret

80001050 <core_bench_matrix>:
80001050:	ff410113          	addi	sp,sp,-12
80001054:	00812223          	sw	s0,4(sp)
80001058:	00852683          	lw	a3,8(a0)
8000105c:	00060413          	mv	s0,a2
80001060:	00058713          	mv	a4,a1
80001064:	00452603          	lw	a2,4(a0)
80001068:	00c52583          	lw	a1,12(a0)
8000106c:	00052503          	lw	a0,0(a0)
80001070:	00112423          	sw	ra,8(sp)
80001074:	a85ff0ef          	jal	80000af8 <matrix_test>
80001078:	00040593          	mv	a1,s0
8000107c:	00412403          	lw	s0,4(sp)
80001080:	00812083          	lw	ra,8(sp)
80001084:	00c10113          	addi	sp,sp,12
80001088:	2140006f          	j	8000129c <crc16>

8000108c <get_seed_32>:
8000108c:	00500793          	li	a5,5
80001090:	04a7ee63          	bltu	a5,a0,800010ec <get_seed_32+0x60>
80001094:	00002717          	auipc	a4,0x2
80001098:	57c70713          	addi	a4,a4,1404 # 80003610 <intpat+0x10>
8000109c:	00251513          	slli	a0,a0,0x2
800010a0:	00e50533          	add	a0,a0,a4
800010a4:	00052783          	lw	a5,0(a0)
800010a8:	00e787b3          	add	a5,a5,a4
800010ac:	00078067          	jr	a5
800010b0:	00003517          	auipc	a0,0x3
800010b4:	f8452503          	lw	a0,-124(a0) # 80004034 <seed5_volatile>
800010b8:	00008067          	ret
800010bc:	00003517          	auipc	a0,0x3
800010c0:	f8052503          	lw	a0,-128(a0) # 8000403c <seed1_volatile>
800010c4:	00008067          	ret
800010c8:	00003517          	auipc	a0,0x3
800010cc:	f7052503          	lw	a0,-144(a0) # 80004038 <seed2_volatile>
800010d0:	00008067          	ret
800010d4:	00002517          	auipc	a0,0x2
800010d8:	58452503          	lw	a0,1412(a0) # 80003658 <seed3_volatile>
800010dc:	00008067          	ret
800010e0:	00002517          	auipc	a0,0x2
800010e4:	57452503          	lw	a0,1396(a0) # 80003654 <seed4_volatile>
800010e8:	00008067          	ret
800010ec:	00000513          	li	a0,0
800010f0:	00008067          	ret

800010f4 <crcu16>:
800010f4:	00050693          	mv	a3,a0
800010f8:	ffffa337          	lui	t1,0xffffa
800010fc:	00058513          	mv	a0,a1
80001100:	0ff6f613          	zext.b	a2,a3
80001104:	00800713          	li	a4,8
80001108:	00130313          	addi	t1,t1,1 # ffffa001 <_end+0x7ffed001>
8000110c:	00a647b3          	xor	a5,a2,a0
80001110:	0017f793          	andi	a5,a5,1
80001114:	40f007b3          	neg	a5,a5
80001118:	00155513          	srli	a0,a0,0x1
8000111c:	0067f7b3          	and	a5,a5,t1
80001120:	fff70713          	addi	a4,a4,-1
80001124:	00a7c7b3          	xor	a5,a5,a0
80001128:	01079513          	slli	a0,a5,0x10
8000112c:	0ff77713          	zext.b	a4,a4
80001130:	00165613          	srli	a2,a2,0x1
80001134:	01055513          	srli	a0,a0,0x10
80001138:	fc071ae3          	bnez	a4,8000110c <crcu16+0x18>
8000113c:	ffffa637          	lui	a2,0xffffa
80001140:	0086d693          	srli	a3,a3,0x8
80001144:	00800713          	li	a4,8
80001148:	00160613          	addi	a2,a2,1 # ffffa001 <_end+0x7ffed001>
8000114c:	00a6c7b3          	xor	a5,a3,a0
80001150:	0017f793          	andi	a5,a5,1
80001154:	40f007b3          	neg	a5,a5
80001158:	00155513          	srli	a0,a0,0x1
8000115c:	00c7f7b3          	and	a5,a5,a2
80001160:	fff70713          	addi	a4,a4,-1
80001164:	00a7c7b3          	xor	a5,a5,a0
80001168:	01079513          	slli	a0,a5,0x10
8000116c:	0ff77713          	zext.b	a4,a4
80001170:	0016d693          	srli	a3,a3,0x1
80001174:	01055513          	srli	a0,a0,0x10
80001178:	fc071ae3          	bnez	a4,8000114c <crcu16+0x58>
8000117c:	00008067          	ret

80001180 <crcu32>:
80001180:	00050713          	mv	a4,a0
80001184:	ffffa337          	lui	t1,0xffffa
80001188:	01071613          	slli	a2,a4,0x10
8000118c:	00058513          	mv	a0,a1
80001190:	01065613          	srli	a2,a2,0x10
80001194:	0ff77593          	zext.b	a1,a4
80001198:	00800693          	li	a3,8
8000119c:	00130313          	addi	t1,t1,1 # ffffa001 <_end+0x7ffed001>
800011a0:	00a5c7b3          	xor	a5,a1,a0
800011a4:	0017f793          	andi	a5,a5,1
800011a8:	40f007b3          	neg	a5,a5
800011ac:	00155513          	srli	a0,a0,0x1
800011b0:	0067f7b3          	and	a5,a5,t1
800011b4:	fff68693          	addi	a3,a3,-1
800011b8:	00a7c7b3          	xor	a5,a5,a0
800011bc:	01079513          	slli	a0,a5,0x10
800011c0:	0ff6f693          	zext.b	a3,a3
800011c4:	0015d593          	srli	a1,a1,0x1
800011c8:	01055513          	srli	a0,a0,0x10
800011cc:	fc069ae3          	bnez	a3,800011a0 <crcu32+0x20>
800011d0:	ffffa5b7          	lui	a1,0xffffa
800011d4:	00865613          	srli	a2,a2,0x8
800011d8:	00800693          	li	a3,8
800011dc:	00158593          	addi	a1,a1,1 # ffffa001 <_end+0x7ffed001>
800011e0:	00a647b3          	xor	a5,a2,a0
800011e4:	0017f793          	andi	a5,a5,1
800011e8:	40f007b3          	neg	a5,a5
800011ec:	00155513          	srli	a0,a0,0x1
800011f0:	00b7f7b3          	and	a5,a5,a1
800011f4:	fff68693          	addi	a3,a3,-1
800011f8:	00a7c7b3          	xor	a5,a5,a0
800011fc:	01079513          	slli	a0,a5,0x10
80001200:	0ff6f693          	zext.b	a3,a3
80001204:	00165613          	srli	a2,a2,0x1
80001208:	01055513          	srli	a0,a0,0x10
8000120c:	fc069ae3          	bnez	a3,800011e0 <crcu32+0x60>
80001210:	01075593          	srli	a1,a4,0x10
80001214:	ffffa637          	lui	a2,0xffffa
80001218:	00058713          	mv	a4,a1
8000121c:	00800693          	li	a3,8
80001220:	0ff5f593          	zext.b	a1,a1
80001224:	00160613          	addi	a2,a2,1 # ffffa001 <_end+0x7ffed001>
80001228:	00a5c7b3          	xor	a5,a1,a0
8000122c:	0017f793          	andi	a5,a5,1
80001230:	40f007b3          	neg	a5,a5
80001234:	00155513          	srli	a0,a0,0x1
80001238:	00c7f7b3          	and	a5,a5,a2
8000123c:	fff68693          	addi	a3,a3,-1
80001240:	00a7c7b3          	xor	a5,a5,a0
80001244:	01079513          	slli	a0,a5,0x10
80001248:	0ff6f693          	zext.b	a3,a3
8000124c:	0015d593          	srli	a1,a1,0x1
80001250:	01055513          	srli	a0,a0,0x10
80001254:	fc069ae3          	bnez	a3,80001228 <crcu32+0xa8>
80001258:	ffffa637          	lui	a2,0xffffa
8000125c:	00875713          	srli	a4,a4,0x8
80001260:	00800693          	li	a3,8
80001264:	00160613          	addi	a2,a2,1 # ffffa001 <_end+0x7ffed001>
80001268:	00a747b3          	xor	a5,a4,a0
8000126c:	0017f793          	andi	a5,a5,1
80001270:	40f007b3          	neg	a5,a5
80001274:	00155513          	srli	a0,a0,0x1
80001278:	00c7f7b3          	and	a5,a5,a2
8000127c:	fff68693          	addi	a3,a3,-1
80001280:	00a7c7b3          	xor	a5,a5,a0
80001284:	01079513          	slli	a0,a5,0x10
80001288:	0ff6f693          	zext.b	a3,a3
8000128c:	00175713          	srli	a4,a4,0x1
80001290:	01055513          	srli	a0,a0,0x10
80001294:	fc069ae3          	bnez	a3,80001268 <crcu32+0xe8>
80001298:	00008067          	ret

8000129c <crc16>:
8000129c:	00050693          	mv	a3,a0
800012a0:	01069613          	slli	a2,a3,0x10
800012a4:	ffffa337          	lui	t1,0xffffa
800012a8:	00058513          	mv	a0,a1
800012ac:	01065613          	srli	a2,a2,0x10
800012b0:	0ff6f693          	zext.b	a3,a3
800012b4:	00800713          	li	a4,8
800012b8:	00130313          	addi	t1,t1,1 # ffffa001 <_end+0x7ffed001>
800012bc:	00a6c7b3          	xor	a5,a3,a0
800012c0:	0017f793          	andi	a5,a5,1
800012c4:	40f007b3          	neg	a5,a5
800012c8:	00155513          	srli	a0,a0,0x1
800012cc:	0067f7b3          	and	a5,a5,t1
800012d0:	fff70713          	addi	a4,a4,-1
800012d4:	00a7c7b3          	xor	a5,a5,a0
800012d8:	01079513          	slli	a0,a5,0x10
800012dc:	0ff77713          	zext.b	a4,a4
800012e0:	0016d693          	srli	a3,a3,0x1
800012e4:	01055513          	srli	a0,a0,0x10
800012e8:	fc071ae3          	bnez	a4,800012bc <crc16+0x20>
800012ec:	ffffa5b7          	lui	a1,0xffffa
800012f0:	00865693          	srli	a3,a2,0x8
800012f4:	00800713          	li	a4,8
800012f8:	00158593          	addi	a1,a1,1 # ffffa001 <_end+0x7ffed001>
800012fc:	00a6c7b3          	xor	a5,a3,a0
80001300:	0017f793          	andi	a5,a5,1
80001304:	40f007b3          	neg	a5,a5
80001308:	00155513          	srli	a0,a0,0x1
8000130c:	00b7f7b3          	and	a5,a5,a1
80001310:	fff70713          	addi	a4,a4,-1
80001314:	00a7c7b3          	xor	a5,a5,a0
80001318:	01079513          	slli	a0,a5,0x10
8000131c:	0ff77713          	zext.b	a4,a4
80001320:	0016d693          	srli	a3,a3,0x1
80001324:	01055513          	srli	a0,a0,0x10
80001328:	fc071ae3          	bnez	a4,800012fc <crc16+0x60>
8000132c:	00008067          	ret

80001330 <check_data_types>:
80001330:	00000513          	li	a0,0
80001334:	00008067          	ret

80001338 <iterate>:
80001338:	01c52783          	lw	a5,28(a0)
8000133c:	ff010113          	addi	sp,sp,-16
80001340:	00112623          	sw	ra,12(sp)
80001344:	00f12023          	sw	a5,0(sp)
80001348:	02052c23          	sw	zero,56(a0)
8000134c:	02052e23          	sw	zero,60(a0)
80001350:	06078063          	beqz	a5,800013b0 <iterate+0x78>
80001354:	00812423          	sw	s0,8(sp)
80001358:	00912223          	sw	s1,4(sp)
8000135c:	00050413          	mv	s0,a0
80001360:	00000493          	li	s1,0
80001364:	00100593          	li	a1,1
80001368:	00040513          	mv	a0,s0
8000136c:	409000ef          	jal	80001f74 <core_bench_list>
80001370:	03845583          	lhu	a1,56(s0)
80001374:	d81ff0ef          	jal	800010f4 <crcu16>
80001378:	02a41c23          	sh	a0,56(s0)
8000137c:	fff00593          	li	a1,-1
80001380:	00040513          	mv	a0,s0
80001384:	3f1000ef          	jal	80001f74 <core_bench_list>
80001388:	03845583          	lhu	a1,56(s0)
8000138c:	d69ff0ef          	jal	800010f4 <crcu16>
80001390:	02a41c23          	sh	a0,56(s0)
80001394:	00049463          	bnez	s1,8000139c <iterate+0x64>
80001398:	02a41d23          	sh	a0,58(s0)
8000139c:	00012783          	lw	a5,0(sp)
800013a0:	00148493          	addi	s1,s1,1
800013a4:	fc9790e3          	bne	a5,s1,80001364 <iterate+0x2c>
800013a8:	00812403          	lw	s0,8(sp)
800013ac:	00412483          	lw	s1,4(sp)
800013b0:	00c12083          	lw	ra,12(sp)
800013b4:	00000513          	li	a0,0
800013b8:	01010113          	addi	sp,sp,16
800013bc:	00008067          	ret

800013c0 <main>:
800013c0:	f9410113          	addi	sp,sp,-108
800013c4:	06112423          	sw	ra,104(sp)
800013c8:	06812223          	sw	s0,100(sp)
800013cc:	06912023          	sw	s1,96(sp)
800013d0:	00058413          	mv	s0,a1
800013d4:	00a12c23          	sw	a0,24(sp)
800013d8:	100010ef          	jal	800024d8 <ioe_init>
800013dc:	3e800593          	li	a1,1000
800013e0:	00002517          	auipc	a0,0x2
800013e4:	dc050513          	addi	a0,a0,-576 # 800031a0 <_etext+0xb0>
800013e8:	614010ef          	jal	800029fc <printf>
800013ec:	00040613          	mv	a2,s0
800013f0:	01810593          	addi	a1,sp,24
800013f4:	05e10513          	addi	a0,sp,94
800013f8:	035000ef          	jal	80001c2c <portable_init>
800013fc:	00100513          	li	a0,1
80001400:	c8dff0ef          	jal	8000108c <get_seed_32>
80001404:	00050793          	mv	a5,a0
80001408:	00200513          	li	a0,2
8000140c:	00f11e23          	sh	a5,28(sp)
80001410:	c7dff0ef          	jal	8000108c <get_seed_32>
80001414:	00050793          	mv	a5,a0
80001418:	00300513          	li	a0,3
8000141c:	00f11f23          	sh	a5,30(sp)
80001420:	c6dff0ef          	jal	8000108c <get_seed_32>
80001424:	00050793          	mv	a5,a0
80001428:	00400513          	li	a0,4
8000142c:	02f11023          	sh	a5,32(sp)
80001430:	c5dff0ef          	jal	8000108c <get_seed_32>
80001434:	00050793          	mv	a5,a0
80001438:	00500513          	li	a0,5
8000143c:	02f12c23          	sw	a5,56(sp)
80001440:	c4dff0ef          	jal	8000108c <get_seed_32>
80001444:	00700493          	li	s1,7
80001448:	00050463          	beqz	a0,80001450 <main+0x90>
8000144c:	00050493          	mv	s1,a0
80001450:	01c12783          	lw	a5,28(sp)
80001454:	02912e23          	sw	s1,60(sp)
80001458:	20079e63          	bnez	a5,80001674 <main+0x2b4>
8000145c:	02011783          	lh	a5,32(sp)
80001460:	22078863          	beqz	a5,80001690 <main+0x2d0>
80001464:	0024f793          	andi	a5,s1,2
80001468:	00002717          	auipc	a4,0x2
8000146c:	3f470713          	addi	a4,a4,1012 # 8000385c <static_memblk>
80001470:	0014f593          	andi	a1,s1,1
80001474:	00f037b3          	snez	a5,a5
80001478:	02e12223          	sw	a4,36(sp)
8000147c:	04011e23          	sh	zero,92(sp)
80001480:	0044f693          	andi	a3,s1,4
80001484:	00f585b3          	add	a1,a1,a5
80001488:	00068863          	beqz	a3,80001498 <main+0xd8>
8000148c:	00158593          	addi	a1,a1,1
80001490:	01059593          	slli	a1,a1,0x10
80001494:	0105d593          	srli	a1,a1,0x10
80001498:	7d000513          	li	a0,2000
8000149c:	104010ef          	jal	800025a0 <__hidden___udivsi3>
800014a0:	00050593          	mv	a1,a0
800014a4:	02a12a23          	sw	a0,52(sp)
800014a8:	01c10693          	addi	a3,sp,28
800014ac:	00000413          	li	s0,0
800014b0:	00000613          	li	a2,0
800014b4:	00100293          	li	t0,1
800014b8:	00300313          	li	t1,3
800014bc:	008297b3          	sll	a5,t0,s0
800014c0:	0097f7b3          	and	a5,a5,s1
800014c4:	16079463          	bnez	a5,8000162c <main+0x26c>
800014c8:	00140413          	addi	s0,s0,1
800014cc:	00468693          	addi	a3,a3,4
800014d0:	fe6416e3          	bne	s0,t1,800014bc <main+0xfc>
800014d4:	03c12783          	lw	a5,60(sp)
800014d8:	0017f713          	andi	a4,a5,1
800014dc:	00070e63          	beqz	a4,800014f8 <main+0x138>
800014e0:	01c11603          	lh	a2,28(sp)
800014e4:	02812583          	lw	a1,40(sp)
800014e8:	03412503          	lw	a0,52(sp)
800014ec:	539000ef          	jal	80002224 <core_list_init>
800014f0:	03c12783          	lw	a5,60(sp)
800014f4:	04a12023          	sw	a0,64(sp)
800014f8:	0027f713          	andi	a4,a5,2
800014fc:	10071463          	bnez	a4,80001604 <main+0x244>
80001500:	0047f793          	andi	a5,a5,4
80001504:	00078a63          	beqz	a5,80001518 <main+0x158>
80001508:	03012603          	lw	a2,48(sp)
8000150c:	01c11583          	lh	a1,28(sp)
80001510:	03412503          	lw	a0,52(sp)
80001514:	afdfe0ef          	jal	80000010 <core_init_state>
80001518:	03812783          	lw	a5,56(sp)
8000151c:	04079e63          	bnez	a5,80001578 <main+0x1b8>
80001520:	00100793          	li	a5,1
80001524:	02f12c23          	sw	a5,56(sp)
80001528:	03812703          	lw	a4,56(sp)
8000152c:	00271793          	slli	a5,a4,0x2
80001530:	00e787b3          	add	a5,a5,a4
80001534:	00179793          	slli	a5,a5,0x1
80001538:	02f12c23          	sw	a5,56(sp)
8000153c:	63c000ef          	jal	80001b78 <start_time>
80001540:	01c10513          	addi	a0,sp,28
80001544:	df5ff0ef          	jal	80001338 <iterate>
80001548:	67c000ef          	jal	80001bc4 <stop_time>
8000154c:	6c4000ef          	jal	80001c10 <get_time>
80001550:	6d8000ef          	jal	80001c28 <time_in_secs>
80001554:	fc050ae3          	beqz	a0,80001528 <main+0x168>
80001558:	00050593          	mv	a1,a0
8000155c:	00a00513          	li	a0,10
80001560:	040010ef          	jal	800025a0 <__hidden___udivsi3>
80001564:	00050593          	mv	a1,a0
80001568:	03812503          	lw	a0,56(sp)
8000156c:	00158593          	addi	a1,a1,1
80001570:	0dc010ef          	jal	8000264c <__mulsi3>
80001574:	02a12c23          	sw	a0,56(sp)
80001578:	600000ef          	jal	80001b78 <start_time>
8000157c:	01c10513          	addi	a0,sp,28
80001580:	db9ff0ef          	jal	80001338 <iterate>
80001584:	640000ef          	jal	80001bc4 <stop_time>
80001588:	688000ef          	jal	80001c10 <get_time>
8000158c:	00050793          	mv	a5,a0
80001590:	01c11503          	lh	a0,28(sp)
80001594:	00000593          	li	a1,0
80001598:	00f12223          	sw	a5,4(sp)
8000159c:	d01ff0ef          	jal	8000129c <crc16>
800015a0:	00050593          	mv	a1,a0
800015a4:	01e11503          	lh	a0,30(sp)
800015a8:	cf5ff0ef          	jal	8000129c <crc16>
800015ac:	00050593          	mv	a1,a0
800015b0:	02011503          	lh	a0,32(sp)
800015b4:	ce9ff0ef          	jal	8000129c <crc16>
800015b8:	00050593          	mv	a1,a0
800015bc:	03411503          	lh	a0,52(sp)
800015c0:	cddff0ef          	jal	8000129c <crc16>
800015c4:	000087b7          	lui	a5,0x8
800015c8:	b0578793          	addi	a5,a5,-1275 # 7b05 <_entry_offset+0x7b05>
800015cc:	00050413          	mv	s0,a0
800015d0:	58f50063          	beq	a0,a5,80001b50 <main+0x790>
800015d4:	0ca7f463          	bgeu	a5,a0,8000169c <main+0x2dc>
800015d8:	000097b7          	lui	a5,0x9
800015dc:	a0278793          	addi	a5,a5,-1534 # 8a02 <_entry_offset+0x8a02>
800015e0:	54f50e63          	beq	a0,a5,80001b3c <main+0x77c>
800015e4:	0000f7b7          	lui	a5,0xf
800015e8:	9f578793          	addi	a5,a5,-1547 # e9f5 <_entry_offset+0xe9f5>
800015ec:	26f51663          	bne	a0,a5,80001858 <main+0x498>
800015f0:	00002517          	auipc	a0,0x2
800015f4:	c6450513          	addi	a0,a0,-924 # 80003254 <_etext+0x164>
800015f8:	404010ef          	jal	800029fc <printf>
800015fc:	00300293          	li	t0,3
80001600:	0c40006f          	j	800016c4 <main+0x304>
80001604:	01e11783          	lh	a5,30(sp)
80001608:	01c11603          	lh	a2,28(sp)
8000160c:	02c12583          	lw	a1,44(sp)
80001610:	03412503          	lw	a0,52(sp)
80001614:	01079793          	slli	a5,a5,0x10
80001618:	00c7e633          	or	a2,a5,a2
8000161c:	04410693          	addi	a3,sp,68
80001620:	fddfe0ef          	jal	800005fc <core_init_matrix>
80001624:	03c12783          	lw	a5,60(sp)
80001628:	ed9ff06f          	j	80001500 <main+0x140>
8000162c:	00060513          	mv	a0,a2
80001630:	00d12423          	sw	a3,8(sp)
80001634:	00b12223          	sw	a1,4(sp)
80001638:	00c12023          	sw	a2,0(sp)
8000163c:	010010ef          	jal	8000264c <__mulsi3>
80001640:	00012603          	lw	a2,0(sp)
80001644:	00812683          	lw	a3,8(sp)
80001648:	00002797          	auipc	a5,0x2
8000164c:	21478793          	addi	a5,a5,532 # 8000385c <static_memblk>
80001650:	00160613          	addi	a2,a2,1
80001654:	00a78533          	add	a0,a5,a0
80001658:	01061613          	slli	a2,a2,0x10
8000165c:	00412583          	lw	a1,4(sp)
80001660:	00a6a623          	sw	a0,12(a3)
80001664:	01065613          	srli	a2,a2,0x10
80001668:	00300313          	li	t1,3
8000166c:	00100293          	li	t0,1
80001670:	e59ff06f          	j	800014c8 <main+0x108>
80001674:	00100693          	li	a3,1
80001678:	ded796e3          	bne	a5,a3,80001464 <main+0xa4>
8000167c:	02011783          	lh	a5,32(sp)
80001680:	de0792e3          	bnez	a5,80001464 <main+0xa4>
80001684:	341537b7          	lui	a5,0x34153
80001688:	41578793          	addi	a5,a5,1045 # 34153415 <_entry_offset+0x34153415>
8000168c:	00f12e23          	sw	a5,28(sp)
80001690:	06600793          	li	a5,102
80001694:	02f11023          	sh	a5,32(sp)
80001698:	dcdff06f          	j	80001464 <main+0xa4>
8000169c:	000027b7          	lui	a5,0x2
800016a0:	8f278793          	addi	a5,a5,-1806 # 18f2 <_entry_offset+0x18f2>
800016a4:	48f50263          	beq	a0,a5,80001b28 <main+0x768>
800016a8:	000057b7          	lui	a5,0x5
800016ac:	eaf78793          	addi	a5,a5,-337 # 4eaf <_entry_offset+0x4eaf>
800016b0:	1af51463          	bne	a0,a5,80001858 <main+0x498>
800016b4:	00002517          	auipc	a0,0x2
800016b8:	b6c50513          	addi	a0,a0,-1172 # 80003220 <_etext+0x130>
800016bc:	340010ef          	jal	800029fc <printf>
800016c0:	00200293          	li	t0,2
800016c4:	00002497          	auipc	s1,0x2
800016c8:	f8c48493          	addi	s1,s1,-116 # 80003650 <default_num_contexts>
800016cc:	0004a783          	lw	a5,0(s1)
800016d0:	48078a63          	beqz	a5,80001b64 <main+0x7a4>
800016d4:	00048313          	mv	t1,s1
800016d8:	00000793          	li	a5,0
800016dc:	00000593          	li	a1,0
800016e0:	00812a23          	sw	s0,20(sp)
800016e4:	00028493          	mv	s1,t0
800016e8:	03c0006f          	j	80001724 <main+0x364>
800016ec:	04840713          	addi	a4,s0,72
800016f0:	01810693          	addi	a3,sp,24
800016f4:	00d70433          	add	s0,a4,a3
800016f8:	ffc45703          	lhu	a4,-4(s0)
800016fc:	00158593          	addi	a1,a1,1
80001700:	00032603          	lw	a2,0(t1)
80001704:	00f707b3          	add	a5,a4,a5
80001708:	01059593          	slli	a1,a1,0x10
8000170c:	01079693          	slli	a3,a5,0x10
80001710:	0105d593          	srli	a1,a1,0x10
80001714:	01079793          	slli	a5,a5,0x10
80001718:	0106d693          	srli	a3,a3,0x10
8000171c:	4107d793          	srai	a5,a5,0x10
80001720:	3ac5f463          	bgeu	a1,a2,80001ac8 <main+0x708>
80001724:	00459413          	slli	s0,a1,0x4
80001728:	00b40733          	add	a4,s0,a1
8000172c:	00271713          	slli	a4,a4,0x2
80001730:	01810693          	addi	a3,sp,24
80001734:	04870713          	addi	a4,a4,72
80001738:	00d70733          	add	a4,a4,a3
8000173c:	fdc72503          	lw	a0,-36(a4)
80001740:	fe071e23          	sh	zero,-4(a4)
80001744:	00157693          	andi	a3,a0,1
80001748:	04068e63          	beqz	a3,800017a4 <main+0x3e4>
8000174c:	00002617          	auipc	a2,0x2
80001750:	ef460613          	addi	a2,a2,-268 # 80003640 <list_known_crc>
80001754:	00149693          	slli	a3,s1,0x1
80001758:	00d606b3          	add	a3,a2,a3
8000175c:	0006d683          	lhu	a3,0(a3)
80001760:	ff675603          	lhu	a2,-10(a4)
80001764:	00e12023          	sw	a4,0(sp)
80001768:	02d60e63          	beq	a2,a3,800017a4 <main+0x3e4>
8000176c:	00002517          	auipc	a0,0x2
80001770:	b4450513          	addi	a0,a0,-1212 # 800032b0 <_etext+0x1c0>
80001774:	00612823          	sw	t1,16(sp)
80001778:	00f12623          	sw	a5,12(sp)
8000177c:	00b12423          	sw	a1,8(sp)
80001780:	27c010ef          	jal	800029fc <printf>
80001784:	00012703          	lw	a4,0(sp)
80001788:	01012303          	lw	t1,16(sp)
8000178c:	00c12783          	lw	a5,12(sp)
80001790:	ffc75683          	lhu	a3,-4(a4)
80001794:	fdc72503          	lw	a0,-36(a4)
80001798:	00812583          	lw	a1,8(sp)
8000179c:	00168693          	addi	a3,a3,1
800017a0:	fed71e23          	sh	a3,-4(a4)
800017a4:	00257713          	andi	a4,a0,2
800017a8:	06070863          	beqz	a4,80001818 <main+0x458>
800017ac:	00b40733          	add	a4,s0,a1
800017b0:	00271713          	slli	a4,a4,0x2
800017b4:	01810693          	addi	a3,sp,24
800017b8:	04870713          	addi	a4,a4,72
800017bc:	00d70733          	add	a4,a4,a3
800017c0:	00149613          	slli	a2,s1,0x1
800017c4:	00002697          	auipc	a3,0x2
800017c8:	e7068693          	addi	a3,a3,-400 # 80003634 <matrix_known_crc>
800017cc:	00c686b3          	add	a3,a3,a2
800017d0:	0006d683          	lhu	a3,0(a3)
800017d4:	ff875603          	lhu	a2,-8(a4)
800017d8:	00e12023          	sw	a4,0(sp)
800017dc:	02d60e63          	beq	a2,a3,80001818 <main+0x458>
800017e0:	00002517          	auipc	a0,0x2
800017e4:	b0050513          	addi	a0,a0,-1280 # 800032e0 <_etext+0x1f0>
800017e8:	00612823          	sw	t1,16(sp)
800017ec:	00f12623          	sw	a5,12(sp)
800017f0:	00b12423          	sw	a1,8(sp)
800017f4:	208010ef          	jal	800029fc <printf>
800017f8:	00012703          	lw	a4,0(sp)
800017fc:	01012303          	lw	t1,16(sp)
80001800:	00c12783          	lw	a5,12(sp)
80001804:	ffc75683          	lhu	a3,-4(a4)
80001808:	fdc72503          	lw	a0,-36(a4)
8000180c:	00812583          	lw	a1,8(sp)
80001810:	00168693          	addi	a3,a3,1
80001814:	fed71e23          	sh	a3,-4(a4)
80001818:	00b40433          	add	s0,s0,a1
8000181c:	00457513          	andi	a0,a0,4
80001820:	00241413          	slli	s0,s0,0x2
80001824:	ec0504e3          	beqz	a0,800016ec <main+0x32c>
80001828:	04840713          	addi	a4,s0,72
8000182c:	01810613          	addi	a2,sp,24
80001830:	00149693          	slli	a3,s1,0x1
80001834:	00c70433          	add	s0,a4,a2
80001838:	00002717          	auipc	a4,0x2
8000183c:	df070713          	addi	a4,a4,-528 # 80003628 <state_known_crc>
80001840:	00d70733          	add	a4,a4,a3
80001844:	ffa45603          	lhu	a2,-6(s0)
80001848:	00075683          	lhu	a3,0(a4)
8000184c:	24d61063          	bne	a2,a3,80001a8c <main+0x6cc>
80001850:	ffc45703          	lhu	a4,-4(s0)
80001854:	ea9ff06f          	j	800016fc <main+0x33c>
80001858:	000106b7          	lui	a3,0x10
8000185c:	fff68693          	addi	a3,a3,-1 # ffff <_entry_offset+0xffff>
80001860:	00002497          	auipc	s1,0x2
80001864:	df048493          	addi	s1,s1,-528 # 80003650 <default_num_contexts>
80001868:	00d12023          	sw	a3,0(sp)
8000186c:	ac5ff0ef          	jal	80001330 <check_data_types>
80001870:	00012683          	lw	a3,0(sp)
80001874:	03412583          	lw	a1,52(sp)
80001878:	00d507b3          	add	a5,a0,a3
8000187c:	01079793          	slli	a5,a5,0x10
80001880:	4107d793          	srai	a5,a5,0x10
80001884:	00002517          	auipc	a0,0x2
80001888:	ac050513          	addi	a0,a0,-1344 # 80003344 <_etext+0x254>
8000188c:	00f12023          	sw	a5,0(sp)
80001890:	16c010ef          	jal	800029fc <printf>
80001894:	00412503          	lw	a0,4(sp)
80001898:	390000ef          	jal	80001c28 <time_in_secs>
8000189c:	00050593          	mv	a1,a0
800018a0:	00002517          	auipc	a0,0x2
800018a4:	abc50513          	addi	a0,a0,-1348 # 8000335c <_etext+0x26c>
800018a8:	154010ef          	jal	800029fc <printf>
800018ac:	0004a583          	lw	a1,0(s1)
800018b0:	03812503          	lw	a0,56(sp)
800018b4:	599000ef          	jal	8000264c <__mulsi3>
800018b8:	00050593          	mv	a1,a0
800018bc:	00002517          	auipc	a0,0x2
800018c0:	ab850513          	addi	a0,a0,-1352 # 80003374 <_etext+0x284>
800018c4:	138010ef          	jal	800029fc <printf>
800018c8:	00002597          	auipc	a1,0x2
800018cc:	ac458593          	addi	a1,a1,-1340 # 8000338c <_etext+0x29c>
800018d0:	00002517          	auipc	a0,0x2
800018d4:	ac850513          	addi	a0,a0,-1336 # 80003398 <_etext+0x2a8>
800018d8:	124010ef          	jal	800029fc <printf>
800018dc:	00040593          	mv	a1,s0
800018e0:	00002517          	auipc	a0,0x2
800018e4:	ad050513          	addi	a0,a0,-1328 # 800033b0 <_etext+0x2c0>
800018e8:	114010ef          	jal	800029fc <printf>
800018ec:	03c12783          	lw	a5,60(sp)
800018f0:	0017f693          	andi	a3,a5,1
800018f4:	04068a63          	beqz	a3,80001948 <main+0x588>
800018f8:	0004a683          	lw	a3,0(s1)
800018fc:	04068663          	beqz	a3,80001948 <main+0x588>
80001900:	00000413          	li	s0,0
80001904:	00441793          	slli	a5,s0,0x4
80001908:	008787b3          	add	a5,a5,s0
8000190c:	00279793          	slli	a5,a5,0x2
80001910:	01810713          	addi	a4,sp,24
80001914:	04878793          	addi	a5,a5,72
80001918:	00e787b3          	add	a5,a5,a4
8000191c:	ff67d603          	lhu	a2,-10(a5)
80001920:	00040593          	mv	a1,s0
80001924:	00002517          	auipc	a0,0x2
80001928:	aa850513          	addi	a0,a0,-1368 # 800033cc <_etext+0x2dc>
8000192c:	0d0010ef          	jal	800029fc <printf>
80001930:	00140413          	addi	s0,s0,1
80001934:	0004a783          	lw	a5,0(s1)
80001938:	01041413          	slli	s0,s0,0x10
8000193c:	01045413          	srli	s0,s0,0x10
80001940:	fcf462e3          	bltu	s0,a5,80001904 <main+0x544>
80001944:	03c12783          	lw	a5,60(sp)
80001948:	0027f693          	andi	a3,a5,2
8000194c:	04068a63          	beqz	a3,800019a0 <main+0x5e0>
80001950:	0004a683          	lw	a3,0(s1)
80001954:	20068c63          	beqz	a3,80001b6c <main+0x7ac>
80001958:	00000413          	li	s0,0
8000195c:	00441793          	slli	a5,s0,0x4
80001960:	008787b3          	add	a5,a5,s0
80001964:	00279793          	slli	a5,a5,0x2
80001968:	01810713          	addi	a4,sp,24
8000196c:	04878793          	addi	a5,a5,72
80001970:	00e787b3          	add	a5,a5,a4
80001974:	ff87d603          	lhu	a2,-8(a5)
80001978:	00040593          	mv	a1,s0
8000197c:	00002517          	auipc	a0,0x2
80001980:	a6c50513          	addi	a0,a0,-1428 # 800033e8 <_etext+0x2f8>
80001984:	078010ef          	jal	800029fc <printf>
80001988:	00140413          	addi	s0,s0,1
8000198c:	0004a783          	lw	a5,0(s1)
80001990:	01041413          	slli	s0,s0,0x10
80001994:	01045413          	srli	s0,s0,0x10
80001998:	fcf462e3          	bltu	s0,a5,8000195c <main+0x59c>
8000199c:	03c12783          	lw	a5,60(sp)
800019a0:	0047f793          	andi	a5,a5,4
800019a4:	0004a683          	lw	a3,0(s1)
800019a8:	04078663          	beqz	a5,800019f4 <main+0x634>
800019ac:	00000413          	li	s0,0
800019b0:	08068863          	beqz	a3,80001a40 <main+0x680>
800019b4:	00441793          	slli	a5,s0,0x4
800019b8:	008787b3          	add	a5,a5,s0
800019bc:	00279793          	slli	a5,a5,0x2
800019c0:	01810713          	addi	a4,sp,24
800019c4:	04878793          	addi	a5,a5,72
800019c8:	00e787b3          	add	a5,a5,a4
800019cc:	ffa7d603          	lhu	a2,-6(a5)
800019d0:	00040593          	mv	a1,s0
800019d4:	00002517          	auipc	a0,0x2
800019d8:	a4450513          	addi	a0,a0,-1468 # 80003418 <_etext+0x328>
800019dc:	020010ef          	jal	800029fc <printf>
800019e0:	00140413          	addi	s0,s0,1
800019e4:	0004a783          	lw	a5,0(s1)
800019e8:	01041413          	slli	s0,s0,0x10
800019ec:	01045413          	srli	s0,s0,0x10
800019f0:	fcf462e3          	bltu	s0,a5,800019b4 <main+0x5f4>
800019f4:	0004a783          	lw	a5,0(s1)
800019f8:	00000413          	li	s0,0
800019fc:	04078263          	beqz	a5,80001a40 <main+0x680>
80001a00:	00441793          	slli	a5,s0,0x4
80001a04:	008787b3          	add	a5,a5,s0
80001a08:	00279793          	slli	a5,a5,0x2
80001a0c:	01810713          	addi	a4,sp,24
80001a10:	04878793          	addi	a5,a5,72
80001a14:	00e787b3          	add	a5,a5,a4
80001a18:	ff47d603          	lhu	a2,-12(a5)
80001a1c:	00040593          	mv	a1,s0
80001a20:	00002517          	auipc	a0,0x2
80001a24:	a1450513          	addi	a0,a0,-1516 # 80003434 <_etext+0x344>
80001a28:	7d5000ef          	jal	800029fc <printf>
80001a2c:	00140413          	addi	s0,s0,1
80001a30:	0004a783          	lw	a5,0(s1)
80001a34:	01041413          	slli	s0,s0,0x10
80001a38:	01045413          	srli	s0,s0,0x10
80001a3c:	fcf462e3          	bltu	s0,a5,80001a00 <main+0x640>
80001a40:	00412583          	lw	a1,4(sp)
80001a44:	00002517          	auipc	a0,0x2
80001a48:	9c050513          	addi	a0,a0,-1600 # 80003404 <_etext+0x314>
80001a4c:	7b1000ef          	jal	800029fc <printf>
80001a50:	00012783          	lw	a5,0(sp)
80001a54:	08078863          	beqz	a5,80001ae4 <main+0x724>
80001a58:	00012783          	lw	a5,0(sp)
80001a5c:	06f04c63          	bgtz	a5,80001ad4 <main+0x714>
80001a60:	00002517          	auipc	a0,0x2
80001a64:	a7c50513          	addi	a0,a0,-1412 # 800034dc <_etext+0x3ec>
80001a68:	795000ef          	jal	800029fc <printf>
80001a6c:	05e10513          	addi	a0,sp,94
80001a70:	1c8000ef          	jal	80001c38 <portable_fini>
80001a74:	06812083          	lw	ra,104(sp)
80001a78:	06412403          	lw	s0,100(sp)
80001a7c:	00012503          	lw	a0,0(sp)
80001a80:	06012483          	lw	s1,96(sp)
80001a84:	06c10113          	addi	sp,sp,108
80001a88:	00008067          	ret
80001a8c:	00002517          	auipc	a0,0x2
80001a90:	88850513          	addi	a0,a0,-1912 # 80003314 <_etext+0x224>
80001a94:	00612623          	sw	t1,12(sp)
80001a98:	00f12423          	sw	a5,8(sp)
80001a9c:	00b12023          	sw	a1,0(sp)
80001aa0:	75d000ef          	jal	800029fc <printf>
80001aa4:	ffc45703          	lhu	a4,-4(s0)
80001aa8:	00c12303          	lw	t1,12(sp)
80001aac:	00812783          	lw	a5,8(sp)
80001ab0:	00170713          	addi	a4,a4,1
80001ab4:	01071713          	slli	a4,a4,0x10
80001ab8:	01075713          	srli	a4,a4,0x10
80001abc:	00012583          	lw	a1,0(sp)
80001ac0:	fee41e23          	sh	a4,-4(s0)
80001ac4:	c39ff06f          	j	800016fc <main+0x33c>
80001ac8:	01412403          	lw	s0,20(sp)
80001acc:	00030493          	mv	s1,t1
80001ad0:	d99ff06f          	j	80001868 <main+0x4a8>
80001ad4:	00002517          	auipc	a0,0x2
80001ad8:	a6c50513          	addi	a0,a0,-1428 # 80003540 <_etext+0x450>
80001adc:	721000ef          	jal	800029fc <printf>
80001ae0:	f8dff06f          	j	80001a6c <main+0x6ac>
80001ae4:	00002517          	auipc	a0,0x2
80001ae8:	96c50513          	addi	a0,a0,-1684 # 80003450 <_etext+0x360>
80001aec:	711000ef          	jal	800029fc <printf>
80001af0:	00412503          	lw	a0,4(sp)
80001af4:	134000ef          	jal	80001c28 <time_in_secs>
80001af8:	00050593          	mv	a1,a0
80001afc:	002c9537          	lui	a0,0x2c9
80001b00:	3b850513          	addi	a0,a0,952 # 2c93b8 <_entry_offset+0x2c93b8>
80001b04:	29d000ef          	jal	800025a0 <__hidden___udivsi3>
80001b08:	00050593          	mv	a1,a0
80001b0c:	00002517          	auipc	a0,0x2
80001b10:	97850513          	addi	a0,a0,-1672 # 80003484 <_etext+0x394>
80001b14:	6e9000ef          	jal	800029fc <printf>
80001b18:	00002517          	auipc	a0,0x2
80001b1c:	98c50513          	addi	a0,a0,-1652 # 800034a4 <_etext+0x3b4>
80001b20:	6dd000ef          	jal	800029fc <printf>
80001b24:	f49ff06f          	j	80001a6c <main+0x6ac>
80001b28:	00001517          	auipc	a0,0x1
80001b2c:	75c50513          	addi	a0,a0,1884 # 80003284 <_etext+0x194>
80001b30:	6cd000ef          	jal	800029fc <printf>
80001b34:	00400293          	li	t0,4
80001b38:	b8dff06f          	j	800016c4 <main+0x304>
80001b3c:	00001517          	auipc	a0,0x1
80001b40:	68850513          	addi	a0,a0,1672 # 800031c4 <_etext+0xd4>
80001b44:	6b9000ef          	jal	800029fc <printf>
80001b48:	00000293          	li	t0,0
80001b4c:	b79ff06f          	j	800016c4 <main+0x304>
80001b50:	00001517          	auipc	a0,0x1
80001b54:	6a450513          	addi	a0,a0,1700 # 800031f4 <_etext+0x104>
80001b58:	6a5000ef          	jal	800029fc <printf>
80001b5c:	00100293          	li	t0,1
80001b60:	b65ff06f          	j	800016c4 <main+0x304>
80001b64:	00000693          	li	a3,0
80001b68:	d01ff06f          	j	80001868 <main+0x4a8>
80001b6c:	0047f793          	andi	a5,a5,4
80001b70:	e80782e3          	beqz	a5,800019f4 <main+0x634>
80001b74:	ecdff06f          	j	80001a40 <main+0x680>

80001b78 <start_time>:
80001b78:	fe810113          	addi	sp,sp,-24
80001b7c:	00812823          	sw	s0,16(sp)
80001b80:	00710413          	addi	s0,sp,7
80001b84:	ff847413          	andi	s0,s0,-8
80001b88:	00040593          	mv	a1,s0
80001b8c:	00600513          	li	a0,6
80001b90:	00112a23          	sw	ra,20(sp)
80001b94:	199000ef          	jal	8000252c <ioe_read>
80001b98:	00042503          	lw	a0,0(s0)
80001b9c:	00442583          	lw	a1,4(s0)
80001ba0:	3e800613          	li	a2,1000
80001ba4:	00000693          	li	a3,0
80001ba8:	438010ef          	jal	80002fe0 <__udivdi3>
80001bac:	01412083          	lw	ra,20(sp)
80001bb0:	01012403          	lw	s0,16(sp)
80001bb4:	00002797          	auipc	a5,0x2
80001bb8:	46a7ae23          	sw	a0,1148(a5) # 80004030 <start_time_val>
80001bbc:	01810113          	addi	sp,sp,24
80001bc0:	00008067          	ret

80001bc4 <stop_time>:
80001bc4:	fe810113          	addi	sp,sp,-24
80001bc8:	00812823          	sw	s0,16(sp)
80001bcc:	00710413          	addi	s0,sp,7
80001bd0:	ff847413          	andi	s0,s0,-8
80001bd4:	00040593          	mv	a1,s0
80001bd8:	00600513          	li	a0,6
80001bdc:	00112a23          	sw	ra,20(sp)
80001be0:	14d000ef          	jal	8000252c <ioe_read>
80001be4:	00042503          	lw	a0,0(s0)
80001be8:	00442583          	lw	a1,4(s0)
80001bec:	3e800613          	li	a2,1000
80001bf0:	00000693          	li	a3,0
80001bf4:	3ec010ef          	jal	80002fe0 <__udivdi3>
80001bf8:	01412083          	lw	ra,20(sp)
80001bfc:	01012403          	lw	s0,16(sp)
80001c00:	00002797          	auipc	a5,0x2
80001c04:	42a7a623          	sw	a0,1068(a5) # 8000402c <stop_time_val>
80001c08:	01810113          	addi	sp,sp,24
80001c0c:	00008067          	ret

80001c10 <get_time>:
80001c10:	00002517          	auipc	a0,0x2
80001c14:	41c52503          	lw	a0,1052(a0) # 8000402c <stop_time_val>
80001c18:	00002797          	auipc	a5,0x2
80001c1c:	4187a783          	lw	a5,1048(a5) # 80004030 <start_time_val>
80001c20:	40f50533          	sub	a0,a0,a5
80001c24:	00008067          	ret

80001c28 <time_in_secs>:
80001c28:	00008067          	ret

80001c2c <portable_init>:
80001c2c:	00100793          	li	a5,1
80001c30:	00f50023          	sb	a5,0(a0)
80001c34:	00008067          	ret

80001c38 <portable_fini>:
80001c38:	00050023          	sb	zero,0(a0)
80001c3c:	00008067          	ret

80001c40 <cmp_idx>:
80001c40:	00060a63          	beqz	a2,80001c54 <cmp_idx+0x14>
80001c44:	00251503          	lh	a0,2(a0)
80001c48:	00259783          	lh	a5,2(a1)
80001c4c:	40f50533          	sub	a0,a0,a5
80001c50:	00008067          	ret
80001c54:	00051783          	lh	a5,0(a0)
80001c58:	01079713          	slli	a4,a5,0x10
80001c5c:	01075713          	srli	a4,a4,0x10
80001c60:	00875713          	srli	a4,a4,0x8
80001c64:	f007f793          	andi	a5,a5,-256
80001c68:	00e7e7b3          	or	a5,a5,a4
80001c6c:	00f51023          	sh	a5,0(a0)
80001c70:	00059783          	lh	a5,0(a1)
80001c74:	00251503          	lh	a0,2(a0)
80001c78:	01079713          	slli	a4,a5,0x10
80001c7c:	01075713          	srli	a4,a4,0x10
80001c80:	00875713          	srli	a4,a4,0x8
80001c84:	f007f793          	andi	a5,a5,-256
80001c88:	00e7e7b3          	or	a5,a5,a4
80001c8c:	00f59023          	sh	a5,0(a1)
80001c90:	00259783          	lh	a5,2(a1)
80001c94:	40f50533          	sub	a0,a0,a5
80001c98:	00008067          	ret

80001c9c <calc_func>:
80001c9c:	fec10113          	addi	sp,sp,-20
80001ca0:	00812623          	sw	s0,12(sp)
80001ca4:	00051403          	lh	s0,0(a0)
80001ca8:	00112823          	sw	ra,16(sp)
80001cac:	40745793          	srai	a5,s0,0x7
80001cb0:	0017f793          	andi	a5,a5,1
80001cb4:	00078c63          	beqz	a5,80001ccc <calc_func+0x30>
80001cb8:	01012083          	lw	ra,16(sp)
80001cbc:	07f47513          	andi	a0,s0,127
80001cc0:	00c12403          	lw	s0,12(sp)
80001cc4:	01410113          	addi	sp,sp,20
80001cc8:	00008067          	ret
80001ccc:	40345713          	srai	a4,s0,0x3
80001cd0:	00f77713          	andi	a4,a4,15
80001cd4:	00471693          	slli	a3,a4,0x4
80001cd8:	0385d783          	lhu	a5,56(a1)
80001cdc:	00912423          	sw	s1,8(sp)
80001ce0:	00058313          	mv	t1,a1
80001ce4:	00747613          	andi	a2,s0,7
80001ce8:	00d705b3          	add	a1,a4,a3
80001cec:	00050493          	mv	s1,a0
80001cf0:	00058713          	mv	a4,a1
80001cf4:	08060863          	beqz	a2,80001d84 <calc_func+0xe8>
80001cf8:	00100693          	li	a3,1
80001cfc:	06d61c63          	bne	a2,a3,80001d74 <calc_func+0xd8>
80001d00:	00078613          	mv	a2,a5
80001d04:	02830513          	addi	a0,t1,40
80001d08:	00612023          	sw	t1,0(sp)
80001d0c:	b44ff0ef          	jal	80001050 <core_bench_matrix>
80001d10:	00012303          	lw	t1,0(sp)
80001d14:	01051713          	slli	a4,a0,0x10
80001d18:	41075713          	srai	a4,a4,0x10
80001d1c:	03c35783          	lhu	a5,60(t1)
80001d20:	00e12223          	sw	a4,4(sp)
80001d24:	0a079463          	bnez	a5,80001dcc <calc_func+0x130>
80001d28:	03835783          	lhu	a5,56(t1)
80001d2c:	02a31e23          	sh	a0,60(t1)
80001d30:	00078593          	mv	a1,a5
80001d34:	00612023          	sw	t1,0(sp)
80001d38:	bbcff0ef          	jal	800010f4 <crcu16>
80001d3c:	00412703          	lw	a4,4(sp)
80001d40:	00012303          	lw	t1,0(sp)
80001d44:	00050793          	mv	a5,a0
80001d48:	f0047413          	andi	s0,s0,-256
80001d4c:	07f77513          	andi	a0,a4,127
80001d50:	00856433          	or	s0,a0,s0
80001d54:	02f31c23          	sh	a5,56(t1)
80001d58:	08046413          	ori	s0,s0,128
80001d5c:	00849023          	sh	s0,0(s1)
80001d60:	01012083          	lw	ra,16(sp)
80001d64:	00c12403          	lw	s0,12(sp)
80001d68:	00812483          	lw	s1,8(sp)
80001d6c:	01410113          	addi	sp,sp,20
80001d70:	00008067          	ret
80001d74:	01041513          	slli	a0,s0,0x10
80001d78:	01055513          	srli	a0,a0,0x10
80001d7c:	00812223          	sw	s0,4(sp)
80001d80:	fb1ff06f          	j	80001d30 <calc_func+0x94>
80001d84:	02100693          	li	a3,33
80001d88:	00b6e463          	bltu	a3,a1,80001d90 <calc_func+0xf4>
80001d8c:	02200713          	li	a4,34
80001d90:	00231683          	lh	a3,2(t1)
80001d94:	00031603          	lh	a2,0(t1)
80001d98:	01432583          	lw	a1,20(t1)
80001d9c:	01832503          	lw	a0,24(t1)
80001da0:	00612023          	sw	t1,0(sp)
80001da4:	ebcfe0ef          	jal	80000460 <core_bench_state>
80001da8:	00012303          	lw	t1,0(sp)
80001dac:	01051713          	slli	a4,a0,0x10
80001db0:	41075713          	srai	a4,a4,0x10
80001db4:	03e35783          	lhu	a5,62(t1)
80001db8:	00e12223          	sw	a4,4(sp)
80001dbc:	00079863          	bnez	a5,80001dcc <calc_func+0x130>
80001dc0:	03835783          	lhu	a5,56(t1)
80001dc4:	02a31f23          	sh	a0,62(t1)
80001dc8:	f69ff06f          	j	80001d30 <calc_func+0x94>
80001dcc:	03835783          	lhu	a5,56(t1)
80001dd0:	f61ff06f          	j	80001d30 <calc_func+0x94>

80001dd4 <cmp_complex>:
80001dd4:	ff410113          	addi	sp,sp,-12
80001dd8:	00912023          	sw	s1,0(sp)
80001ddc:	00058493          	mv	s1,a1
80001de0:	00060593          	mv	a1,a2
80001de4:	00112423          	sw	ra,8(sp)
80001de8:	00812223          	sw	s0,4(sp)
80001dec:	00060413          	mv	s0,a2
80001df0:	eadff0ef          	jal	80001c9c <calc_func>
80001df4:	00050793          	mv	a5,a0
80001df8:	00040593          	mv	a1,s0
80001dfc:	00048513          	mv	a0,s1
80001e00:	00078413          	mv	s0,a5
80001e04:	e99ff0ef          	jal	80001c9c <calc_func>
80001e08:	00812083          	lw	ra,8(sp)
80001e0c:	40a40533          	sub	a0,s0,a0
80001e10:	00412403          	lw	s0,4(sp)
80001e14:	00012483          	lw	s1,0(sp)
80001e18:	00c10113          	addi	sp,sp,12
80001e1c:	00008067          	ret

80001e20 <core_list_mergesort>:
80001e20:	fd410113          	addi	sp,sp,-44
80001e24:	02912023          	sw	s1,32(sp)
80001e28:	00c12a23          	sw	a2,20(sp)
80001e2c:	02112423          	sw	ra,40(sp)
80001e30:	02812223          	sw	s0,36(sp)
80001e34:	00050493          	mv	s1,a0
80001e38:	00b12823          	sw	a1,16(sp)
80001e3c:	00100613          	li	a2,1
80001e40:	10048a63          	beqz	s1,80001f54 <core_list_mergesort+0x134>
80001e44:	00000593          	li	a1,0
80001e48:	00000413          	li	s0,0
80001e4c:	00012623          	sw	zero,12(sp)
80001e50:	00158593          	addi	a1,a1,1
80001e54:	00048713          	mv	a4,s1
80001e58:	00000793          	li	a5,0
80001e5c:	00c7d863          	bge	a5,a2,80001e6c <core_list_mergesort+0x4c>
80001e60:	00072703          	lw	a4,0(a4)
80001e64:	00178793          	addi	a5,a5,1
80001e68:	fe071ae3          	bnez	a4,80001e5c <core_list_mergesort+0x3c>
80001e6c:	00048313          	mv	t1,s1
80001e70:	00c12c23          	sw	a2,24(sp)
80001e74:	00b12e23          	sw	a1,28(sp)
80001e78:	00040493          	mv	s1,s0
80001e7c:	00060393          	mv	t2,a2
80001e80:	00070293          	mv	t0,a4
80001e84:	00030413          	mv	s0,t1
80001e88:	02f05263          	blez	a5,80001eac <core_list_mergesort+0x8c>
80001e8c:	04039463          	bnez	t2,80001ed4 <core_list_mergesort+0xb4>
80001e90:	00040713          	mv	a4,s0
80001e94:	00042403          	lw	s0,0(s0)
80001e98:	fff78793          	addi	a5,a5,-1
80001e9c:	02048663          	beqz	s1,80001ec8 <core_list_mergesort+0xa8>
80001ea0:	00e4a023          	sw	a4,0(s1)
80001ea4:	00070493          	mv	s1,a4
80001ea8:	fef042e3          	bgtz	a5,80001e8c <core_list_mergesort+0x6c>
80001eac:	06705663          	blez	t2,80001f18 <core_list_mergesort+0xf8>
80001eb0:	08028063          	beqz	t0,80001f30 <core_list_mergesort+0x110>
80001eb4:	02079263          	bnez	a5,80001ed8 <core_list_mergesort+0xb8>
80001eb8:	00028713          	mv	a4,t0
80001ebc:	fff38393          	addi	t2,t2,-1
80001ec0:	0002a283          	lw	t0,0(t0)
80001ec4:	fc049ee3          	bnez	s1,80001ea0 <core_list_mergesort+0x80>
80001ec8:	00e12623          	sw	a4,12(sp)
80001ecc:	00070493          	mv	s1,a4
80001ed0:	fd9ff06f          	j	80001ea8 <core_list_mergesort+0x88>
80001ed4:	fa028ee3          	beqz	t0,80001e90 <core_list_mergesort+0x70>
80001ed8:	0042a583          	lw	a1,4(t0)
80001edc:	00f12223          	sw	a5,4(sp)
80001ee0:	00442503          	lw	a0,4(s0)
80001ee4:	01012783          	lw	a5,16(sp)
80001ee8:	01412603          	lw	a2,20(sp)
80001eec:	00712423          	sw	t2,8(sp)
80001ef0:	00512023          	sw	t0,0(sp)
80001ef4:	000780e7          	jalr	a5
80001ef8:	00012283          	lw	t0,0(sp)
80001efc:	00412783          	lw	a5,4(sp)
80001f00:	00812383          	lw	t2,8(sp)
80001f04:	f8a056e3          	blez	a0,80001e90 <core_list_mergesort+0x70>
80001f08:	00028713          	mv	a4,t0
80001f0c:	fff38393          	addi	t2,t2,-1
80001f10:	0002a283          	lw	t0,0(t0)
80001f14:	f89ff06f          	j	80001e9c <core_list_mergesort+0x7c>
80001f18:	00048413          	mv	s0,s1
80001f1c:	01812603          	lw	a2,24(sp)
80001f20:	01c12583          	lw	a1,28(sp)
80001f24:	00028493          	mv	s1,t0
80001f28:	f20294e3          	bnez	t0,80001e50 <core_list_mergesort+0x30>
80001f2c:	0100006f          	j	80001f3c <core_list_mergesort+0x11c>
80001f30:	01812603          	lw	a2,24(sp)
80001f34:	01c12583          	lw	a1,28(sp)
80001f38:	00048413          	mv	s0,s1
80001f3c:	00042023          	sw	zero,0(s0)
80001f40:	00100793          	li	a5,1
80001f44:	00f58c63          	beq	a1,a5,80001f5c <core_list_mergesort+0x13c>
80001f48:	00c12483          	lw	s1,12(sp)
80001f4c:	00161613          	slli	a2,a2,0x1
80001f50:	ee049ae3          	bnez	s1,80001e44 <core_list_mergesort+0x24>
80001f54:	00002023          	sw	zero,0(zero) # 0 <_entry_offset>
80001f58:	00100073          	ebreak
80001f5c:	02812083          	lw	ra,40(sp)
80001f60:	02412403          	lw	s0,36(sp)
80001f64:	00c12503          	lw	a0,12(sp)
80001f68:	02012483          	lw	s1,32(sp)
80001f6c:	02c10113          	addi	sp,sp,44
80001f70:	00008067          	ret

80001f74 <core_bench_list>:
80001f74:	00050613          	mv	a2,a0
80001f78:	00451503          	lh	a0,4(a0)
80001f7c:	fec10113          	addi	sp,sp,-20
80001f80:	00812623          	sw	s0,12(sp)
80001f84:	00912423          	sw	s1,8(sp)
80001f88:	00112823          	sw	ra,16(sp)
80001f8c:	02462403          	lw	s0,36(a2)
80001f90:	00058793          	mv	a5,a1
80001f94:	00058493          	mv	s1,a1
80001f98:	26a05c63          	blez	a0,80002210 <core_bench_list+0x29c>
80001f9c:	00000313          	li	t1,0
80001fa0:	00000093          	li	ra,0
80001fa4:	00000393          	li	t2,0
80001fa8:	00000593          	li	a1,0
80001fac:	00c12023          	sw	a2,0(sp)
80001fb0:	0ff37293          	zext.b	t0,t1
80001fb4:	2004c063          	bltz	s1,800021b4 <core_bench_list+0x240>
80001fb8:	26040263          	beqz	s0,8000221c <core_bench_list+0x2a8>
80001fbc:	00040713          	mv	a4,s0
80001fc0:	00c0006f          	j	80001fcc <core_bench_list+0x58>
80001fc4:	00072703          	lw	a4,0(a4)
80001fc8:	00070863          	beqz	a4,80001fd8 <core_bench_list+0x64>
80001fcc:	00472683          	lw	a3,4(a4)
80001fd0:	00269683          	lh	a3,2(a3)
80001fd4:	fe9698e3          	bne	a3,s1,80001fc4 <core_bench_list+0x50>
80001fd8:	00000613          	li	a2,0
80001fdc:	0080006f          	j	80001fe4 <core_bench_list+0x70>
80001fe0:	00068413          	mv	s0,a3
80001fe4:	00042683          	lw	a3,0(s0)
80001fe8:	00c42023          	sw	a2,0(s0)
80001fec:	00040613          	mv	a2,s0
80001ff0:	fe0698e3          	bnez	a3,80001fe0 <core_bench_list+0x6c>
80001ff4:	1e070263          	beqz	a4,800021d8 <core_bench_list+0x264>
80001ff8:	00472683          	lw	a3,4(a4)
80001ffc:	00069683          	lh	a3,0(a3)
80002000:	0016f613          	andi	a2,a3,1
80002004:	00060c63          	beqz	a2,8000201c <core_bench_list+0xa8>
80002008:	4096d693          	srai	a3,a3,0x9
8000200c:	0016f693          	andi	a3,a3,1
80002010:	00d586b3          	add	a3,a1,a3
80002014:	01069593          	slli	a1,a3,0x10
80002018:	0105d593          	srli	a1,a1,0x10
8000201c:	00072683          	lw	a3,0(a4)
80002020:	00068c63          	beqz	a3,80002038 <core_bench_list+0xc4>
80002024:	0006a603          	lw	a2,0(a3)
80002028:	00c72023          	sw	a2,0(a4)
8000202c:	00042703          	lw	a4,0(s0)
80002030:	00e6a023          	sw	a4,0(a3)
80002034:	00d42023          	sw	a3,0(s0)
80002038:	00138393          	addi	t2,t2,1
8000203c:	01039393          	slli	t2,t2,0x10
80002040:	0103d393          	srli	t2,t2,0x10
80002044:	0004c863          	bltz	s1,80002054 <core_bench_list+0xe0>
80002048:	00148493          	addi	s1,s1,1
8000204c:	01049493          	slli	s1,s1,0x10
80002050:	4104d493          	srai	s1,s1,0x10
80002054:	00130313          	addi	t1,t1,1
80002058:	01031313          	slli	t1,t1,0x10
8000205c:	41035313          	srai	t1,t1,0x10
80002060:	f46518e3          	bne	a0,t1,80001fb0 <core_bench_list+0x3c>
80002064:	00239713          	slli	a4,t2,0x2
80002068:	40170733          	sub	a4,a4,ra
8000206c:	00e58733          	add	a4,a1,a4
80002070:	00012603          	lw	a2,0(sp)
80002074:	01071713          	slli	a4,a4,0x10
80002078:	01075713          	srli	a4,a4,0x10
8000207c:	02f05463          	blez	a5,800020a4 <core_bench_list+0x130>
80002080:	00040513          	mv	a0,s0
80002084:	00000597          	auipc	a1,0x0
80002088:	d5058593          	addi	a1,a1,-688 # 80001dd4 <cmp_complex>
8000208c:	00e12223          	sw	a4,4(sp)
80002090:	00512023          	sw	t0,0(sp)
80002094:	d8dff0ef          	jal	80001e20 <core_list_mergesort>
80002098:	00412703          	lw	a4,4(sp)
8000209c:	00012283          	lw	t0,0(sp)
800020a0:	00050413          	mv	s0,a0
800020a4:	00042683          	lw	a3,0(s0)
800020a8:	00040793          	mv	a5,s0
800020ac:	0006a583          	lw	a1,0(a3)
800020b0:	0046a503          	lw	a0,4(a3)
800020b4:	0045a303          	lw	t1,4(a1)
800020b8:	0005a603          	lw	a2,0(a1)
800020bc:	0066a223          	sw	t1,4(a3)
800020c0:	00a5a223          	sw	a0,4(a1)
800020c4:	00c6a023          	sw	a2,0(a3)
800020c8:	0005a023          	sw	zero,0(a1)
800020cc:	0004d863          	bgez	s1,800020dc <core_bench_list+0x168>
800020d0:	0d40006f          	j	800021a4 <core_bench_list+0x230>
800020d4:	0007a783          	lw	a5,0(a5)
800020d8:	12078663          	beqz	a5,80002204 <core_bench_list+0x290>
800020dc:	0047a683          	lw	a3,4(a5)
800020e0:	00269683          	lh	a3,2(a3)
800020e4:	fe9698e3          	bne	a3,s1,800020d4 <core_bench_list+0x160>
800020e8:	00040493          	mv	s1,s0
800020ec:	00b12023          	sw	a1,0(sp)
800020f0:	00078413          	mv	s0,a5
800020f4:	00070593          	mv	a1,a4
800020f8:	0044a783          	lw	a5,4(s1)
800020fc:	00079503          	lh	a0,0(a5)
80002100:	99cff0ef          	jal	8000129c <crc16>
80002104:	00042403          	lw	s0,0(s0)
80002108:	00050593          	mv	a1,a0
8000210c:	fe0416e3          	bnez	s0,800020f8 <core_bench_list+0x184>
80002110:	00012583          	lw	a1,0(sp)
80002114:	00050713          	mv	a4,a0
80002118:	0004a783          	lw	a5,0(s1)
8000211c:	0045a503          	lw	a0,4(a1)
80002120:	00048413          	mv	s0,s1
80002124:	0047a303          	lw	t1,4(a5)
80002128:	0007a683          	lw	a3,0(a5)
8000212c:	00000613          	li	a2,0
80002130:	0065a223          	sw	t1,4(a1)
80002134:	00a7a223          	sw	a0,4(a5)
80002138:	00d5a023          	sw	a3,0(a1)
8000213c:	00b7a023          	sw	a1,0(a5)
80002140:	00040513          	mv	a0,s0
80002144:	00000597          	auipc	a1,0x0
80002148:	afc58593          	addi	a1,a1,-1284 # 80001c40 <cmp_idx>
8000214c:	00e12023          	sw	a4,0(sp)
80002150:	cd1ff0ef          	jal	80001e20 <core_list_mergesort>
80002154:	00052403          	lw	s0,0(a0)
80002158:	00012703          	lw	a4,0(sp)
8000215c:	00050493          	mv	s1,a0
80002160:	02040263          	beqz	s0,80002184 <core_bench_list+0x210>
80002164:	00070593          	mv	a1,a4
80002168:	0044a783          	lw	a5,4(s1)
8000216c:	00079503          	lh	a0,0(a5)
80002170:	92cff0ef          	jal	8000129c <crc16>
80002174:	00042403          	lw	s0,0(s0)
80002178:	00050593          	mv	a1,a0
8000217c:	fe0416e3          	bnez	s0,80002168 <core_bench_list+0x1f4>
80002180:	00050713          	mv	a4,a0
80002184:	01012083          	lw	ra,16(sp)
80002188:	00c12403          	lw	s0,12(sp)
8000218c:	00812483          	lw	s1,8(sp)
80002190:	00070513          	mv	a0,a4
80002194:	01410113          	addi	sp,sp,20
80002198:	00008067          	ret
8000219c:	0007a783          	lw	a5,0(a5)
800021a0:	06078263          	beqz	a5,80002204 <core_bench_list+0x290>
800021a4:	0047a683          	lw	a3,4(a5)
800021a8:	0006c683          	lbu	a3,0(a3)
800021ac:	fed298e3          	bne	t0,a3,8000219c <core_bench_list+0x228>
800021b0:	f39ff06f          	j	800020e8 <core_bench_list+0x174>
800021b4:	06040463          	beqz	s0,8000221c <core_bench_list+0x2a8>
800021b8:	00040713          	mv	a4,s0
800021bc:	00c0006f          	j	800021c8 <core_bench_list+0x254>
800021c0:	00072703          	lw	a4,0(a4)
800021c4:	e0070ae3          	beqz	a4,80001fd8 <core_bench_list+0x64>
800021c8:	00472683          	lw	a3,4(a4)
800021cc:	0006c683          	lbu	a3,0(a3)
800021d0:	fed298e3          	bne	t0,a3,800021c0 <core_bench_list+0x24c>
800021d4:	e05ff06f          	j	80001fd8 <core_bench_list+0x64>
800021d8:	00042703          	lw	a4,0(s0)
800021dc:	00108093          	addi	ra,ra,1
800021e0:	01009093          	slli	ra,ra,0x10
800021e4:	00472703          	lw	a4,4(a4)
800021e8:	0100d093          	srli	ra,ra,0x10
800021ec:	00170703          	lb	a4,1(a4)
800021f0:	00177713          	andi	a4,a4,1
800021f4:	00e58733          	add	a4,a1,a4
800021f8:	01071593          	slli	a1,a4,0x10
800021fc:	0105d593          	srli	a1,a1,0x10
80002200:	e45ff06f          	j	80002044 <core_bench_list+0xd0>
80002204:	00042783          	lw	a5,0(s0)
80002208:	ee0790e3          	bnez	a5,800020e8 <core_bench_list+0x174>
8000220c:	f19ff06f          	j	80002124 <core_bench_list+0x1b0>
80002210:	00000713          	li	a4,0
80002214:	00000293          	li	t0,0
80002218:	e65ff06f          	j	8000207c <core_bench_list+0x108>
8000221c:	00002783          	lw	a5,0(zero) # 0 <_entry_offset>
80002220:	00100073          	ebreak

80002224 <core_list_init>:
80002224:	fe410113          	addi	sp,sp,-28
80002228:	00912823          	sw	s1,16(sp)
8000222c:	00058493          	mv	s1,a1
80002230:	01400593          	li	a1,20
80002234:	00812a23          	sw	s0,20(sp)
80002238:	00112c23          	sw	ra,24(sp)
8000223c:	00c12023          	sw	a2,0(sp)
80002240:	360000ef          	jal	800025a0 <__hidden___udivsi3>
80002244:	ffe50513          	addi	a0,a0,-2
80002248:	00351593          	slli	a1,a0,0x3
8000224c:	00b485b3          	add	a1,s1,a1
80002250:	ffff87b7          	lui	a5,0xffff8
80002254:	00251693          	slli	a3,a0,0x2
80002258:	0004a023          	sw	zero,0(s1)
8000225c:	00b4a223          	sw	a1,4(s1)
80002260:	08078793          	addi	a5,a5,128 # ffff8080 <_end+0x7ffeb080>
80002264:	00d586b3          	add	a3,a1,a3
80002268:	00f59023          	sh	a5,0(a1)
8000226c:	00059123          	sh	zero,2(a1)
80002270:	01048713          	addi	a4,s1,16
80002274:	00d12223          	sw	a3,4(sp)
80002278:	00012283          	lw	t0,0(sp)
8000227c:	00848413          	addi	s0,s1,8
80002280:	00458793          	addi	a5,a1,4
80002284:	18b77063          	bgeu	a4,a1,80002404 <core_list_init+0x1e0>
80002288:	00858613          	addi	a2,a1,8
8000228c:	16d67c63          	bgeu	a2,a3,80002404 <core_list_init+0x1e0>
80002290:	00f4a623          	sw	a5,12(s1)
80002294:	ffff87b7          	lui	a5,0xffff8
80002298:	0004a423          	sw	zero,8(s1)
8000229c:	0084a023          	sw	s0,0(s1)
800022a0:	fff00693          	li	a3,-1
800022a4:	fff7c793          	not	a5,a5
800022a8:	00d59223          	sh	a3,4(a1)
800022ac:	00f59323          	sh	a5,6(a1)
800022b0:	08050863          	beqz	a0,80002340 <core_list_init+0x11c>
800022b4:	01029793          	slli	a5,t0,0x10
800022b8:	0107d793          	srli	a5,a5,0x10
800022bc:	00f12023          	sw	a5,0(sp)
800022c0:	ffff87b7          	lui	a5,0xffff8
800022c4:	fff7c793          	not	a5,a5
800022c8:	00000693          	li	a3,0
800022cc:	00f12423          	sw	a5,8(sp)
800022d0:	00512623          	sw	t0,12(sp)
800022d4:	00012783          	lw	a5,0(sp)
800022d8:	01069313          	slli	t1,a3,0x10
800022dc:	01035313          	srli	t1,t1,0x10
800022e0:	0067c7b3          	xor	a5,a5,t1
800022e4:	00379793          	slli	a5,a5,0x3
800022e8:	00737313          	andi	t1,t1,7
800022ec:	0787f793          	andi	a5,a5,120
800022f0:	0067e7b3          	or	a5,a5,t1
800022f4:	00879393          	slli	t2,a5,0x8
800022f8:	00870313          	addi	t1,a4,8
800022fc:	00168693          	addi	a3,a3,1
80002300:	00460293          	addi	t0,a2,4
80002304:	007787b3          	add	a5,a5,t2
80002308:	02b37863          	bgeu	t1,a1,80002338 <core_list_init+0x114>
8000230c:	00412383          	lw	t2,4(sp)
80002310:	0272f463          	bgeu	t0,t2,80002338 <core_list_init+0x114>
80002314:	00872023          	sw	s0,0(a4)
80002318:	00e4a023          	sw	a4,0(s1)
8000231c:	00c72223          	sw	a2,4(a4)
80002320:	00f61023          	sh	a5,0(a2)
80002324:	00812783          	lw	a5,8(sp)
80002328:	00070413          	mv	s0,a4
8000232c:	00030713          	mv	a4,t1
80002330:	00f61123          	sh	a5,2(a2)
80002334:	00028613          	mv	a2,t0
80002338:	f8d51ee3          	bne	a0,a3,800022d4 <core_list_init+0xb0>
8000233c:	00c12283          	lw	t0,12(sp)
80002340:	00042683          	lw	a3,0(s0)
80002344:	08068e63          	beqz	a3,800023e0 <core_list_init+0x1bc>
80002348:	00500593          	li	a1,5
8000234c:	00512223          	sw	t0,4(sp)
80002350:	00d12023          	sw	a3,0(sp)
80002354:	24c000ef          	jal	800025a0 <__hidden___udivsi3>
80002358:	000045b7          	lui	a1,0x4
8000235c:	00012683          	lw	a3,0(sp)
80002360:	00412283          	lw	t0,4(sp)
80002364:	20000713          	li	a4,512
80002368:	00100613          	li	a2,1
8000236c:	fff58593          	addi	a1,a1,-1 # 3fff <_entry_offset+0x3fff>
80002370:	0300006f          	j	800023a0 <core_list_init+0x17c>
80002374:	01061793          	slli	a5,a2,0x10
80002378:	0006a303          	lw	t1,0(a3)
8000237c:	4107d793          	srai	a5,a5,0x10
80002380:	10070713          	addi	a4,a4,256
80002384:	01071713          	slli	a4,a4,0x10
80002388:	00f39123          	sh	a5,2(t2)
8000238c:	00068413          	mv	s0,a3
80002390:	00160613          	addi	a2,a2,1
80002394:	01075713          	srli	a4,a4,0x10
80002398:	04030463          	beqz	t1,800023e0 <core_list_init+0x1bc>
8000239c:	00030693          	mv	a3,t1
800023a0:	70077793          	andi	a5,a4,1792
800023a4:	00c2c333          	xor	t1,t0,a2
800023a8:	0067e7b3          	or	a5,a5,t1
800023ac:	00442383          	lw	t2,4(s0)
800023b0:	00b7f7b3          	and	a5,a5,a1
800023b4:	fca660e3          	bltu	a2,a0,80002374 <core_list_init+0x150>
800023b8:	0006a303          	lw	t1,0(a3)
800023bc:	01079793          	slli	a5,a5,0x10
800023c0:	4107d793          	srai	a5,a5,0x10
800023c4:	10070713          	addi	a4,a4,256
800023c8:	01071713          	slli	a4,a4,0x10
800023cc:	00f39123          	sh	a5,2(t2)
800023d0:	00068413          	mv	s0,a3
800023d4:	00160613          	addi	a2,a2,1
800023d8:	01075713          	srli	a4,a4,0x10
800023dc:	fc0310e3          	bnez	t1,8000239c <core_list_init+0x178>
800023e0:	01412403          	lw	s0,20(sp)
800023e4:	01812083          	lw	ra,24(sp)
800023e8:	00048513          	mv	a0,s1
800023ec:	01012483          	lw	s1,16(sp)
800023f0:	00000613          	li	a2,0
800023f4:	00000597          	auipc	a1,0x0
800023f8:	84c58593          	addi	a1,a1,-1972 # 80001c40 <cmp_idx>
800023fc:	01c10113          	addi	sp,sp,28
80002400:	a21ff06f          	j	80001e20 <core_list_mergesort>
80002404:	00040713          	mv	a4,s0
80002408:	00078613          	mv	a2,a5
8000240c:	00000413          	li	s0,0
80002410:	ea1ff06f          	j	800022b0 <core_list_init+0x8c>

80002414 <putch>:
80002414:	a00007b7          	lui	a5,0xa0000
80002418:	3ea78c23          	sb	a0,1016(a5) # a00003f8 <_end+0x1fff33f8>
8000241c:	00008067          	ret

80002420 <halt>:
80002420:	00050513          	mv	a0,a0
80002424:	00100073          	ebreak
80002428:	0000006f          	j	80002428 <halt+0x8>

8000242c <_trm_init>:
8000242c:	ff410113          	addi	sp,sp,-12
80002430:	00001517          	auipc	a0,0x1
80002434:	21c50513          	addi	a0,a0,540 # 8000364c <mainargs>
80002438:	00112423          	sw	ra,8(sp)
8000243c:	f85fe0ef          	jal	800013c0 <main>
80002440:	00050513          	mv	a0,a0
80002444:	00100073          	ebreak
80002448:	0000006f          	j	80002448 <_trm_init+0x1c>

8000244c <__am_timer_config>:
8000244c:	00100793          	li	a5,1
80002450:	00f50023          	sb	a5,0(a0)
80002454:	00f500a3          	sb	a5,1(a0)
80002458:	00008067          	ret

8000245c <__am_input_config>:
8000245c:	00100793          	li	a5,1
80002460:	00f50023          	sb	a5,0(a0)
80002464:	00008067          	ret

80002468 <__am_uart_config>:
80002468:	00050023          	sb	zero,0(a0)
8000246c:	00008067          	ret

80002470 <fail>:
80002470:	ff410113          	addi	sp,sp,-12
80002474:	00812223          	sw	s0,4(sp)
80002478:	00112423          	sw	ra,8(sp)
8000247c:	00001417          	auipc	s0,0x1
80002480:	0d840413          	addi	s0,s0,216 # 80003554 <_etext+0x464>
80002484:	04100513          	li	a0,65
80002488:	f8dff0ef          	jal	80002414 <putch>
8000248c:	00144503          	lbu	a0,1(s0)
80002490:	00140413          	addi	s0,s0,1
80002494:	fe051ae3          	bnez	a0,80002488 <fail+0x18>
80002498:	00001417          	auipc	s0,0x1
8000249c:	0c840413          	addi	s0,s0,200 # 80003560 <_etext+0x470>
800024a0:	06100513          	li	a0,97
800024a4:	f71ff0ef          	jal	80002414 <putch>
800024a8:	00144503          	lbu	a0,1(s0)
800024ac:	00140413          	addi	s0,s0,1
800024b0:	fe051ae3          	bnez	a0,800024a4 <fail+0x34>
800024b4:	00001417          	auipc	s0,0x1
800024b8:	0c840413          	addi	s0,s0,200 # 8000357c <_etext+0x48c>
800024bc:	02000513          	li	a0,32
800024c0:	f55ff0ef          	jal	80002414 <putch>
800024c4:	00144503          	lbu	a0,1(s0)
800024c8:	00140413          	addi	s0,s0,1
800024cc:	fe051ae3          	bnez	a0,800024c0 <fail+0x50>
800024d0:	00100513          	li	a0,1
800024d4:	f4dff0ef          	jal	80002420 <halt>

800024d8 <ioe_init>:
800024d8:	ff410113          	addi	sp,sp,-12
800024dc:	00112423          	sw	ra,8(sp)
800024e0:	00001797          	auipc	a5,0x1
800024e4:	17c78793          	addi	a5,a5,380 # 8000365c <lut>
800024e8:	00001697          	auipc	a3,0x1
800024ec:	37468693          	addi	a3,a3,884 # 8000385c <static_memblk>
800024f0:	00000617          	auipc	a2,0x0
800024f4:	f8060613          	addi	a2,a2,-128 # 80002470 <fail>
800024f8:	00c0006f          	j	80002504 <ioe_init+0x2c>
800024fc:	00478793          	addi	a5,a5,4
80002500:	00d78c63          	beq	a5,a3,80002518 <ioe_init+0x40>
80002504:	0007a703          	lw	a4,0(a5)
80002508:	fe071ae3          	bnez	a4,800024fc <ioe_init+0x24>
8000250c:	00c7a023          	sw	a2,0(a5)
80002510:	00478793          	addi	a5,a5,4
80002514:	fed798e3          	bne	a5,a3,80002504 <ioe_init+0x2c>
80002518:	030000ef          	jal	80002548 <__am_timer_init>
8000251c:	00812083          	lw	ra,8(sp)
80002520:	00100513          	li	a0,1
80002524:	00c10113          	addi	sp,sp,12
80002528:	00008067          	ret

8000252c <ioe_read>:
8000252c:	00251513          	slli	a0,a0,0x2
80002530:	00001797          	auipc	a5,0x1
80002534:	12c78793          	addi	a5,a5,300 # 8000365c <lut>
80002538:	00a787b3          	add	a5,a5,a0
8000253c:	0007a783          	lw	a5,0(a5)
80002540:	00058513          	mv	a0,a1
80002544:	00078067          	jr	a5

80002548 <__am_timer_init>:
80002548:	00008067          	ret

8000254c <__am_timer_uptime>:
8000254c:	a0000737          	lui	a4,0xa0000
80002550:	a00007b7          	lui	a5,0xa0000
80002554:	04870713          	addi	a4,a4,72 # a0000048 <_end+0x1fff3048>
80002558:	04c7a683          	lw	a3,76(a5) # a000004c <_end+0x1fff304c>
8000255c:	00072703          	lw	a4,0(a4)
80002560:	00d52223          	sw	a3,4(a0)
80002564:	00e52023          	sw	a4,0(a0)
80002568:	00008067          	ret

8000256c <__am_timer_rtc>:
8000256c:	76c00793          	li	a5,1900
80002570:	00052a23          	sw	zero,20(a0)
80002574:	00052823          	sw	zero,16(a0)
80002578:	00052623          	sw	zero,12(a0)
8000257c:	00052423          	sw	zero,8(a0)
80002580:	00052223          	sw	zero,4(a0)
80002584:	00f52023          	sw	a5,0(a0)
80002588:	00008067          	ret

8000258c <__am_input_keybrd>:
8000258c:	00050023          	sb	zero,0(a0)
80002590:	00052223          	sw	zero,4(a0)
80002594:	00008067          	ret

80002598 <__divsi3>:
80002598:	06054063          	bltz	a0,800025f8 <__umodsi3+0x10>
8000259c:	0605c663          	bltz	a1,80002608 <__umodsi3+0x20>

800025a0 <__hidden___udivsi3>:
800025a0:	00058613          	mv	a2,a1
800025a4:	00050593          	mv	a1,a0
800025a8:	fff00513          	li	a0,-1
800025ac:	02060c63          	beqz	a2,800025e4 <__hidden___udivsi3+0x44>
800025b0:	00100693          	li	a3,1
800025b4:	00b67a63          	bgeu	a2,a1,800025c8 <__hidden___udivsi3+0x28>
800025b8:	00c05863          	blez	a2,800025c8 <__hidden___udivsi3+0x28>
800025bc:	00161613          	slli	a2,a2,0x1
800025c0:	00169693          	slli	a3,a3,0x1
800025c4:	feb66ae3          	bltu	a2,a1,800025b8 <__hidden___udivsi3+0x18>
800025c8:	00000513          	li	a0,0
800025cc:	00c5e663          	bltu	a1,a2,800025d8 <__hidden___udivsi3+0x38>
800025d0:	40c585b3          	sub	a1,a1,a2
800025d4:	00d56533          	or	a0,a0,a3
800025d8:	0016d693          	srli	a3,a3,0x1
800025dc:	00165613          	srli	a2,a2,0x1
800025e0:	fe0696e3          	bnez	a3,800025cc <__hidden___udivsi3+0x2c>
800025e4:	00008067          	ret

800025e8 <__umodsi3>:
800025e8:	00008293          	mv	t0,ra
800025ec:	fb5ff0ef          	jal	800025a0 <__hidden___udivsi3>
800025f0:	00058513          	mv	a0,a1
800025f4:	00028067          	jr	t0
800025f8:	40a00533          	neg	a0,a0
800025fc:	00b04863          	bgtz	a1,8000260c <__umodsi3+0x24>
80002600:	40b005b3          	neg	a1,a1
80002604:	f9dff06f          	j	800025a0 <__hidden___udivsi3>
80002608:	40b005b3          	neg	a1,a1
8000260c:	00008293          	mv	t0,ra
80002610:	f91ff0ef          	jal	800025a0 <__hidden___udivsi3>
80002614:	40a00533          	neg	a0,a0
80002618:	00028067          	jr	t0

8000261c <__modsi3>:
8000261c:	00008293          	mv	t0,ra
80002620:	0005ca63          	bltz	a1,80002634 <__modsi3+0x18>
80002624:	00054c63          	bltz	a0,8000263c <__modsi3+0x20>
80002628:	f79ff0ef          	jal	800025a0 <__hidden___udivsi3>
8000262c:	00058513          	mv	a0,a1
80002630:	00028067          	jr	t0
80002634:	40b005b3          	neg	a1,a1
80002638:	fe0558e3          	bgez	a0,80002628 <__modsi3+0xc>
8000263c:	40a00533          	neg	a0,a0
80002640:	f61ff0ef          	jal	800025a0 <__hidden___udivsi3>
80002644:	40b00533          	neg	a0,a1
80002648:	00028067          	jr	t0

8000264c <__mulsi3>:
8000264c:	00050613          	mv	a2,a0
80002650:	00000513          	li	a0,0
80002654:	0015f693          	andi	a3,a1,1
80002658:	00068463          	beqz	a3,80002660 <__mulsi3+0x14>
8000265c:	00c50533          	add	a0,a0,a2
80002660:	0015d593          	srli	a1,a1,0x1
80002664:	00161613          	slli	a2,a2,0x1
80002668:	fe0596e3          	bnez	a1,80002654 <__mulsi3+0x8>
8000266c:	00008067          	ret

80002670 <vsprintf>:
80002670:	f8010113          	addi	sp,sp,-128
80002674:	06112e23          	sw	ra,124(sp)
80002678:	0005c303          	lbu	t1,0(a1)
8000267c:	00c12023          	sw	a2,0(sp)
80002680:	00050393          	mv	t2,a0
80002684:	34030c63          	beqz	t1,800029dc <vsprintf+0x36c>
80002688:	06812c23          	sw	s0,120(sp)
8000268c:	06912a23          	sw	s1,116(sp)
80002690:	00000713          	li	a4,0
80002694:	00000693          	li	a3,0
80002698:	00050613          	mv	a2,a0
8000269c:	00058293          	mv	t0,a1
800026a0:	0200006f          	j	800026c0 <vsprintf+0x50>
800026a4:	00078713          	mv	a4,a5
800026a8:	00660023          	sb	t1,0(a2)
800026ac:	00e287b3          	add	a5,t0,a4
800026b0:	0007c303          	lbu	t1,0(a5)
800026b4:	00168693          	addi	a3,a3,1
800026b8:	00d38633          	add	a2,t2,a3
800026bc:	0e030c63          	beqz	t1,800027b4 <vsprintf+0x144>
800026c0:	02500593          	li	a1,37
800026c4:	00170793          	addi	a5,a4,1
800026c8:	00068493          	mv	s1,a3
800026cc:	fcb31ce3          	bne	t1,a1,800026a4 <vsprintf+0x34>
800026d0:	00f28533          	add	a0,t0,a5
800026d4:	00054303          	lbu	t1,0(a0)
800026d8:	00012623          	sw	zero,12(sp)
800026dc:	03000593          	li	a1,48
800026e0:	00b31c63          	bne	t1,a1,800026f8 <vsprintf+0x88>
800026e4:	00270793          	addi	a5,a4,2
800026e8:	00f28533          	add	a0,t0,a5
800026ec:	00054303          	lbu	t1,0(a0)
800026f0:	00100713          	li	a4,1
800026f4:	00e12623          	sw	a4,12(sp)
800026f8:	fd030713          	addi	a4,t1,-48
800026fc:	00e12223          	sw	a4,4(sp)
80002700:	00900593          	li	a1,9
80002704:	0ff77713          	zext.b	a4,a4
80002708:	00000413          	li	s0,0
8000270c:	04e5e263          	bltu	a1,a4,80002750 <vsprintf+0xe0>
80002710:	00412583          	lw	a1,4(sp)
80002714:	00040713          	mv	a4,s0
80002718:	00d12423          	sw	a3,8(sp)
8000271c:	00178793          	addi	a5,a5,1
80002720:	00f28533          	add	a0,t0,a5
80002724:	00271413          	slli	s0,a4,0x2
80002728:	00054303          	lbu	t1,0(a0)
8000272c:	00e40433          	add	s0,s0,a4
80002730:	00141413          	slli	s0,s0,0x1
80002734:	00858733          	add	a4,a1,s0
80002738:	fd030593          	addi	a1,t1,-48
8000273c:	0ff5f413          	zext.b	s0,a1
80002740:	00900693          	li	a3,9
80002744:	fc86fce3          	bgeu	a3,s0,8000271c <vsprintf+0xac>
80002748:	00812683          	lw	a3,8(sp)
8000274c:	00070413          	mv	s0,a4
80002750:	06c00713          	li	a4,108
80002754:	0ae30463          	beq	t1,a4,800027fc <vsprintf+0x18c>
80002758:	00054703          	lbu	a4,0(a0)
8000275c:	06400593          	li	a1,100
80002760:	0ab70863          	beq	a4,a1,80002810 <vsprintf+0x1a0>
80002764:	07300593          	li	a1,115
80002768:	06b71663          	bne	a4,a1,800027d4 <vsprintf+0x164>
8000276c:	00012703          	lw	a4,0(sp)
80002770:	00072503          	lw	a0,0(a4)
80002774:	00470313          	addi	t1,a4,4
80002778:	02050463          	beqz	a0,800027a0 <vsprintf+0x130>
8000277c:	00054583          	lbu	a1,0(a0)
80002780:	02058063          	beqz	a1,800027a0 <vsprintf+0x130>
80002784:	00168693          	addi	a3,a3,1
80002788:	00d38633          	add	a2,t2,a3
8000278c:	40968733          	sub	a4,a3,s1
80002790:	feb60fa3          	sb	a1,-1(a2)
80002794:	00e50733          	add	a4,a0,a4
80002798:	00074583          	lbu	a1,0(a4)
8000279c:	fe0594e3          	bnez	a1,80002784 <vsprintf+0x114>
800027a0:	00612023          	sw	t1,0(sp)
800027a4:	00178713          	addi	a4,a5,1
800027a8:	00e287b3          	add	a5,t0,a4
800027ac:	0007c303          	lbu	t1,0(a5)
800027b0:	f00318e3          	bnez	t1,800026c0 <vsprintf+0x50>
800027b4:	00060393          	mv	t2,a2
800027b8:	07812403          	lw	s0,120(sp)
800027bc:	07412483          	lw	s1,116(sp)
800027c0:	00038023          	sb	zero,0(t2)
800027c4:	07c12083          	lw	ra,124(sp)
800027c8:	00068513          	mv	a0,a3
800027cc:	08010113          	addi	sp,sp,128
800027d0:	00008067          	ret
800027d4:	02500713          	li	a4,37
800027d8:	00e60023          	sb	a4,0(a2)
800027dc:	00054603          	lbu	a2,0(a0)
800027e0:	00168713          	addi	a4,a3,1
800027e4:	00e38733          	add	a4,t2,a4
800027e8:	00268693          	addi	a3,a3,2
800027ec:	00c70023          	sb	a2,0(a4)
800027f0:	00d38633          	add	a2,t2,a3
800027f4:	00178713          	addi	a4,a5,1
800027f8:	fb1ff06f          	j	800027a8 <vsprintf+0x138>
800027fc:	00178793          	addi	a5,a5,1
80002800:	00f28533          	add	a0,t0,a5
80002804:	00054703          	lbu	a4,0(a0)
80002808:	06400593          	li	a1,100
8000280c:	f4b71ce3          	bne	a4,a1,80002764 <vsprintf+0xf4>
80002810:	00012703          	lw	a4,0(sp)
80002814:	00072483          	lw	s1,0(a4)
80002818:	00470713          	addi	a4,a4,4
8000281c:	00e12023          	sw	a4,0(sp)
80002820:	41f4d713          	srai	a4,s1,0x1f
80002824:	00e4e5b3          	or	a1,s1,a4
80002828:	08059263          	bnez	a1,800028ac <vsprintf+0x23c>
8000282c:	03000713          	li	a4,48
80002830:	02e10a23          	sb	a4,52(sp)
80002834:	fff40413          	addi	s0,s0,-1
80002838:	06805463          	blez	s0,800028a0 <vsprintf+0x230>
8000283c:	00c12703          	lw	a4,12(sp)
80002840:	03410593          	addi	a1,sp,52
80002844:	04070e63          	beqz	a4,800028a0 <vsprintf+0x230>
80002848:	00c12703          	lw	a4,12(sp)
8000284c:	fff40413          	addi	s0,s0,-1
80002850:	00138513          	addi	a0,t2,1
80002854:	00d50533          	add	a0,a0,a3
80002858:	00850533          	add	a0,a0,s0
8000285c:	03000313          	li	t1,48
80002860:	00660023          	sb	t1,0(a2)
80002864:	00160613          	addi	a2,a2,1
80002868:	fec51ce3          	bne	a0,a2,80002860 <vsprintf+0x1f0>
8000286c:	00168693          	addi	a3,a3,1
80002870:	008686b3          	add	a3,a3,s0
80002874:	00d38633          	add	a2,t2,a3
80002878:	00e58533          	add	a0,a1,a4
8000287c:	fff54303          	lbu	t1,-1(a0)
80002880:	fff50513          	addi	a0,a0,-1
80002884:	00160613          	addi	a2,a2,1
80002888:	fe660fa3          	sb	t1,-1(a2)
8000288c:	fea598e3          	bne	a1,a0,8000287c <vsprintf+0x20c>
80002890:	00d706b3          	add	a3,a4,a3
80002894:	00d38633          	add	a2,t2,a3
80002898:	00178713          	addi	a4,a5,1
8000289c:	f0dff06f          	j	800027a8 <vsprintf+0x138>
800028a0:	00100713          	li	a4,1
800028a4:	03410593          	addi	a1,sp,52
800028a8:	fd1ff06f          	j	80002878 <vsprintf+0x208>
800028ac:	00012c23          	sw	zero,24(sp)
800028b0:	00075e63          	bgez	a4,800028cc <vsprintf+0x25c>
800028b4:	009035b3          	snez	a1,s1
800028b8:	40e00733          	neg	a4,a4
800028bc:	40b70733          	sub	a4,a4,a1
800028c0:	00100593          	li	a1,1
800028c4:	409004b3          	neg	s1,s1
800028c8:	00b12c23          	sw	a1,24(sp)
800028cc:	00000313          	li	t1,0
800028d0:	03410593          	addi	a1,sp,52
800028d4:	00812e23          	sw	s0,28(sp)
800028d8:	02f12023          	sw	a5,32(sp)
800028dc:	00048413          	mv	s0,s1
800028e0:	02d12223          	sw	a3,36(sp)
800028e4:	02712423          	sw	t2,40(sp)
800028e8:	02512623          	sw	t0,44(sp)
800028ec:	00030493          	mv	s1,t1
800028f0:	00b12823          	sw	a1,16(sp)
800028f4:	02c12823          	sw	a2,48(sp)
800028f8:	01012783          	lw	a5,16(sp)
800028fc:	00912a23          	sw	s1,20(sp)
80002900:	00148493          	addi	s1,s1,1
80002904:	009783b3          	add	t2,a5,s1
80002908:	00a00613          	li	a2,10
8000290c:	00000693          	li	a3,0
80002910:	00040513          	mv	a0,s0
80002914:	00070593          	mv	a1,a4
80002918:	00e12423          	sw	a4,8(sp)
8000291c:	00712223          	sw	t2,4(sp)
80002920:	634000ef          	jal	80002f54 <__moddi3>
80002924:	00812703          	lw	a4,8(sp)
80002928:	00412383          	lw	t2,4(sp)
8000292c:	03050293          	addi	t0,a0,48
80002930:	00000693          	li	a3,0
80002934:	00040513          	mv	a0,s0
80002938:	00070593          	mv	a1,a4
8000293c:	00a00613          	li	a2,10
80002940:	fe538fa3          	sb	t0,-1(t2)
80002944:	598000ef          	jal	80002edc <__divdi3>
80002948:	00a5e6b3          	or	a3,a1,a0
8000294c:	00058713          	mv	a4,a1
80002950:	00050413          	mv	s0,a0
80002954:	fa0692e3          	bnez	a3,800028f8 <vsprintf+0x288>
80002958:	01812703          	lw	a4,24(sp)
8000295c:	01c12403          	lw	s0,28(sp)
80002960:	02012783          	lw	a5,32(sp)
80002964:	02412683          	lw	a3,36(sp)
80002968:	02812383          	lw	t2,40(sp)
8000296c:	02c12283          	lw	t0,44(sp)
80002970:	01012583          	lw	a1,16(sp)
80002974:	03012603          	lw	a2,48(sp)
80002978:	00048313          	mv	t1,s1
8000297c:	00071e63          	bnez	a4,80002998 <vsprintf+0x328>
80002980:	40940433          	sub	s0,s0,s1
80002984:	00805663          	blez	s0,80002990 <vsprintf+0x320>
80002988:	00c12703          	lw	a4,12(sp)
8000298c:	06071463          	bnez	a4,800029f4 <vsprintf+0x384>
80002990:	00030713          	mv	a4,t1
80002994:	ee5ff06f          	j	80002878 <vsprintf+0x208>
80002998:	01412703          	lw	a4,20(sp)
8000299c:	04048513          	addi	a0,s1,64
800029a0:	03410493          	addi	s1,sp,52
800029a4:	00950533          	add	a0,a0,s1
800029a8:	00270713          	addi	a4,a4,2
800029ac:	02d00493          	li	s1,45
800029b0:	fc950023          	sb	s1,-64(a0)
800029b4:	40e40433          	sub	s0,s0,a4
800029b8:	ec8050e3          	blez	s0,80002878 <vsprintf+0x208>
800029bc:	00c12503          	lw	a0,12(sp)
800029c0:	ea050ce3          	beqz	a0,80002878 <vsprintf+0x208>
800029c4:	02d00713          	li	a4,45
800029c8:	00168693          	addi	a3,a3,1
800029cc:	00e60023          	sb	a4,0(a2)
800029d0:	00030713          	mv	a4,t1
800029d4:	00d38633          	add	a2,t2,a3
800029d8:	e79ff06f          	j	80002850 <vsprintf+0x1e0>
800029dc:	00038023          	sb	zero,0(t2)
800029e0:	07c12083          	lw	ra,124(sp)
800029e4:	00000693          	li	a3,0
800029e8:	00068513          	mv	a0,a3
800029ec:	08010113          	addi	sp,sp,128
800029f0:	00008067          	ret
800029f4:	00912623          	sw	s1,12(sp)
800029f8:	e51ff06f          	j	80002848 <vsprintf+0x1d8>

800029fc <printf>:
800029fc:	fd810113          	addi	sp,sp,-40
80002a00:	fffff2b7          	lui	t0,0xfffff
80002a04:	00112823          	sw	ra,16(sp)
80002a08:	00912423          	sw	s1,8(sp)
80002a0c:	00812623          	sw	s0,12(sp)
80002a10:	00510133          	add	sp,sp,t0
80002a14:	000012b7          	lui	t0,0x1
80002a18:	fffff337          	lui	t1,0xfffff
80002a1c:	00428393          	addi	t2,t0,4 # 1004 <_entry_offset+0x1004>
80002a20:	006383b3          	add	t2,t2,t1
80002a24:	00410313          	addi	t1,sp,4
80002a28:	00410093          	addi	ra,sp,4
80002a2c:	00638333          	add	t1,t2,t1
80002a30:	01028393          	addi	t2,t0,16
80002a34:	00612023          	sw	t1,0(sp)
80002a38:	001383b3          	add	t2,t2,ra
80002a3c:	00b3a023          	sw	a1,0(t2)
80002a40:	01428593          	addi	a1,t0,20
80002a44:	001585b3          	add	a1,a1,ra
80002a48:	01828393          	addi	t2,t0,24
80002a4c:	00c5a023          	sw	a2,0(a1)
80002a50:	001383b3          	add	t2,t2,ra
80002a54:	01428313          	addi	t1,t0,20
80002a58:	00050593          	mv	a1,a0
80002a5c:	00012503          	lw	a0,0(sp)
80002a60:	00d3a023          	sw	a3,0(t2)
80002a64:	00028693          	mv	a3,t0
80002a68:	01c28293          	addi	t0,t0,28
80002a6c:	001282b3          	add	t0,t0,ra
80002a70:	00e2a023          	sw	a4,0(t0)
80002a74:	02068713          	addi	a4,a3,32
80002a78:	00170733          	add	a4,a4,ra
80002a7c:	00f72023          	sw	a5,0(a4)
80002a80:	00012783          	lw	a5,0(sp)
80002a84:	00230333          	add	t1,t1,sp
80002a88:	00030613          	mv	a2,t1
80002a8c:	fe67ae23          	sw	t1,-4(a5)
80002a90:	be1ff0ef          	jal	80002670 <vsprintf>
80002a94:	00012783          	lw	a5,0(sp)
80002a98:	00050493          	mv	s1,a0
80002a9c:	0007c503          	lbu	a0,0(a5)
80002aa0:	00050c63          	beqz	a0,80002ab8 <printf+0xbc>
80002aa4:	00178413          	addi	s0,a5,1
80002aa8:	96dff0ef          	jal	80002414 <putch>
80002aac:	00044503          	lbu	a0,0(s0)
80002ab0:	00140413          	addi	s0,s0,1
80002ab4:	fe051ae3          	bnez	a0,80002aa8 <printf+0xac>
80002ab8:	000012b7          	lui	t0,0x1
80002abc:	00510133          	add	sp,sp,t0
80002ac0:	01012083          	lw	ra,16(sp)
80002ac4:	00048513          	mv	a0,s1
80002ac8:	00c12403          	lw	s0,12(sp)
80002acc:	00812483          	lw	s1,8(sp)
80002ad0:	02810113          	addi	sp,sp,40
80002ad4:	00008067          	ret

80002ad8 <__udivmoddi4>:
80002ad8:	fdc10113          	addi	sp,sp,-36
80002adc:	00812e23          	sw	s0,28(sp)
80002ae0:	02112023          	sw	ra,32(sp)
80002ae4:	00060413          	mv	s0,a2
80002ae8:	00050293          	mv	t0,a0
80002aec:	00070613          	mv	a2,a4
80002af0:	04059663          	bnez	a1,80002b3c <__udivmoddi4+0x64>
80002af4:	20069e63          	bnez	a3,80002d10 <__udivmoddi4+0x238>
80002af8:	00e12023          	sw	a4,0(sp)
80002afc:	02070063          	beqz	a4,80002b1c <__udivmoddi4+0x44>
80002b00:	00040593          	mv	a1,s0
80002b04:	00a12223          	sw	a0,4(sp)
80002b08:	ae1ff0ef          	jal	800025e8 <__umodsi3>
80002b0c:	00012603          	lw	a2,0(sp)
80002b10:	00412283          	lw	t0,4(sp)
80002b14:	00a62023          	sw	a0,0(a2)
80002b18:	00062223          	sw	zero,4(a2)
80002b1c:	00040593          	mv	a1,s0
80002b20:	00028513          	mv	a0,t0
80002b24:	a7dff0ef          	jal	800025a0 <__hidden___udivsi3>
80002b28:	00000593          	li	a1,0
80002b2c:	02012083          	lw	ra,32(sp)
80002b30:	01c12403          	lw	s0,28(sp)
80002b34:	02410113          	addi	sp,sp,36
80002b38:	00008067          	ret
80002b3c:	00912c23          	sw	s1,24(sp)
80002b40:	00058313          	mv	t1,a1
80002b44:	00040493          	mv	s1,s0
80002b48:	08041a63          	bnez	s0,80002bdc <__udivmoddi4+0x104>
80002b4c:	22068e63          	beqz	a3,80002d88 <__udivmoddi4+0x2b0>
80002b50:	2c050663          	beqz	a0,80002e1c <__udivmoddi4+0x344>
80002b54:	fff68793          	addi	a5,a3,-1
80002b58:	00d7f5b3          	and	a1,a5,a3
80002b5c:	32058063          	beqz	a1,80002e7c <__udivmoddi4+0x3a4>
80002b60:	00a12823          	sw	a0,16(sp)
80002b64:	00068513          	mv	a0,a3
80002b68:	00612a23          	sw	t1,20(sp)
80002b6c:	00c12623          	sw	a2,12(sp)
80002b70:	00612023          	sw	t1,0(sp)
80002b74:	00d12423          	sw	a3,8(sp)
80002b78:	470000ef          	jal	80002fe8 <__clzsi2>
80002b7c:	00012703          	lw	a4,0(sp)
80002b80:	00050793          	mv	a5,a0
80002b84:	00f12023          	sw	a5,0(sp)
80002b88:	00070513          	mv	a0,a4
80002b8c:	00e12223          	sw	a4,4(sp)
80002b90:	458000ef          	jal	80002fe8 <__clzsi2>
80002b94:	00012783          	lw	a5,0(sp)
80002b98:	00412703          	lw	a4,4(sp)
80002b9c:	00812683          	lw	a3,8(sp)
80002ba0:	40a78533          	sub	a0,a5,a0
80002ba4:	01e00793          	li	a5,30
80002ba8:	00c12603          	lw	a2,12(sp)
80002bac:	01012283          	lw	t0,16(sp)
80002bb0:	01412303          	lw	t1,20(sp)
80002bb4:	1ca7ec63          	bltu	a5,a0,80002d8c <__udivmoddi4+0x2b4>
80002bb8:	00150393          	addi	t2,a0,1
80002bbc:	02000513          	li	a0,32
80002bc0:	40750533          	sub	a0,a0,t2
80002bc4:	00a71333          	sll	t1,a4,a0
80002bc8:	0072d5b3          	srl	a1,t0,t2
80002bcc:	007757b3          	srl	a5,a4,t2
80002bd0:	00a29533          	sll	a0,t0,a0
80002bd4:	00b36733          	or	a4,t1,a1
80002bd8:	0800006f          	j	80002c58 <__udivmoddi4+0x180>
80002bdc:	14068663          	beqz	a3,80002d28 <__udivmoddi4+0x250>
80002be0:	00a12423          	sw	a0,8(sp)
80002be4:	00068513          	mv	a0,a3
80002be8:	00c12223          	sw	a2,4(sp)
80002bec:	00b12623          	sw	a1,12(sp)
80002bf0:	00b12023          	sw	a1,0(sp)
80002bf4:	00d12823          	sw	a3,16(sp)
80002bf8:	3f0000ef          	jal	80002fe8 <__clzsi2>
80002bfc:	00012703          	lw	a4,0(sp)
80002c00:	00050493          	mv	s1,a0
80002c04:	00070513          	mv	a0,a4
80002c08:	3e0000ef          	jal	80002fe8 <__clzsi2>
80002c0c:	40a48533          	sub	a0,s1,a0
80002c10:	01f00793          	li	a5,31
80002c14:	00412603          	lw	a2,4(sp)
80002c18:	00812283          	lw	t0,8(sp)
80002c1c:	00c12303          	lw	t1,12(sp)
80002c20:	16a7e663          	bltu	a5,a0,80002d8c <__udivmoddi4+0x2b4>
80002c24:	00150393          	addi	t2,a0,1
80002c28:	02000793          	li	a5,32
80002c2c:	00012703          	lw	a4,0(sp)
80002c30:	01012683          	lw	a3,16(sp)
80002c34:	00028513          	mv	a0,t0
80002c38:	26f38a63          	beq	t2,a5,80002eac <__udivmoddi4+0x3d4>
80002c3c:	407785b3          	sub	a1,a5,t2
80002c40:	0072d333          	srl	t1,t0,t2
80002c44:	00b712b3          	sll	t0,a4,a1
80002c48:	007757b3          	srl	a5,a4,t2
80002c4c:	00b51533          	sll	a0,a0,a1
80002c50:	0062e733          	or	a4,t0,t1
80002c54:	00000493          	li	s1,0
80002c58:	00c12223          	sw	a2,4(sp)
80002c5c:	00068613          	mv	a2,a3
80002c60:	00012023          	sw	zero,0(sp)
80002c64:	00078693          	mv	a3,a5
80002c68:	00060793          	mv	a5,a2
80002c6c:	01f55593          	srli	a1,a0,0x1f
80002c70:	00171613          	slli	a2,a4,0x1
80002c74:	00b66633          	or	a2,a2,a1
80002c78:	01f75713          	srli	a4,a4,0x1f
80002c7c:	00169693          	slli	a3,a3,0x1
80002c80:	00e6e6b3          	or	a3,a3,a4
80002c84:	40c40733          	sub	a4,s0,a2
80002c88:	40d78333          	sub	t1,a5,a3
80002c8c:	00e435b3          	sltu	a1,s0,a4
80002c90:	40b305b3          	sub	a1,t1,a1
80002c94:	00173713          	seqz	a4,a4
80002c98:	40e585b3          	sub	a1,a1,a4
80002c9c:	41f5d313          	srai	t1,a1,0x1f
80002ca0:	00837733          	and	a4,t1,s0
80002ca4:	00f37333          	and	t1,t1,a5
80002ca8:	406686b3          	sub	a3,a3,t1
80002cac:	00012303          	lw	t1,0(sp)
80002cb0:	40e60733          	sub	a4,a2,a4
80002cb4:	01f5d593          	srli	a1,a1,0x1f
80002cb8:	01f4d293          	srli	t0,s1,0x1f
80002cbc:	00151513          	slli	a0,a0,0x1
80002cc0:	00149493          	slli	s1,s1,0x1
80002cc4:	00e63633          	sltu	a2,a2,a4
80002cc8:	fff38393          	addi	t2,t2,-1
80002ccc:	00b12023          	sw	a1,0(sp)
80002cd0:	0064e4b3          	or	s1,s1,t1
80002cd4:	00556533          	or	a0,a0,t0
80002cd8:	40c686b3          	sub	a3,a3,a2
80002cdc:	f80398e3          	bnez	t2,80002c6c <__udivmoddi4+0x194>
80002ce0:	00412603          	lw	a2,4(sp)
80002ce4:	00060663          	beqz	a2,80002cf0 <__udivmoddi4+0x218>
80002ce8:	00e62023          	sw	a4,0(a2)
80002cec:	00d62223          	sw	a3,4(a2)
80002cf0:	00012703          	lw	a4,0(sp)
80002cf4:	01f4d313          	srli	t1,s1,0x1f
80002cf8:	00151793          	slli	a5,a0,0x1
80002cfc:	00149513          	slli	a0,s1,0x1
80002d00:	00e56533          	or	a0,a0,a4
80002d04:	01812483          	lw	s1,24(sp)
80002d08:	00f365b3          	or	a1,t1,a5
80002d0c:	e21ff06f          	j	80002b2c <__udivmoddi4+0x54>
80002d10:	00070663          	beqz	a4,80002d1c <__udivmoddi4+0x244>
80002d14:	00a62023          	sw	a0,0(a2)
80002d18:	00072223          	sw	zero,4(a4)
80002d1c:	00000513          	li	a0,0
80002d20:	00000593          	li	a1,0
80002d24:	e09ff06f          	j	80002b2c <__udivmoddi4+0x54>
80002d28:	fff40593          	addi	a1,s0,-1
80002d2c:	0085f533          	and	a0,a1,s0
80002d30:	06051863          	bnez	a0,80002da0 <__udivmoddi4+0x2c8>
80002d34:	00060863          	beqz	a2,80002d44 <__udivmoddi4+0x26c>
80002d38:	0055f5b3          	and	a1,a1,t0
80002d3c:	00b62023          	sw	a1,0(a2)
80002d40:	00062223          	sw	zero,4(a2)
80002d44:	00100793          	li	a5,1
80002d48:	10f40e63          	beq	s0,a5,80002e64 <__udivmoddi4+0x38c>
80002d4c:	00040513          	mv	a0,s0
80002d50:	00612223          	sw	t1,4(sp)
80002d54:	00512023          	sw	t0,0(sp)
80002d58:	320000ef          	jal	80003078 <__ctzsi2>
80002d5c:	00412303          	lw	t1,4(sp)
80002d60:	00012283          	lw	t0,0(sp)
80002d64:	02000713          	li	a4,32
80002d68:	40a70733          	sub	a4,a4,a0
80002d6c:	00050793          	mv	a5,a0
80002d70:	00e31733          	sll	a4,t1,a4
80002d74:	00a2d2b3          	srl	t0,t0,a0
80002d78:	01812483          	lw	s1,24(sp)
80002d7c:	00576533          	or	a0,a4,t0
80002d80:	00f355b3          	srl	a1,t1,a5
80002d84:	da9ff06f          	j	80002b2c <__udivmoddi4+0x54>
80002d88:	00100073          	ebreak
80002d8c:	0e060463          	beqz	a2,80002e74 <__udivmoddi4+0x39c>
80002d90:	01812483          	lw	s1,24(sp)
80002d94:	00562023          	sw	t0,0(a2)
80002d98:	00662223          	sw	t1,4(a2)
80002d9c:	f81ff06f          	j	80002d1c <__udivmoddi4+0x244>
80002da0:	00040513          	mv	a0,s0
80002da4:	00d12823          	sw	a3,16(sp)
80002da8:	00512623          	sw	t0,12(sp)
80002dac:	00c12423          	sw	a2,8(sp)
80002db0:	00612023          	sw	t1,0(sp)
80002db4:	00d12223          	sw	a3,4(sp)
80002db8:	230000ef          	jal	80002fe8 <__clzsi2>
80002dbc:	00012703          	lw	a4,0(sp)
80002dc0:	00050493          	mv	s1,a0
80002dc4:	00070513          	mv	a0,a4
80002dc8:	220000ef          	jal	80002fe8 <__clzsi2>
80002dcc:	00c12283          	lw	t0,12(sp)
80002dd0:	40a485b3          	sub	a1,s1,a0
80002dd4:	02158393          	addi	t2,a1,33
80002dd8:	02000313          	li	t1,32
80002ddc:	00012703          	lw	a4,0(sp)
80002de0:	00412783          	lw	a5,4(sp)
80002de4:	00812603          	lw	a2,8(sp)
80002de8:	01012683          	lw	a3,16(sp)
80002dec:	00028513          	mv	a0,t0
80002df0:	00000493          	li	s1,0
80002df4:	e66382e3          	beq	t2,t1,80002c58 <__udivmoddi4+0x180>
80002df8:	01f00293          	li	t0,31
80002dfc:	0a72ee63          	bltu	t0,t2,80002eb8 <__udivmoddi4+0x3e0>
80002e00:	40730333          	sub	t1,t1,t2
80002e04:	007555b3          	srl	a1,a0,t2
80002e08:	007757b3          	srl	a5,a4,t2
80002e0c:	00671733          	sll	a4,a4,t1
80002e10:	00b76733          	or	a4,a4,a1
80002e14:	00651533          	sll	a0,a0,t1
80002e18:	e41ff06f          	j	80002c58 <__udivmoddi4+0x180>
80002e1c:	00c12023          	sw	a2,0(sp)
80002e20:	02060663          	beqz	a2,80002e4c <__udivmoddi4+0x374>
80002e24:	00068593          	mv	a1,a3
80002e28:	00030513          	mv	a0,t1
80002e2c:	00d12423          	sw	a3,8(sp)
80002e30:	00612223          	sw	t1,4(sp)
80002e34:	fb4ff0ef          	jal	800025e8 <__umodsi3>
80002e38:	00012603          	lw	a2,0(sp)
80002e3c:	00812683          	lw	a3,8(sp)
80002e40:	00412303          	lw	t1,4(sp)
80002e44:	00062023          	sw	zero,0(a2)
80002e48:	00a62223          	sw	a0,4(a2)
80002e4c:	00068593          	mv	a1,a3
80002e50:	00030513          	mv	a0,t1
80002e54:	f4cff0ef          	jal	800025a0 <__hidden___udivsi3>
80002e58:	00000593          	li	a1,0
80002e5c:	01812483          	lw	s1,24(sp)
80002e60:	ccdff06f          	j	80002b2c <__udivmoddi4+0x54>
80002e64:	01812483          	lw	s1,24(sp)
80002e68:	00028513          	mv	a0,t0
80002e6c:	00030593          	mv	a1,t1
80002e70:	cbdff06f          	j	80002b2c <__udivmoddi4+0x54>
80002e74:	01812483          	lw	s1,24(sp)
80002e78:	ea5ff06f          	j	80002d1c <__udivmoddi4+0x244>
80002e7c:	00060863          	beqz	a2,80002e8c <__udivmoddi4+0x3b4>
80002e80:	0067f7b3          	and	a5,a5,t1
80002e84:	00a62023          	sw	a0,0(a2)
80002e88:	00f62223          	sw	a5,4(a2)
80002e8c:	00068513          	mv	a0,a3
80002e90:	00612023          	sw	t1,0(sp)
80002e94:	1e4000ef          	jal	80003078 <__ctzsi2>
80002e98:	00012303          	lw	t1,0(sp)
80002e9c:	01812483          	lw	s1,24(sp)
80002ea0:	00000593          	li	a1,0
80002ea4:	00a35533          	srl	a0,t1,a0
80002ea8:	c85ff06f          	j	80002b2c <__udivmoddi4+0x54>
80002eac:	00000793          	li	a5,0
80002eb0:	00000493          	li	s1,0
80002eb4:	da5ff06f          	j	80002c58 <__udivmoddi4+0x180>
80002eb8:	04000493          	li	s1,64
80002ebc:	407484b3          	sub	s1,s1,t2
80002ec0:	00158593          	addi	a1,a1,1
80002ec4:	009712b3          	sll	t0,a4,s1
80002ec8:	00b55333          	srl	t1,a0,a1
80002ecc:	009514b3          	sll	s1,a0,s1
80002ed0:	00b75733          	srl	a4,a4,a1
80002ed4:	0062e533          	or	a0,t0,t1
80002ed8:	d81ff06f          	j	80002c58 <__udivmoddi4+0x180>

80002edc <__divdi3>:
80002edc:	41f5d313          	srai	t1,a1,0x1f
80002ee0:	41f6d793          	srai	a5,a3,0x1f
80002ee4:	006542b3          	xor	t0,a0,t1
80002ee8:	00f643b3          	xor	t2,a2,a5
80002eec:	40f38633          	sub	a2,t2,a5
80002ef0:	40628533          	sub	a0,t0,t1
80002ef4:	0065c5b3          	xor	a1,a1,t1
80002ef8:	00f6c6b3          	xor	a3,a3,a5
80002efc:	00c3b3b3          	sltu	t2,t2,a2
80002f00:	40f686b3          	sub	a3,a3,a5
80002f04:	00a2b2b3          	sltu	t0,t0,a0
80002f08:	406585b3          	sub	a1,a1,t1
80002f0c:	ff410113          	addi	sp,sp,-12
80002f10:	00000713          	li	a4,0
80002f14:	407686b3          	sub	a3,a3,t2
80002f18:	405585b3          	sub	a1,a1,t0
80002f1c:	00812223          	sw	s0,4(sp)
80002f20:	00112423          	sw	ra,8(sp)
80002f24:	00f34433          	xor	s0,t1,a5
80002f28:	bb1ff0ef          	jal	80002ad8 <__udivmoddi4>
80002f2c:	00854733          	xor	a4,a0,s0
80002f30:	0085c5b3          	xor	a1,a1,s0
80002f34:	40870533          	sub	a0,a4,s0
80002f38:	00812083          	lw	ra,8(sp)
80002f3c:	408585b3          	sub	a1,a1,s0
80002f40:	00412403          	lw	s0,4(sp)
80002f44:	00a73733          	sltu	a4,a4,a0
80002f48:	40e585b3          	sub	a1,a1,a4
80002f4c:	00c10113          	addi	sp,sp,12
80002f50:	00008067          	ret

80002f54 <__moddi3>:
80002f54:	fe810113          	addi	sp,sp,-24
80002f58:	00812823          	sw	s0,16(sp)
80002f5c:	41f6d313          	srai	t1,a3,0x1f
80002f60:	41f5d413          	srai	s0,a1,0x1f
80002f64:	00854733          	xor	a4,a0,s0
80002f68:	006647b3          	xor	a5,a2,t1
80002f6c:	00912623          	sw	s1,12(sp)
80002f70:	40870533          	sub	a0,a4,s0
80002f74:	40678633          	sub	a2,a5,t1
80002f78:	0066c6b3          	xor	a3,a3,t1
80002f7c:	0085c5b3          	xor	a1,a1,s0
80002f80:	00710493          	addi	s1,sp,7
80002f84:	ff84f493          	andi	s1,s1,-8
80002f88:	00c7b7b3          	sltu	a5,a5,a2
80002f8c:	406686b3          	sub	a3,a3,t1
80002f90:	408585b3          	sub	a1,a1,s0
80002f94:	00a73333          	sltu	t1,a4,a0
80002f98:	40f686b3          	sub	a3,a3,a5
80002f9c:	00048713          	mv	a4,s1
80002fa0:	406585b3          	sub	a1,a1,t1
80002fa4:	00112a23          	sw	ra,20(sp)
80002fa8:	b31ff0ef          	jal	80002ad8 <__udivmoddi4>
80002fac:	0004a783          	lw	a5,0(s1)
80002fb0:	0044a583          	lw	a1,4(s1)
80002fb4:	01412083          	lw	ra,20(sp)
80002fb8:	0087c7b3          	xor	a5,a5,s0
80002fbc:	0085c5b3          	xor	a1,a1,s0
80002fc0:	40878533          	sub	a0,a5,s0
80002fc4:	408585b3          	sub	a1,a1,s0
80002fc8:	01012403          	lw	s0,16(sp)
80002fcc:	00a7b7b3          	sltu	a5,a5,a0
80002fd0:	00c12483          	lw	s1,12(sp)
80002fd4:	40f585b3          	sub	a1,a1,a5
80002fd8:	01810113          	addi	sp,sp,24
80002fdc:	00008067          	ret

80002fe0 <__udivdi3>:
80002fe0:	00000713          	li	a4,0
80002fe4:	af5ff06f          	j	80002ad8 <__udivmoddi4>

80002fe8 <__clzsi2>:
80002fe8:	000105b7          	lui	a1,0x10
80002fec:	00b535b3          	sltu	a1,a0,a1
80002ff0:	00459593          	slli	a1,a1,0x4
80002ff4:	01000793          	li	a5,16
80002ff8:	40b787b3          	sub	a5,a5,a1
80002ffc:	00010737          	lui	a4,0x10
80003000:	00f557b3          	srl	a5,a0,a5
80003004:	f0070713          	addi	a4,a4,-256 # ff00 <_entry_offset+0xff00>
80003008:	00e7f733          	and	a4,a5,a4
8000300c:	00173713          	seqz	a4,a4
80003010:	00371713          	slli	a4,a4,0x3
80003014:	00800693          	li	a3,8
80003018:	40e686b3          	sub	a3,a3,a4
8000301c:	00d7d7b3          	srl	a5,a5,a3
80003020:	0f07f693          	andi	a3,a5,240
80003024:	0016b693          	seqz	a3,a3
80003028:	00269693          	slli	a3,a3,0x2
8000302c:	00400613          	li	a2,4
80003030:	40d60633          	sub	a2,a2,a3
80003034:	00c7d7b3          	srl	a5,a5,a2
80003038:	00c7f613          	andi	a2,a5,12
8000303c:	00163613          	seqz	a2,a2
80003040:	00200513          	li	a0,2
80003044:	00161613          	slli	a2,a2,0x1
80003048:	40c50333          	sub	t1,a0,a2
8000304c:	0067d7b3          	srl	a5,a5,t1
80003050:	0017d313          	srli	t1,a5,0x1
80003054:	00b70733          	add	a4,a4,a1
80003058:	00137593          	andi	a1,t1,1
8000305c:	00e686b3          	add	a3,a3,a4
80003060:	40f50533          	sub	a0,a0,a5
80003064:	00058463          	beqz	a1,8000306c <__clzsi2+0x84>
80003068:	00000513          	li	a0,0
8000306c:	00d606b3          	add	a3,a2,a3
80003070:	00d50533          	add	a0,a0,a3
80003074:	00008067          	ret

80003078 <__ctzsi2>:
80003078:	01051593          	slli	a1,a0,0x10
8000307c:	0105d593          	srli	a1,a1,0x10
80003080:	0015b593          	seqz	a1,a1
80003084:	00459593          	slli	a1,a1,0x4
80003088:	00b557b3          	srl	a5,a0,a1
8000308c:	0ff7f613          	zext.b	a2,a5
80003090:	00163613          	seqz	a2,a2
80003094:	00361613          	slli	a2,a2,0x3
80003098:	00c7d7b3          	srl	a5,a5,a2
8000309c:	00f7f693          	andi	a3,a5,15
800030a0:	0016b693          	seqz	a3,a3
800030a4:	00269693          	slli	a3,a3,0x2
800030a8:	00d7d7b3          	srl	a5,a5,a3
800030ac:	0037f713          	andi	a4,a5,3
800030b0:	00173713          	seqz	a4,a4
800030b4:	00171713          	slli	a4,a4,0x1
800030b8:	00e7d7b3          	srl	a5,a5,a4
800030bc:	0017d513          	srli	a0,a5,0x1
800030c0:	fff7c793          	not	a5,a5
800030c4:	00b60633          	add	a2,a2,a1
800030c8:	0017f793          	andi	a5,a5,1
800030cc:	00157593          	andi	a1,a0,1
800030d0:	00200513          	li	a0,2
800030d4:	40b50533          	sub	a0,a0,a1
800030d8:	00c686b3          	add	a3,a3,a2
800030dc:	40f007b3          	neg	a5,a5
800030e0:	00f577b3          	and	a5,a0,a5
800030e4:	00d70533          	add	a0,a4,a3
800030e8:	00a78533          	add	a0,a5,a0
800030ec:	00008067          	ret
