
/home/jinghanhui/ysyx-workbench/am-kernels/kernels/bad-apple/build/bad-apple-riscv32-nemu.elf:     file format elf32-littleriscv


Disassembly of section .text:

80000000 <_start>:
80000000:	00000413          	li	s0,0
80000004:	01409117          	auipc	sp,0x1409
80000008:	ffc10113          	addi	sp,sp,-4 # 81409000 <_end>
8000000c:	22c000ef          	jal	80000238 <_trm_init>

80000010 <main>:
80000010:	fb010113          	addi	sp,sp,-80
80000014:	04112623          	sw	ra,76(sp)
80000018:	05212023          	sw	s2,64(sp)
8000001c:	03912223          	sw	s9,36(sp)
80000020:	04812423          	sw	s0,72(sp)
80000024:	03412c23          	sw	s4,56(sp)
80000028:	03a12023          	sw	s10,32(sp)
8000002c:	01b12e23          	sw	s11,28(sp)
80000030:	2bc000ef          	jal	800002ec <ioe_init>
80000034:	00001517          	auipc	a0,0x1
80000038:	8a450513          	addi	a0,a0,-1884 # 800008d8 <_etext>
8000003c:	7a0000ef          	jal	800007dc <printf>
80000040:	00010593          	mv	a1,sp
80000044:	00e00513          	li	a0,14
80000048:	300000ef          	jal	80000348 <ioe_read>
8000004c:	00014c83          	lbu	s9,0(sp)
80000050:	00000913          	li	s2,0
80000054:	180c9663          	bnez	s9,800001e0 <main+0x1d0>
80000058:	00010593          	mv	a1,sp
8000005c:	00600513          	li	a0,6
80000060:	00001417          	auipc	s0,0x1
80000064:	91040413          	addi	s0,s0,-1776 # 80000970 <video_payload>
80000068:	00192d97          	auipc	s11,0x192
8000006c:	cf4d8d93          	addi	s11,s11,-780 # 80191d5c <video_payload_end>
80000070:	2d8000ef          	jal	80000348 <ioe_read>
80000074:	00012a03          	lw	s4,0(sp)
80000078:	00412d03          	lw	s10,4(sp)
8000007c:	0fb47663          	bgeu	s0,s11,80000168 <main+0x158>
80000080:	04912223          	sw	s1,68(sp)
80000084:	03612823          	sw	s6,48(sp)
80000088:	03712623          	sw	s7,44(sp)
8000008c:	000014b7          	lui	s1,0x1
80000090:	00001bb7          	lui	s7,0x1
80000094:	00008b37          	lui	s6,0x8
80000098:	03512a23          	sw	s5,52(sp)
8000009c:	03312e23          	sw	s3,60(sp)
800000a0:	03812423          	sw	s8,40(sp)
800000a4:	00192a97          	auipc	s5,0x192
800000a8:	cbca8a93          	addi	s5,s5,-836 # 80191d60 <audio_payload>
800000ac:	82048493          	addi	s1,s1,-2016 # 820 <_entry_offset+0x820>
800000b0:	b7cb8b93          	addi	s7,s7,-1156 # b7c <_entry_offset+0xb7c>
800000b4:	235b0b13          	addi	s6,s6,565 # 8235 <_entry_offset+0x8235>
800000b8:	00001517          	auipc	a0,0x1
800000bc:	82850513          	addi	a0,a0,-2008 # 800008e0 <_etext+0x8>
800000c0:	71c000ef          	jal	800007dc <printf>
800000c4:	05000993          	li	s3,80
800000c8:	fb098c13          	addi	s8,s3,-80
800000cc:	403c5793          	srai	a5,s8,0x3
800000d0:	00f407b3          	add	a5,s0,a5
800000d4:	0007c503          	lbu	a0,0(a5)
800000d8:	fffc4793          	not	a5,s8
800000dc:	0077f793          	andi	a5,a5,7
800000e0:	40f55533          	sra	a0,a0,a5
800000e4:	00157513          	andi	a0,a0,1
800000e8:	fff50513          	addi	a0,a0,-1
800000ec:	fd657513          	andi	a0,a0,-42
800000f0:	05850513          	addi	a0,a0,88
800000f4:	001c0c13          	addi	s8,s8,1
800000f8:	128000ef          	jal	80000220 <putch>
800000fc:	fd3c18e3          	bne	s8,s3,800000cc <main+0xbc>
80000100:	00a00513          	li	a0,10
80000104:	050c0993          	addi	s3,s8,80
80000108:	118000ef          	jal	80000220 <putch>
8000010c:	fa999ee3          	bne	s3,s1,800000c8 <main+0xb8>
80000110:	080c9063          	bnez	s9,80000190 <main+0x180>
80000114:	016a0c33          	add	s8,s4,s6
80000118:	014c3a33          	sltu	s4,s8,s4
8000011c:	01aa09b3          	add	s3,s4,s10
80000120:	00098d13          	mv	s10,s3
80000124:	000c0a13          	mv	s4,s8
80000128:	00010593          	mv	a1,sp
8000012c:	00600513          	li	a0,6
80000130:	218000ef          	jal	80000348 <ioe_read>
80000134:	00412783          	lw	a5,4(sp)
80000138:	00012703          	lw	a4,0(sp)
8000013c:	ff37e6e3          	bltu	a5,s3,80000128 <main+0x118>
80000140:	00f99463          	bne	s3,a5,80000148 <main+0x138>
80000144:	ff8762e3          	bltu	a4,s8,80000128 <main+0x118>
80000148:	0fa40413          	addi	s0,s0,250
8000014c:	f7b466e3          	bltu	s0,s11,800000b8 <main+0xa8>
80000150:	04412483          	lw	s1,68(sp)
80000154:	03c12983          	lw	s3,60(sp)
80000158:	03412a83          	lw	s5,52(sp)
8000015c:	03012b03          	lw	s6,48(sp)
80000160:	02c12b83          	lw	s7,44(sp)
80000164:	02812c03          	lw	s8,40(sp)
80000168:	04c12083          	lw	ra,76(sp)
8000016c:	04812403          	lw	s0,72(sp)
80000170:	04012903          	lw	s2,64(sp)
80000174:	03812a03          	lw	s4,56(sp)
80000178:	02412c83          	lw	s9,36(sp)
8000017c:	02012d03          	lw	s10,32(sp)
80000180:	01c12d83          	lw	s11,28(sp)
80000184:	00000513          	li	a0,0
80000188:	05010113          	addi	sp,sp,80
8000018c:	00008067          	ret
80000190:	00090993          	mv	s3,s2
80000194:	012bd663          	bge	s7,s2,800001a0 <main+0x190>
80000198:	000019b7          	lui	s3,0x1
8000019c:	b7c98993          	addi	s3,s3,-1156 # b7c <_entry_offset+0xb7c>
800001a0:	03205c63          	blez	s2,800001d8 <main+0x1c8>
800001a4:	00001737          	lui	a4,0x1
800001a8:	000a8793          	mv	a5,s5
800001ac:	00010593          	mv	a1,sp
800001b0:	01100513          	li	a0,17
800001b4:	00098c13          	mv	s8,s3
800001b8:	01375463          	bge	a4,s3,800001c0 <main+0x1b0>
800001bc:	00001c37          	lui	s8,0x1
800001c0:	018a8ab3          	add	s5,s5,s8
800001c4:	418989b3          	sub	s3,s3,s8
800001c8:	00f12023          	sw	a5,0(sp)
800001cc:	01512223          	sw	s5,4(sp)
800001d0:	194000ef          	jal	80000364 <ioe_write>
800001d4:	fd3048e3          	bgtz	s3,800001a4 <main+0x194>
800001d8:	41390933          	sub	s2,s2,s3
800001dc:	f39ff06f          	j	80000114 <main+0x104>
800001e0:	0000b7b7          	lui	a5,0xb
800001e4:	c4478793          	addi	a5,a5,-956 # ac44 <_entry_offset+0xac44>
800001e8:	00f12023          	sw	a5,0(sp)
800001ec:	00100793          	li	a5,1
800001f0:	00f12223          	sw	a5,4(sp)
800001f4:	00010593          	mv	a1,sp
800001f8:	40000793          	li	a5,1024
800001fc:	00f00513          	li	a0,15
80000200:	00f12423          	sw	a5,8(sp)
80000204:	160000ef          	jal	80000364 <ioe_write>
80000208:	01401917          	auipc	s2,0x1401
8000020c:	b5890913          	addi	s2,s2,-1192 # 81400d60 <lut>
80000210:	00192797          	auipc	a5,0x192
80000214:	b5078793          	addi	a5,a5,-1200 # 80191d60 <audio_payload>
80000218:	40f90933          	sub	s2,s2,a5
8000021c:	e3dff06f          	j	80000058 <main+0x48>

80000220 <putch>:
80000220:	a00007b7          	lui	a5,0xa0000
80000224:	3ea78c23          	sb	a0,1016(a5) # a00003f8 <_end+0x1ebf73f8>
80000228:	00008067          	ret

8000022c <halt>:
8000022c:	00050513          	mv	a0,a0
80000230:	00100073          	ebreak
80000234:	0000006f          	j	80000234 <halt+0x8>

80000238 <_trm_init>:
80000238:	ff010113          	addi	sp,sp,-16
8000023c:	00000517          	auipc	a0,0x0
80000240:	73050513          	addi	a0,a0,1840 # 8000096c <mainargs>
80000244:	00112623          	sw	ra,12(sp)
80000248:	dc9ff0ef          	jal	80000010 <main>
8000024c:	00050513          	mv	a0,a0
80000250:	00100073          	ebreak
80000254:	0000006f          	j	80000254 <_trm_init+0x1c>

80000258 <__am_timer_config>:
80000258:	00100793          	li	a5,1
8000025c:	00f50023          	sb	a5,0(a0)
80000260:	00f500a3          	sb	a5,1(a0)
80000264:	00008067          	ret

80000268 <__am_input_config>:
80000268:	00100793          	li	a5,1
8000026c:	00f50023          	sb	a5,0(a0)
80000270:	00008067          	ret

80000274 <__am_uart_config>:
80000274:	00050023          	sb	zero,0(a0)
80000278:	00008067          	ret

8000027c <__am_net_config>:
8000027c:	00050023          	sb	zero,0(a0)
80000280:	00008067          	ret

80000284 <fail>:
80000284:	ff010113          	addi	sp,sp,-16
80000288:	00812423          	sw	s0,8(sp)
8000028c:	00112623          	sw	ra,12(sp)
80000290:	00000417          	auipc	s0,0x0
80000294:	65840413          	addi	s0,s0,1624 # 800008e8 <_etext+0x10>
80000298:	04100513          	li	a0,65
8000029c:	f85ff0ef          	jal	80000220 <putch>
800002a0:	00144503          	lbu	a0,1(s0)
800002a4:	00140413          	addi	s0,s0,1
800002a8:	fe051ae3          	bnez	a0,8000029c <fail+0x18>
800002ac:	00000417          	auipc	s0,0x0
800002b0:	64840413          	addi	s0,s0,1608 # 800008f4 <_etext+0x1c>
800002b4:	06100513          	li	a0,97
800002b8:	f69ff0ef          	jal	80000220 <putch>
800002bc:	00144503          	lbu	a0,1(s0)
800002c0:	00140413          	addi	s0,s0,1
800002c4:	fe051ae3          	bnez	a0,800002b8 <fail+0x34>
800002c8:	00000417          	auipc	s0,0x0
800002cc:	64840413          	addi	s0,s0,1608 # 80000910 <_etext+0x38>
800002d0:	02000513          	li	a0,32
800002d4:	f4dff0ef          	jal	80000220 <putch>
800002d8:	00144503          	lbu	a0,1(s0)
800002dc:	00140413          	addi	s0,s0,1
800002e0:	fe051ae3          	bnez	a0,800002d4 <fail+0x50>
800002e4:	00100513          	li	a0,1
800002e8:	f45ff0ef          	jal	8000022c <halt>

800002ec <ioe_init>:
800002ec:	ff010113          	addi	sp,sp,-16
800002f0:	00112623          	sw	ra,12(sp)
800002f4:	01401797          	auipc	a5,0x1401
800002f8:	a6c78793          	addi	a5,a5,-1428 # 81400d60 <lut>
800002fc:	01401697          	auipc	a3,0x1401
80000300:	c6468693          	addi	a3,a3,-924 # 81400f60 <_bss_start>
80000304:	00000617          	auipc	a2,0x0
80000308:	f8060613          	addi	a2,a2,-128 # 80000284 <fail>
8000030c:	00c0006f          	j	80000318 <ioe_init+0x2c>
80000310:	00478793          	addi	a5,a5,4
80000314:	00d78c63          	beq	a5,a3,8000032c <ioe_init+0x40>
80000318:	0007a703          	lw	a4,0(a5)
8000031c:	fe071ae3          	bnez	a4,80000310 <ioe_init+0x24>
80000320:	00c7a023          	sw	a2,0(a5)
80000324:	00478793          	addi	a5,a5,4
80000328:	fed798e3          	bne	a5,a3,80000318 <ioe_init+0x2c>
8000032c:	0c0000ef          	jal	800003ec <__am_gpu_init>
80000330:	050000ef          	jal	80000380 <__am_timer_init>
80000334:	1dc000ef          	jal	80000510 <__am_audio_init>
80000338:	00c12083          	lw	ra,12(sp)
8000033c:	00100513          	li	a0,1
80000340:	01010113          	addi	sp,sp,16
80000344:	00008067          	ret

80000348 <ioe_read>:
80000348:	00251513          	slli	a0,a0,0x2
8000034c:	01401797          	auipc	a5,0x1401
80000350:	a1478793          	addi	a5,a5,-1516 # 81400d60 <lut>
80000354:	00a787b3          	add	a5,a5,a0
80000358:	0007a783          	lw	a5,0(a5)
8000035c:	00058513          	mv	a0,a1
80000360:	00078067          	jr	a5

80000364 <ioe_write>:
80000364:	00251513          	slli	a0,a0,0x2
80000368:	01401797          	auipc	a5,0x1401
8000036c:	9f878793          	addi	a5,a5,-1544 # 81400d60 <lut>
80000370:	00a787b3          	add	a5,a5,a0
80000374:	0007a783          	lw	a5,0(a5)
80000378:	00058513          	mv	a0,a1
8000037c:	00078067          	jr	a5

80000380 <__am_timer_init>:
80000380:	00008067          	ret

80000384 <__am_timer_uptime>:
80000384:	a0000737          	lui	a4,0xa0000
80000388:	a00007b7          	lui	a5,0xa0000
8000038c:	04870713          	addi	a4,a4,72 # a0000048 <_end+0x1ebf7048>
80000390:	04c7a683          	lw	a3,76(a5) # a000004c <_end+0x1ebf704c>
80000394:	00072703          	lw	a4,0(a4)
80000398:	00d52223          	sw	a3,4(a0)
8000039c:	00e52023          	sw	a4,0(a0)
800003a0:	00008067          	ret

800003a4 <__am_timer_rtc>:
800003a4:	76c00793          	li	a5,1900
800003a8:	00052a23          	sw	zero,20(a0)
800003ac:	00052823          	sw	zero,16(a0)
800003b0:	00052623          	sw	zero,12(a0)
800003b4:	00052423          	sw	zero,8(a0)
800003b8:	00052223          	sw	zero,4(a0)
800003bc:	00f52023          	sw	a5,0(a0)
800003c0:	00008067          	ret

800003c4 <__am_input_keybrd>:
800003c4:	a00006b7          	lui	a3,0xa0000
800003c8:	0606a783          	lw	a5,96(a3) # a0000060 <_end+0x1ebf7060>
800003cc:	ffff8637          	lui	a2,0xffff8
800003d0:	fff60613          	addi	a2,a2,-1 # ffff7fff <_end+0x7ebeefff>
800003d4:	00f7d713          	srli	a4,a5,0xf
800003d8:	00177713          	andi	a4,a4,1
800003dc:	00c7f7b3          	and	a5,a5,a2
800003e0:	00e50023          	sb	a4,0(a0)
800003e4:	00f52223          	sw	a5,4(a0)
800003e8:	00008067          	ret

800003ec <__am_gpu_init>:
800003ec:	00008067          	ret

800003f0 <__am_gpu_config>:
800003f0:	a0000737          	lui	a4,0xa0000
800003f4:	10072783          	lw	a5,256(a4) # a0000100 <_end+0x1ebf7100>
800003f8:	00100713          	li	a4,1
800003fc:	00e51023          	sh	a4,0(a0)
80000400:	0107d693          	srli	a3,a5,0x10
80000404:	01079793          	slli	a5,a5,0x10
80000408:	0107d793          	srli	a5,a5,0x10
8000040c:	00d52223          	sw	a3,4(a0)
80000410:	00f52423          	sw	a5,8(a0)
80000414:	00052623          	sw	zero,12(a0)
80000418:	00008067          	ret

8000041c <__am_gpu_fbdraw>:
8000041c:	00852f83          	lw	t6,8(a0)
80000420:	0c0f8463          	beqz	t6,800004e8 <__am_gpu_fbdraw+0xcc>
80000424:	00c52283          	lw	t0,12(a0)
80000428:	0c505063          	blez	t0,800004e8 <__am_gpu_fbdraw+0xcc>
8000042c:	01052383          	lw	t2,16(a0)
80000430:	0a705c63          	blez	t2,800004e8 <__am_gpu_fbdraw+0xcc>
80000434:	a00007b7          	lui	a5,0xa0000
80000438:	1007a303          	lw	t1,256(a5) # a0000100 <_end+0x1ebf7100>
8000043c:	00452803          	lw	a6,4(a0)
80000440:	ff010113          	addi	sp,sp,-16
80000444:	01035613          	srli	a2,t1,0x10
80000448:	030608b3          	mul	a7,a2,a6
8000044c:	00812623          	sw	s0,12(sp)
80000450:	00052403          	lw	s0,0(a0)
80000454:	00912423          	sw	s1,8(sp)
80000458:	01031313          	slli	t1,t1,0x10
8000045c:	405604b3          	sub	s1,a2,t0
80000460:	01035313          	srli	t1,t1,0x10
80000464:	00249493          	slli	s1,s1,0x2
80000468:	010383b3          	add	t2,t2,a6
8000046c:	00000f13          	li	t5,0
80000470:	008888b3          	add	a7,a7,s0
80000474:	00289893          	slli	a7,a7,0x2
80000478:	008285b3          	add	a1,t0,s0
8000047c:	a1000e37          	lui	t3,0xa1000
80000480:	41f888b3          	sub	a7,a7,t6
80000484:	002f1713          	slli	a4,t5,0x2
80000488:	00ef8733          	add	a4,t6,a4
8000048c:	00040793          	mv	a5,s0
80000490:	00c7dc63          	bge	a5,a2,800004a8 <__am_gpu_fbdraw+0x8c>
80000494:	011706b3          	add	a3,a4,a7
80000498:	00de06b3          	add	a3,t3,a3
8000049c:	00685663          	bge	a6,t1,800004a8 <__am_gpu_fbdraw+0x8c>
800004a0:	00072e83          	lw	t4,0(a4)
800004a4:	01d6a023          	sw	t4,0(a3)
800004a8:	00178793          	addi	a5,a5,1
800004ac:	00470713          	addi	a4,a4,4
800004b0:	feb790e3          	bne	a5,a1,80000490 <__am_gpu_fbdraw+0x74>
800004b4:	00180813          	addi	a6,a6,1
800004b8:	005f0f33          	add	t5,t5,t0
800004bc:	009888b3          	add	a7,a7,s1
800004c0:	fc7812e3          	bne	a6,t2,80000484 <__am_gpu_fbdraw+0x68>
800004c4:	01454783          	lbu	a5,20(a0)
800004c8:	00078863          	beqz	a5,800004d8 <__am_gpu_fbdraw+0xbc>
800004cc:	a00007b7          	lui	a5,0xa0000
800004d0:	00100713          	li	a4,1
800004d4:	10e7a223          	sw	a4,260(a5) # a0000104 <_end+0x1ebf7104>
800004d8:	00c12403          	lw	s0,12(sp)
800004dc:	00812483          	lw	s1,8(sp)
800004e0:	01010113          	addi	sp,sp,16
800004e4:	00008067          	ret
800004e8:	01454783          	lbu	a5,20(a0)
800004ec:	00078a63          	beqz	a5,80000500 <__am_gpu_fbdraw+0xe4>
800004f0:	a00007b7          	lui	a5,0xa0000
800004f4:	00100713          	li	a4,1
800004f8:	10e7a223          	sw	a4,260(a5) # a0000104 <_end+0x1ebf7104>
800004fc:	00008067          	ret
80000500:	00008067          	ret

80000504 <__am_gpu_status>:
80000504:	00100793          	li	a5,1
80000508:	00f50023          	sb	a5,0(a0)
8000050c:	00008067          	ret

80000510 <__am_audio_init>:
80000510:	00008067          	ret

80000514 <__am_audio_config>:
80000514:	00050023          	sb	zero,0(a0)
80000518:	00008067          	ret

8000051c <__am_audio_ctrl>:
8000051c:	00008067          	ret

80000520 <__am_audio_status>:
80000520:	00052023          	sw	zero,0(a0)
80000524:	00008067          	ret

80000528 <__am_audio_play>:
80000528:	00008067          	ret

8000052c <__am_disk_config>:
8000052c:	00050023          	sb	zero,0(a0)
80000530:	00008067          	ret

80000534 <__am_disk_status>:
80000534:	00008067          	ret

80000538 <__am_disk_blkio>:
80000538:	00008067          	ret

8000053c <vsprintf>:
8000053c:	0005c783          	lbu	a5,0(a1)
80000540:	00050f13          	mv	t5,a0
80000544:	26078463          	beqz	a5,800007ac <vsprintf+0x270>
80000548:	fc010113          	addi	sp,sp,-64
8000054c:	02812e23          	sw	s0,60(sp)
80000550:	02912c23          	sw	s1,56(sp)
80000554:	03212a23          	sw	s2,52(sp)
80000558:	03312823          	sw	s3,48(sp)
8000055c:	00000713          	li	a4,0
80000560:	00000513          	li	a0,0
80000564:	000f0693          	mv	a3,t5
80000568:	02500393          	li	t2,37
8000056c:	03000493          	li	s1,48
80000570:	00900293          	li	t0,9
80000574:	06400413          	li	s0,100
80000578:	0200006f          	j	80000598 <vsprintf+0x5c>
8000057c:	000e0713          	mv	a4,t3
80000580:	00f68023          	sb	a5,0(a3)
80000584:	00e587b3          	add	a5,a1,a4
80000588:	0007c783          	lbu	a5,0(a5)
8000058c:	00150513          	addi	a0,a0,1
80000590:	00af06b3          	add	a3,t5,a0
80000594:	0c078463          	beqz	a5,8000065c <vsprintf+0x120>
80000598:	00170e13          	addi	t3,a4,1
8000059c:	00050913          	mv	s2,a0
800005a0:	fc779ee3          	bne	a5,t2,8000057c <vsprintf+0x40>
800005a4:	01c58fb3          	add	t6,a1,t3
800005a8:	000fce83          	lbu	t4,0(t6)
800005ac:	00000993          	li	s3,0
800005b0:	009e9a63          	bne	t4,s1,800005c4 <vsprintf+0x88>
800005b4:	00270e13          	addi	t3,a4,2
800005b8:	01c58fb3          	add	t6,a1,t3
800005bc:	000fce83          	lbu	t4,0(t6)
800005c0:	00100993          	li	s3,1
800005c4:	fd0e8893          	addi	a7,t4,-48
800005c8:	001e0313          	addi	t1,t3,1 # a1000001 <_end+0x1fbf7001>
800005cc:	0ff8f793          	zext.b	a5,a7
800005d0:	00658733          	add	a4,a1,t1
800005d4:	00000813          	li	a6,0
800005d8:	00f2f663          	bgeu	t0,a5,800005e4 <vsprintf+0xa8>
800005dc:	0340006f          	j	80000610 <vsprintf+0xd4>
800005e0:	00130313          	addi	t1,t1,1
800005e4:	00074e83          	lbu	t4,0(a4)
800005e8:	00281793          	slli	a5,a6,0x2
800005ec:	010787b3          	add	a5,a5,a6
800005f0:	00179793          	slli	a5,a5,0x1
800005f4:	00f88833          	add	a6,a7,a5
800005f8:	fd0e8893          	addi	a7,t4,-48
800005fc:	0ff8f793          	zext.b	a5,a7
80000600:	00070f93          	mv	t6,a4
80000604:	00030e13          	mv	t3,t1
80000608:	00170713          	addi	a4,a4,1
8000060c:	fcf2fae3          	bgeu	t0,a5,800005e0 <vsprintf+0xa4>
80000610:	088e8863          	beq	t4,s0,800006a0 <vsprintf+0x164>
80000614:	07300793          	li	a5,115
80000618:	06fe9063          	bne	t4,a5,80000678 <vsprintf+0x13c>
8000061c:	00062803          	lw	a6,0(a2)
80000620:	00460613          	addi	a2,a2,4
80000624:	02080463          	beqz	a6,8000064c <vsprintf+0x110>
80000628:	00084703          	lbu	a4,0(a6)
8000062c:	02070063          	beqz	a4,8000064c <vsprintf+0x110>
80000630:	00150513          	addi	a0,a0,1
80000634:	00af06b3          	add	a3,t5,a0
80000638:	412507b3          	sub	a5,a0,s2
8000063c:	fee68fa3          	sb	a4,-1(a3)
80000640:	00f807b3          	add	a5,a6,a5
80000644:	0007c703          	lbu	a4,0(a5)
80000648:	fe0714e3          	bnez	a4,80000630 <vsprintf+0xf4>
8000064c:	001e0713          	addi	a4,t3,1
80000650:	00e587b3          	add	a5,a1,a4
80000654:	0007c783          	lbu	a5,0(a5)
80000658:	f40790e3          	bnez	a5,80000598 <vsprintf+0x5c>
8000065c:	00068023          	sb	zero,0(a3)
80000660:	03c12403          	lw	s0,60(sp)
80000664:	03812483          	lw	s1,56(sp)
80000668:	03412903          	lw	s2,52(sp)
8000066c:	03012983          	lw	s3,48(sp)
80000670:	04010113          	addi	sp,sp,64
80000674:	00008067          	ret
80000678:	02500793          	li	a5,37
8000067c:	00f68023          	sb	a5,0(a3)
80000680:	000fc703          	lbu	a4,0(t6)
80000684:	00150793          	addi	a5,a0,1
80000688:	00ff07b3          	add	a5,t5,a5
8000068c:	00250513          	addi	a0,a0,2
80000690:	00e78023          	sb	a4,0(a5)
80000694:	00af06b3          	add	a3,t5,a0
80000698:	001e0713          	addi	a4,t3,1
8000069c:	fb5ff06f          	j	80000650 <vsprintf+0x114>
800006a0:	00062783          	lw	a5,0(a2)
800006a4:	00460613          	addi	a2,a2,4
800006a8:	08079063          	bnez	a5,80000728 <vsprintf+0x1ec>
800006ac:	03000793          	li	a5,48
800006b0:	00f10023          	sb	a5,0(sp)
800006b4:	fff80813          	addi	a6,a6,-1
800006b8:	07005263          	blez	a6,8000071c <vsprintf+0x1e0>
800006bc:	00010893          	mv	a7,sp
800006c0:	04098e63          	beqz	s3,8000071c <vsprintf+0x1e0>
800006c4:	fff80813          	addi	a6,a6,-1
800006c8:	00098313          	mv	t1,s3
800006cc:	001f0793          	addi	a5,t5,1
800006d0:	00a787b3          	add	a5,a5,a0
800006d4:	010787b3          	add	a5,a5,a6
800006d8:	03000713          	li	a4,48
800006dc:	00e68023          	sb	a4,0(a3)
800006e0:	00168693          	addi	a3,a3,1
800006e4:	fed79ce3          	bne	a5,a3,800006dc <vsprintf+0x1a0>
800006e8:	00150513          	addi	a0,a0,1
800006ec:	01050533          	add	a0,a0,a6
800006f0:	00af06b3          	add	a3,t5,a0
800006f4:	006887b3          	add	a5,a7,t1
800006f8:	fff7c703          	lbu	a4,-1(a5)
800006fc:	fff78793          	addi	a5,a5,-1
80000700:	00168693          	addi	a3,a3,1
80000704:	fee68fa3          	sb	a4,-1(a3)
80000708:	fef898e3          	bne	a7,a5,800006f8 <vsprintf+0x1bc>
8000070c:	00a30533          	add	a0,t1,a0
80000710:	00af06b3          	add	a3,t5,a0
80000714:	001e0713          	addi	a4,t3,1
80000718:	f39ff06f          	j	80000650 <vsprintf+0x114>
8000071c:	00100313          	li	t1,1
80000720:	00010893          	mv	a7,sp
80000724:	fd1ff06f          	j	800006f4 <vsprintf+0x1b8>
80000728:	03412623          	sw	s4,44(sp)
8000072c:	00000a13          	li	s4,0
80000730:	0007d663          	bgez	a5,8000073c <vsprintf+0x200>
80000734:	40f007b3          	neg	a5,a5
80000738:	00100a13          	li	s4,1
8000073c:	00000713          	li	a4,0
80000740:	00010893          	mv	a7,sp
80000744:	00a00f93          	li	t6,10
80000748:	03f7e333          	rem	t1,a5,t6
8000074c:	00070e93          	mv	t4,a4
80000750:	00170713          	addi	a4,a4,1
80000754:	00e88933          	add	s2,a7,a4
80000758:	03f7c7b3          	div	a5,a5,t6
8000075c:	03030313          	addi	t1,t1,48
80000760:	fe690fa3          	sb	t1,-1(s2)
80000764:	fe0792e3          	bnez	a5,80000748 <vsprintf+0x20c>
80000768:	000a1e63          	bnez	s4,80000784 <vsprintf+0x248>
8000076c:	40e80833          	sub	a6,a6,a4
80000770:	01005463          	blez	a6,80000778 <vsprintf+0x23c>
80000774:	04099e63          	bnez	s3,800007d0 <vsprintf+0x294>
80000778:	02c12a03          	lw	s4,44(sp)
8000077c:	00070313          	mv	t1,a4
80000780:	f75ff06f          	j	800006f4 <vsprintf+0x1b8>
80000784:	02070793          	addi	a5,a4,32
80000788:	002e8313          	addi	t1,t4,2
8000078c:	002787b3          	add	a5,a5,sp
80000790:	02d00e93          	li	t4,45
80000794:	ffd78023          	sb	t4,-32(a5)
80000798:	40680833          	sub	a6,a6,t1
8000079c:	01005463          	blez	a6,800007a4 <vsprintf+0x268>
800007a0:	00099c63          	bnez	s3,800007b8 <vsprintf+0x27c>
800007a4:	02c12a03          	lw	s4,44(sp)
800007a8:	f4dff06f          	j	800006f4 <vsprintf+0x1b8>
800007ac:	00000513          	li	a0,0
800007b0:	000f0023          	sb	zero,0(t5)
800007b4:	00008067          	ret
800007b8:	01d68023          	sb	t4,0(a3)
800007bc:	00150513          	addi	a0,a0,1
800007c0:	02c12a03          	lw	s4,44(sp)
800007c4:	00070313          	mv	t1,a4
800007c8:	00af06b3          	add	a3,t5,a0
800007cc:	f01ff06f          	j	800006cc <vsprintf+0x190>
800007d0:	02c12a03          	lw	s4,44(sp)
800007d4:	00070993          	mv	s3,a4
800007d8:	eedff06f          	j	800006c4 <vsprintf+0x188>

800007dc <printf>:
800007dc:	fb010113          	addi	sp,sp,-80
800007e0:	00001e37          	lui	t3,0x1
800007e4:	fffff2b7          	lui	t0,0xfffff
800007e8:	02912223          	sw	s1,36(sp)
800007ec:	02112623          	sw	ra,44(sp)
800007f0:	02812423          	sw	s0,40(sp)
800007f4:	fffff337          	lui	t1,0xfffff
800007f8:	00510133          	add	sp,sp,t0
800007fc:	010e0e93          	addi	t4,t3,16 # 1010 <_entry_offset+0x1010>
80000800:	006e8eb3          	add	t4,t4,t1
80000804:	01010313          	addi	t1,sp,16
80000808:	01010f13          	addi	t5,sp,16
8000080c:	006e8333          	add	t1,t4,t1
80000810:	024e0e93          	addi	t4,t3,36
80000814:	00612623          	sw	t1,12(sp)
80000818:	01ee8eb3          	add	t4,t4,t5
8000081c:	00bea023          	sw	a1,0(t4)
80000820:	028e0593          	addi	a1,t3,40
80000824:	01e585b3          	add	a1,a1,t5
80000828:	02ce0e93          	addi	t4,t3,44
8000082c:	00c5a023          	sw	a2,0(a1)
80000830:	01ee8eb3          	add	t4,t4,t5
80000834:	034e0313          	addi	t1,t3,52
80000838:	00050593          	mv	a1,a0
8000083c:	00c12503          	lw	a0,12(sp)
80000840:	00dea023          	sw	a3,0(t4)
80000844:	000e0693          	mv	a3,t3
80000848:	030e0e13          	addi	t3,t3,48
8000084c:	01ee0e33          	add	t3,t3,t5
80000850:	00ee2023          	sw	a4,0(t3)
80000854:	00068713          	mv	a4,a3
80000858:	03468693          	addi	a3,a3,52
8000085c:	01e686b3          	add	a3,a3,t5
80000860:	00f6a023          	sw	a5,0(a3)
80000864:	00070793          	mv	a5,a4
80000868:	03870713          	addi	a4,a4,56
8000086c:	01e70733          	add	a4,a4,t5
80000870:	03c78793          	addi	a5,a5,60
80000874:	01072023          	sw	a6,0(a4)
80000878:	01e787b3          	add	a5,a5,t5
8000087c:	0117a023          	sw	a7,0(a5)
80000880:	00c12783          	lw	a5,12(sp)
80000884:	00230333          	add	t1,t1,sp
80000888:	00030613          	mv	a2,t1
8000088c:	fe67ae23          	sw	t1,-4(a5)
80000890:	cadff0ef          	jal	8000053c <vsprintf>
80000894:	00c12783          	lw	a5,12(sp)
80000898:	00050493          	mv	s1,a0
8000089c:	0007c503          	lbu	a0,0(a5)
800008a0:	00050c63          	beqz	a0,800008b8 <printf+0xdc>
800008a4:	00178413          	addi	s0,a5,1
800008a8:	979ff0ef          	jal	80000220 <putch>
800008ac:	00044503          	lbu	a0,0(s0)
800008b0:	00140413          	addi	s0,s0,1
800008b4:	fe051ae3          	bnez	a0,800008a8 <printf+0xcc>
800008b8:	000012b7          	lui	t0,0x1
800008bc:	00510133          	add	sp,sp,t0
800008c0:	02c12083          	lw	ra,44(sp)
800008c4:	00048513          	mv	a0,s1
800008c8:	02812403          	lw	s0,40(sp)
800008cc:	02412483          	lw	s1,36(sp)
800008d0:	05010113          	addi	sp,sp,80
800008d4:	00008067          	ret
