
/home/jinghanhui/ysyx-workbench/am-kernels/kernels/yield-os/build/yield-os-riscv32e-nemu.elf:     file format elf32-littleriscv


Disassembly of section .text:

80000000 <_start>:
80000000:	00000413          	li	s0,0
80000004:	00021117          	auipc	sp,0x21
80000008:	ffc10113          	addi	sp,sp,-4 # 80021000 <_end>
8000000c:	188000ef          	jal	80000194 <_trm_init>

80000010 <schedule>:
80000010:	00001717          	auipc	a4,0x1
80000014:	8a870713          	addi	a4,a4,-1880 # 800008b8 <current>
80000018:	00072683          	lw	a3,0(a4)
8000001c:	00009797          	auipc	a5,0x9
80000020:	8a078793          	addi	a5,a5,-1888 # 800088bc <pcb>
80000024:	00b6a023          	sw	a1,0(a3)
80000028:	00f68863          	beq	a3,a5,80000038 <schedule+0x28>
8000002c:	0007a503          	lw	a0,0(a5)
80000030:	00f72023          	sw	a5,0(a4)
80000034:	00008067          	ret
80000038:	00011797          	auipc	a5,0x11
8000003c:	88478793          	addi	a5,a5,-1916 # 800108bc <pcb+0x8000>
80000040:	0007a503          	lw	a0,0(a5)
80000044:	00f72023          	sw	a5,0(a4)
80000048:	00008067          	ret

8000004c <f>:
8000004c:	00353793          	sltiu	a5,a0,3
80000050:	40f007b3          	neg	a5,a5
80000054:	00f57533          	and	a0,a0,a5
80000058:	00000797          	auipc	a5,0x0
8000005c:	77878793          	addi	a5,a5,1912 # 800007d0 <_etext>
80000060:	ff010113          	addi	sp,sp,-16
80000064:	00a787b3          	add	a5,a5,a0
80000068:	00812423          	sw	s0,8(sp)
8000006c:	0007c403          	lbu	s0,0(a5)
80000070:	00112623          	sw	ra,12(sp)
80000074:	00040513          	mv	a0,s0
80000078:	104000ef          	jal	8000017c <putch>
8000007c:	00012023          	sw	zero,0(sp)
80000080:	00012703          	lw	a4,0(sp)
80000084:	000187b7          	lui	a5,0x18
80000088:	69f78793          	addi	a5,a5,1695 # 1869f <_entry_offset+0x1869f>
8000008c:	00e7ce63          	blt	a5,a4,800000a8 <f+0x5c>
80000090:	00078713          	mv	a4,a5
80000094:	00012783          	lw	a5,0(sp)
80000098:	00178793          	addi	a5,a5,1
8000009c:	00f12023          	sw	a5,0(sp)
800000a0:	00012783          	lw	a5,0(sp)
800000a4:	fef758e3          	bge	a4,a5,80000094 <f+0x48>
800000a8:	230000ef          	jal	800002d8 <yield>
800000ac:	fc9ff06f          	j	80000074 <f+0x28>

800000b0 <main>:
800000b0:	fe410113          	addi	sp,sp,-28
800000b4:	00000517          	auipc	a0,0x0
800000b8:	f5c50513          	addi	a0,a0,-164 # 80000010 <schedule>
800000bc:	00112c23          	sw	ra,24(sp)
800000c0:	00812a23          	sw	s0,20(sp)
800000c4:	00912823          	sw	s1,16(sp)
800000c8:	00010417          	auipc	s0,0x10
800000cc:	7f440413          	addi	s0,s0,2036 # 800108bc <pcb+0x8000>
800000d0:	188000ef          	jal	80000258 <cte_init>
800000d4:	00008497          	auipc	s1,0x8
800000d8:	7e848493          	addi	s1,s1,2024 # 800088bc <pcb>
800000dc:	00040593          	mv	a1,s0
800000e0:	00100693          	li	a3,1
800000e4:	00000617          	auipc	a2,0x0
800000e8:	f6860613          	addi	a2,a2,-152 # 8000004c <f>
800000ec:	00048513          	mv	a0,s1
800000f0:	188000ef          	jal	80000278 <kcontext>
800000f4:	00050793          	mv	a5,a0
800000f8:	00200693          	li	a3,2
800000fc:	00000617          	auipc	a2,0x0
80000100:	f5060613          	addi	a2,a2,-176 # 8000004c <f>
80000104:	00040513          	mv	a0,s0
80000108:	00018597          	auipc	a1,0x18
8000010c:	7b458593          	addi	a1,a1,1972 # 800188bc <user_handler>
80000110:	00f4a023          	sw	a5,0(s1)
80000114:	164000ef          	jal	80000278 <kcontext>
80000118:	00a42023          	sw	a0,0(s0)
8000011c:	1bc000ef          	jal	800002d8 <yield>
80000120:	00000417          	auipc	s0,0x0
80000124:	6b440413          	addi	s0,s0,1716 # 800007d4 <_etext+0x4>
80000128:	04100513          	li	a0,65
8000012c:	050000ef          	jal	8000017c <putch>
80000130:	00144503          	lbu	a0,1(s0)
80000134:	00140413          	addi	s0,s0,1
80000138:	fe051ae3          	bnez	a0,8000012c <main+0x7c>
8000013c:	00000417          	auipc	s0,0x0
80000140:	6a840413          	addi	s0,s0,1704 # 800007e4 <_etext+0x14>
80000144:	05300513          	li	a0,83
80000148:	034000ef          	jal	8000017c <putch>
8000014c:	00144503          	lbu	a0,1(s0)
80000150:	00140413          	addi	s0,s0,1
80000154:	fe051ae3          	bnez	a0,80000148 <main+0x98>
80000158:	00000417          	auipc	s0,0x0
8000015c:	6a440413          	addi	s0,s0,1700 # 800007fc <_etext+0x2c>
80000160:	02000513          	li	a0,32
80000164:	018000ef          	jal	8000017c <putch>
80000168:	00144503          	lbu	a0,1(s0)
8000016c:	00140413          	addi	s0,s0,1
80000170:	fe051ae3          	bnez	a0,80000164 <main+0xb4>
80000174:	00100513          	li	a0,1
80000178:	010000ef          	jal	80000188 <halt>

8000017c <putch>:
8000017c:	a00007b7          	lui	a5,0xa0000
80000180:	3ea78c23          	sb	a0,1016(a5) # a00003f8 <_end+0x1ffdf3f8>
80000184:	00008067          	ret

80000188 <halt>:
80000188:	00050513          	mv	a0,a0
8000018c:	00100073          	ebreak
80000190:	0000006f          	j	80000190 <halt+0x8>

80000194 <_trm_init>:
80000194:	ff410113          	addi	sp,sp,-12
80000198:	00000517          	auipc	a0,0x0
8000019c:	71c50513          	addi	a0,a0,1820 # 800008b4 <mainargs>
800001a0:	00112423          	sw	ra,8(sp)
800001a4:	f0dff0ef          	jal	800000b0 <main>
800001a8:	00050513          	mv	a0,a0
800001ac:	00100073          	ebreak
800001b0:	0000006f          	j	800001b0 <_trm_init+0x1c>

800001b4 <__am_irq_handle>:
800001b4:	00018797          	auipc	a5,0x18
800001b8:	7087a783          	lw	a5,1800(a5) # 800188bc <user_handler>
800001bc:	00050593          	mv	a1,a0
800001c0:	06078a63          	beqz	a5,80000234 <__am_irq_handle+0x80>
800001c4:	04052603          	lw	a2,64(a0)
800001c8:	fd410113          	addi	sp,sp,-44
800001cc:	02112423          	sw	ra,40(sp)
800001d0:	00012a23          	sw	zero,20(sp)
800001d4:	00012c23          	sw	zero,24(sp)
800001d8:	00012e23          	sw	zero,28(sp)
800001dc:	00b00693          	li	a3,11
800001e0:	00400713          	li	a4,4
800001e4:	02d60c63          	beq	a2,a3,8000021c <__am_irq_handle+0x68>
800001e8:	00e12023          	sw	a4,0(sp)
800001ec:	01412703          	lw	a4,20(sp)
800001f0:	00010513          	mv	a0,sp
800001f4:	00e12223          	sw	a4,4(sp)
800001f8:	01812703          	lw	a4,24(sp)
800001fc:	00e12423          	sw	a4,8(sp)
80000200:	01c12703          	lw	a4,28(sp)
80000204:	00e12623          	sw	a4,12(sp)
80000208:	000780e7          	jalr	a5
8000020c:	02050663          	beqz	a0,80000238 <__am_irq_handle+0x84>
80000210:	02812083          	lw	ra,40(sp)
80000214:	02c10113          	addi	sp,sp,44
80000218:	00008067          	ret
8000021c:	03c52603          	lw	a2,60(a0)
80000220:	fff00693          	li	a3,-1
80000224:	00100713          	li	a4,1
80000228:	fcd600e3          	beq	a2,a3,800001e8 <__am_irq_handle+0x34>
8000022c:	00400713          	li	a4,4
80000230:	fb9ff06f          	j	800001e8 <__am_irq_handle+0x34>
80000234:	00008067          	ret
80000238:	02900613          	li	a2,41
8000023c:	00000597          	auipc	a1,0x0
80000240:	61058593          	addi	a1,a1,1552 # 8000084c <_etext+0x7c>
80000244:	00000517          	auipc	a0,0x0
80000248:	65450513          	addi	a0,a0,1620 # 80000898 <_etext+0xc8>
8000024c:	4a8000ef          	jal	800006f4 <printf>
80000250:	00100513          	li	a0,1
80000254:	f35ff0ef          	jal	80000188 <halt>

80000258 <cte_init>:
80000258:	00050793          	mv	a5,a0
8000025c:	00000717          	auipc	a4,0x0
80000260:	08c70713          	addi	a4,a4,140 # 800002e8 <__am_asm_trap>
80000264:	30571073          	csrw	mtvec,a4
80000268:	00100513          	li	a0,1
8000026c:	00018717          	auipc	a4,0x18
80000270:	64f72823          	sw	a5,1616(a4) # 800188bc <user_handler>
80000274:	00008067          	ret

80000278 <kcontext>:
80000278:	fe410113          	addi	sp,sp,-28
8000027c:	00912823          	sw	s1,16(sp)
80000280:	fb058493          	addi	s1,a1,-80
80000284:	00812a23          	sw	s0,20(sp)
80000288:	00060793          	mv	a5,a2
8000028c:	00058413          	mv	s0,a1
80000290:	00048513          	mv	a0,s1
80000294:	05000613          	li	a2,80
80000298:	00000593          	li	a1,0
8000029c:	00112c23          	sw	ra,24(sp)
800002a0:	00f12223          	sw	a5,4(sp)
800002a4:	00d12023          	sw	a3,0(sp)
800002a8:	104000ef          	jal	800003ac <memset>
800002ac:	00412783          	lw	a5,4(sp)
800002b0:	00012683          	lw	a3,0(sp)
800002b4:	fa942c23          	sw	s1,-72(s0)
800002b8:	01812083          	lw	ra,24(sp)
800002bc:	fef42c23          	sw	a5,-8(s0)
800002c0:	fcd42c23          	sw	a3,-40(s0)
800002c4:	01412403          	lw	s0,20(sp)
800002c8:	00048513          	mv	a0,s1
800002cc:	01012483          	lw	s1,16(sp)
800002d0:	01c10113          	addi	sp,sp,28
800002d4:	00008067          	ret

800002d8 <yield>:
800002d8:	fff00793          	li	a5,-1
800002dc:	00000073          	ecall
800002e0:	00008067          	ret
800002e4:	0000                	.insn	2, 0x
	...

800002e8 <__am_asm_trap>:
800002e8:	00010293          	mv	t0,sp
800002ec:	fb410113          	addi	sp,sp,-76
800002f0:	00112223          	sw	ra,4(sp)
800002f4:	00312623          	sw	gp,12(sp)
800002f8:	00412823          	sw	tp,16(sp)
800002fc:	00512a23          	sw	t0,20(sp)
80000300:	00612c23          	sw	t1,24(sp)
80000304:	00712e23          	sw	t2,28(sp)
80000308:	02812023          	sw	s0,32(sp)
8000030c:	02912223          	sw	s1,36(sp)
80000310:	02a12423          	sw	a0,40(sp)
80000314:	02b12623          	sw	a1,44(sp)
80000318:	02c12823          	sw	a2,48(sp)
8000031c:	02d12a23          	sw	a3,52(sp)
80000320:	02e12c23          	sw	a4,56(sp)
80000324:	02f12e23          	sw	a5,60(sp)
80000328:	00512423          	sw	t0,8(sp)
8000032c:	342022f3          	csrr	t0,mcause
80000330:	30002373          	csrr	t1,mstatus
80000334:	341023f3          	csrr	t2,mepc
80000338:	04512023          	sw	t0,64(sp)
8000033c:	04612223          	sw	t1,68(sp)
80000340:	04712423          	sw	t2,72(sp)
80000344:	00020537          	lui	a0,0x20
80000348:	00a36333          	or	t1,t1,a0
8000034c:	30031073          	csrw	mstatus,t1
80000350:	00010513          	mv	a0,sp
80000354:	e61ff0ef          	jal	800001b4 <__am_irq_handle>
80000358:	00050113          	mv	sp,a0
8000035c:	04412303          	lw	t1,68(sp)
80000360:	04812383          	lw	t2,72(sp)
80000364:	30031073          	csrw	mstatus,t1
80000368:	34139073          	csrw	mepc,t2
8000036c:	00412083          	lw	ra,4(sp)
80000370:	00c12183          	lw	gp,12(sp)
80000374:	01012203          	lw	tp,16(sp)
80000378:	01412283          	lw	t0,20(sp)
8000037c:	01812303          	lw	t1,24(sp)
80000380:	01c12383          	lw	t2,28(sp)
80000384:	02012403          	lw	s0,32(sp)
80000388:	02412483          	lw	s1,36(sp)
8000038c:	02812503          	lw	a0,40(sp)
80000390:	02c12583          	lw	a1,44(sp)
80000394:	03012603          	lw	a2,48(sp)
80000398:	03412683          	lw	a3,52(sp)
8000039c:	03812703          	lw	a4,56(sp)
800003a0:	03c12783          	lw	a5,60(sp)
800003a4:	00812103          	lw	sp,8(sp)
800003a8:	30200073          	mret

800003ac <memset>:
800003ac:	0ff5f593          	zext.b	a1,a1
800003b0:	00c50733          	add	a4,a0,a2
800003b4:	00050793          	mv	a5,a0
800003b8:	00060863          	beqz	a2,800003c8 <memset+0x1c>
800003bc:	00b78023          	sb	a1,0(a5)
800003c0:	00178793          	addi	a5,a5,1
800003c4:	fef71ce3          	bne	a4,a5,800003bc <memset+0x10>
800003c8:	00008067          	ret

800003cc <vsprintf>:
800003cc:	0005c683          	lbu	a3,0(a1)
800003d0:	fc410113          	addi	sp,sp,-60
800003d4:	00c12423          	sw	a2,8(sp)
800003d8:	00050293          	mv	t0,a0
800003dc:	2e068e63          	beqz	a3,800006d8 <vsprintf+0x30c>
800003e0:	02812c23          	sw	s0,56(sp)
800003e4:	02912a23          	sw	s1,52(sp)
800003e8:	00000793          	li	a5,0
800003ec:	00012023          	sw	zero,0(sp)
800003f0:	00050393          	mv	t2,a0
800003f4:	00b12223          	sw	a1,4(sp)
800003f8:	02c0006f          	j	80000424 <vsprintf+0x58>
800003fc:	00012783          	lw	a5,0(sp)
80000400:	00d38023          	sb	a3,0(t2)
80000404:	00178713          	addi	a4,a5,1
80000408:	00e12023          	sw	a4,0(sp)
8000040c:	00e283b3          	add	t2,t0,a4
80000410:	00412703          	lw	a4,4(sp)
80000414:	00050793          	mv	a5,a0
80000418:	00f706b3          	add	a3,a4,a5
8000041c:	0006c683          	lbu	a3,0(a3)
80000420:	10068c63          	beqz	a3,80000538 <vsprintf+0x16c>
80000424:	02500713          	li	a4,37
80000428:	00012483          	lw	s1,0(sp)
8000042c:	00178513          	addi	a0,a5,1
80000430:	fce696e3          	bne	a3,a4,800003fc <vsprintf+0x30>
80000434:	00412703          	lw	a4,4(sp)
80000438:	00012823          	sw	zero,16(sp)
8000043c:	00a70433          	add	s0,a4,a0
80000440:	00044303          	lbu	t1,0(s0)
80000444:	03000713          	li	a4,48
80000448:	00e31e63          	bne	t1,a4,80000464 <vsprintf+0x98>
8000044c:	00278513          	addi	a0,a5,2
80000450:	00412783          	lw	a5,4(sp)
80000454:	00a78433          	add	s0,a5,a0
80000458:	00044303          	lbu	t1,0(s0)
8000045c:	00100793          	li	a5,1
80000460:	00f12823          	sw	a5,16(sp)
80000464:	00412703          	lw	a4,4(sp)
80000468:	00150593          	addi	a1,a0,1 # 20001 <_entry_offset+0x20001>
8000046c:	fd030613          	addi	a2,t1,-48
80000470:	00b70733          	add	a4,a4,a1
80000474:	00e12623          	sw	a4,12(sp)
80000478:	0ff67793          	zext.b	a5,a2
8000047c:	00900693          	li	a3,9
80000480:	00000713          	li	a4,0
80000484:	04f6e863          	bltu	a3,a5,800004d4 <vsprintf+0x108>
80000488:	00c12683          	lw	a3,12(sp)
8000048c:	00070793          	mv	a5,a4
80000490:	00512623          	sw	t0,12(sp)
80000494:	0080006f          	j	8000049c <vsprintf+0xd0>
80000498:	00158593          	addi	a1,a1,1
8000049c:	0006c303          	lbu	t1,0(a3)
800004a0:	00279713          	slli	a4,a5,0x2
800004a4:	00f70733          	add	a4,a4,a5
800004a8:	00171713          	slli	a4,a4,0x1
800004ac:	00e607b3          	add	a5,a2,a4
800004b0:	fd030613          	addi	a2,t1,-48
800004b4:	0ff67713          	zext.b	a4,a2
800004b8:	00900293          	li	t0,9
800004bc:	00068413          	mv	s0,a3
800004c0:	00058513          	mv	a0,a1
800004c4:	00168693          	addi	a3,a3,1
800004c8:	fce2f8e3          	bgeu	t0,a4,80000498 <vsprintf+0xcc>
800004cc:	00c12283          	lw	t0,12(sp)
800004d0:	00078713          	mv	a4,a5
800004d4:	06400793          	li	a5,100
800004d8:	0af30663          	beq	t1,a5,80000584 <vsprintf+0x1b8>
800004dc:	07300793          	li	a5,115
800004e0:	06f31a63          	bne	t1,a5,80000554 <vsprintf+0x188>
800004e4:	00812783          	lw	a5,8(sp)
800004e8:	0007a603          	lw	a2,0(a5)
800004ec:	00478593          	addi	a1,a5,4
800004f0:	02060863          	beqz	a2,80000520 <vsprintf+0x154>
800004f4:	00064683          	lbu	a3,0(a2)
800004f8:	02068463          	beqz	a3,80000520 <vsprintf+0x154>
800004fc:	00012783          	lw	a5,0(sp)
80000500:	00178793          	addi	a5,a5,1
80000504:	00f283b3          	add	t2,t0,a5
80000508:	40978733          	sub	a4,a5,s1
8000050c:	fed38fa3          	sb	a3,-1(t2)
80000510:	00e60733          	add	a4,a2,a4
80000514:	00074683          	lbu	a3,0(a4)
80000518:	fe0694e3          	bnez	a3,80000500 <vsprintf+0x134>
8000051c:	00f12023          	sw	a5,0(sp)
80000520:	00b12423          	sw	a1,8(sp)
80000524:	00150793          	addi	a5,a0,1
80000528:	00412703          	lw	a4,4(sp)
8000052c:	00f706b3          	add	a3,a4,a5
80000530:	0006c683          	lbu	a3,0(a3)
80000534:	ee0698e3          	bnez	a3,80000424 <vsprintf+0x58>
80000538:	03812403          	lw	s0,56(sp)
8000053c:	00038293          	mv	t0,t2
80000540:	03412483          	lw	s1,52(sp)
80000544:	00028023          	sb	zero,0(t0)
80000548:	00012503          	lw	a0,0(sp)
8000054c:	03c10113          	addi	sp,sp,60
80000550:	00008067          	ret
80000554:	00012703          	lw	a4,0(sp)
80000558:	02500793          	li	a5,37
8000055c:	00f38023          	sb	a5,0(t2)
80000560:	00044683          	lbu	a3,0(s0)
80000564:	00170793          	addi	a5,a4,1
80000568:	00f287b3          	add	a5,t0,a5
8000056c:	00270713          	addi	a4,a4,2
80000570:	00d78023          	sb	a3,0(a5)
80000574:	00e12023          	sw	a4,0(sp)
80000578:	00e283b3          	add	t2,t0,a4
8000057c:	00150793          	addi	a5,a0,1
80000580:	fa9ff06f          	j	80000528 <vsprintf+0x15c>
80000584:	00812783          	lw	a5,8(sp)
80000588:	0007a683          	lw	a3,0(a5)
8000058c:	00478413          	addi	s0,a5,4
80000590:	08069e63          	bnez	a3,8000062c <vsprintf+0x260>
80000594:	03000693          	li	a3,48
80000598:	00d10a23          	sb	a3,20(sp)
8000059c:	fff70793          	addi	a5,a4,-1
800005a0:	08f05063          	blez	a5,80000620 <vsprintf+0x254>
800005a4:	01012703          	lw	a4,16(sp)
800005a8:	01410493          	addi	s1,sp,20
800005ac:	06070a63          	beqz	a4,80000620 <vsprintf+0x254>
800005b0:	01012303          	lw	t1,16(sp)
800005b4:	fff78793          	addi	a5,a5,-1
800005b8:	00012703          	lw	a4,0(sp)
800005bc:	00128693          	addi	a3,t0,1
800005c0:	03000613          	li	a2,48
800005c4:	00e686b3          	add	a3,a3,a4
800005c8:	00f686b3          	add	a3,a3,a5
800005cc:	00c38023          	sb	a2,0(t2)
800005d0:	00138393          	addi	t2,t2,1
800005d4:	fe769ce3          	bne	a3,t2,800005cc <vsprintf+0x200>
800005d8:	00012703          	lw	a4,0(sp)
800005dc:	00170713          	addi	a4,a4,1
800005e0:	00f707b3          	add	a5,a4,a5
800005e4:	00f12023          	sw	a5,0(sp)
800005e8:	00f283b3          	add	t2,t0,a5
800005ec:	006487b3          	add	a5,s1,t1
800005f0:	fff7c703          	lbu	a4,-1(a5)
800005f4:	fff78793          	addi	a5,a5,-1
800005f8:	00138393          	addi	t2,t2,1
800005fc:	fee38fa3          	sb	a4,-1(t2)
80000600:	fef498e3          	bne	s1,a5,800005f0 <vsprintf+0x224>
80000604:	00012783          	lw	a5,0(sp)
80000608:	00812423          	sw	s0,8(sp)
8000060c:	00f307b3          	add	a5,t1,a5
80000610:	00f12023          	sw	a5,0(sp)
80000614:	00f283b3          	add	t2,t0,a5
80000618:	00150793          	addi	a5,a0,1
8000061c:	f0dff06f          	j	80000528 <vsprintf+0x15c>
80000620:	00100313          	li	t1,1
80000624:	01410493          	addi	s1,sp,20
80000628:	fc5ff06f          	j	800005ec <vsprintf+0x220>
8000062c:	00000793          	li	a5,0
80000630:	0006d663          	bgez	a3,8000063c <vsprintf+0x270>
80000634:	40d006b3          	neg	a3,a3
80000638:	00100793          	li	a5,1
8000063c:	00000613          	li	a2,0
80000640:	01410493          	addi	s1,sp,20
80000644:	00a00593          	li	a1,10
80000648:	00e12423          	sw	a4,8(sp)
8000064c:	00a12623          	sw	a0,12(sp)
80000650:	02b6e733          	rem	a4,a3,a1
80000654:	00060313          	mv	t1,a2
80000658:	00160613          	addi	a2,a2,1
8000065c:	00c48533          	add	a0,s1,a2
80000660:	02b6c6b3          	div	a3,a3,a1
80000664:	03070713          	addi	a4,a4,48
80000668:	fee50fa3          	sb	a4,-1(a0)
8000066c:	fe0692e3          	bnez	a3,80000650 <vsprintf+0x284>
80000670:	00812703          	lw	a4,8(sp)
80000674:	00c12503          	lw	a0,12(sp)
80000678:	00079e63          	bnez	a5,80000694 <vsprintf+0x2c8>
8000067c:	40c707b3          	sub	a5,a4,a2
80000680:	00f05663          	blez	a5,8000068c <vsprintf+0x2c0>
80000684:	01012703          	lw	a4,16(sp)
80000688:	06071263          	bnez	a4,800006ec <vsprintf+0x320>
8000068c:	00060313          	mv	t1,a2
80000690:	f5dff06f          	j	800005ec <vsprintf+0x220>
80000694:	02060793          	addi	a5,a2,32
80000698:	01410693          	addi	a3,sp,20
8000069c:	00d786b3          	add	a3,a5,a3
800006a0:	00230313          	addi	t1,t1,2
800006a4:	02d00593          	li	a1,45
800006a8:	feb68023          	sb	a1,-32(a3)
800006ac:	406707b3          	sub	a5,a4,t1
800006b0:	f2f05ee3          	blez	a5,800005ec <vsprintf+0x220>
800006b4:	01012703          	lw	a4,16(sp)
800006b8:	f2070ae3          	beqz	a4,800005ec <vsprintf+0x220>
800006bc:	00012703          	lw	a4,0(sp)
800006c0:	00b38023          	sb	a1,0(t2)
800006c4:	00060313          	mv	t1,a2
800006c8:	00170713          	addi	a4,a4,1
800006cc:	00e12023          	sw	a4,0(sp)
800006d0:	00e283b3          	add	t2,t0,a4
800006d4:	ee5ff06f          	j	800005b8 <vsprintf+0x1ec>
800006d8:	00012023          	sw	zero,0(sp)
800006dc:	00028023          	sb	zero,0(t0)
800006e0:	00012503          	lw	a0,0(sp)
800006e4:	03c10113          	addi	sp,sp,60
800006e8:	00008067          	ret
800006ec:	00c12823          	sw	a2,16(sp)
800006f0:	ec1ff06f          	j	800005b0 <vsprintf+0x1e4>

800006f4 <printf>:
800006f4:	fd810113          	addi	sp,sp,-40
800006f8:	fffff2b7          	lui	t0,0xfffff
800006fc:	00112823          	sw	ra,16(sp)
80000700:	00912423          	sw	s1,8(sp)
80000704:	00812623          	sw	s0,12(sp)
80000708:	00510133          	add	sp,sp,t0
8000070c:	000012b7          	lui	t0,0x1
80000710:	fffff337          	lui	t1,0xfffff
80000714:	00428393          	addi	t2,t0,4 # 1004 <_entry_offset+0x1004>
80000718:	006383b3          	add	t2,t2,t1
8000071c:	00410313          	addi	t1,sp,4
80000720:	00410093          	addi	ra,sp,4
80000724:	00638333          	add	t1,t2,t1
80000728:	01028393          	addi	t2,t0,16
8000072c:	00612023          	sw	t1,0(sp)
80000730:	001383b3          	add	t2,t2,ra
80000734:	00b3a023          	sw	a1,0(t2)
80000738:	01428593          	addi	a1,t0,20
8000073c:	001585b3          	add	a1,a1,ra
80000740:	01828393          	addi	t2,t0,24
80000744:	00c5a023          	sw	a2,0(a1)
80000748:	001383b3          	add	t2,t2,ra
8000074c:	01428313          	addi	t1,t0,20
80000750:	00050593          	mv	a1,a0
80000754:	00012503          	lw	a0,0(sp)
80000758:	00d3a023          	sw	a3,0(t2)
8000075c:	00028693          	mv	a3,t0
80000760:	01c28293          	addi	t0,t0,28
80000764:	001282b3          	add	t0,t0,ra
80000768:	00e2a023          	sw	a4,0(t0)
8000076c:	02068713          	addi	a4,a3,32
80000770:	00170733          	add	a4,a4,ra
80000774:	00f72023          	sw	a5,0(a4)
80000778:	00012783          	lw	a5,0(sp)
8000077c:	00230333          	add	t1,t1,sp
80000780:	00030613          	mv	a2,t1
80000784:	fe67ae23          	sw	t1,-4(a5)
80000788:	c45ff0ef          	jal	800003cc <vsprintf>
8000078c:	00012783          	lw	a5,0(sp)
80000790:	00050493          	mv	s1,a0
80000794:	0007c503          	lbu	a0,0(a5)
80000798:	00050c63          	beqz	a0,800007b0 <printf+0xbc>
8000079c:	00178413          	addi	s0,a5,1
800007a0:	9ddff0ef          	jal	8000017c <putch>
800007a4:	00044503          	lbu	a0,0(s0)
800007a8:	00140413          	addi	s0,s0,1
800007ac:	fe051ae3          	bnez	a0,800007a0 <printf+0xac>
800007b0:	000012b7          	lui	t0,0x1
800007b4:	00510133          	add	sp,sp,t0
800007b8:	01012083          	lw	ra,16(sp)
800007bc:	00048513          	mv	a0,s1
800007c0:	00c12403          	lw	s0,12(sp)
800007c4:	00812483          	lw	s1,8(sp)
800007c8:	02810113          	addi	sp,sp,40
800007cc:	00008067          	ret
