
/home/jinghanhui/ysyx-workbench/am-kernels/kernels/yield-os/build/yield-os-riscv32-nemu.elf:     file format elf32-littleriscv


Disassembly of section .text:

80000000 <_start>:
80000000:	00000413          	li	s0,0
80000004:	00021117          	auipc	sp,0x21
80000008:	ffc10113          	addi	sp,sp,-4 # 80021000 <_end>
8000000c:	188000ef          	jal	80000194 <_trm_init>

80000010 <schedule>:
80000010:	00001717          	auipc	a4,0x1
80000014:	95c70713          	addi	a4,a4,-1700 # 8000096c <current>
80000018:	00072683          	lw	a3,0(a4)
8000001c:	00009797          	auipc	a5,0x9
80000020:	95478793          	addi	a5,a5,-1708 # 80008970 <pcb>
80000024:	00b6a023          	sw	a1,0(a3)
80000028:	00f68863          	beq	a3,a5,80000038 <schedule+0x28>
8000002c:	0007a503          	lw	a0,0(a5)
80000030:	00f72023          	sw	a5,0(a4)
80000034:	00008067          	ret
80000038:	00011797          	auipc	a5,0x11
8000003c:	93878793          	addi	a5,a5,-1736 # 80010970 <pcb+0x8000>
80000040:	0007a503          	lw	a0,0(a5)
80000044:	00f72023          	sw	a5,0(a4)
80000048:	00008067          	ret

8000004c <f>:
8000004c:	00353793          	sltiu	a5,a0,3
80000050:	40f007b3          	neg	a5,a5
80000054:	00f57533          	and	a0,a0,a5
80000058:	00001797          	auipc	a5,0x1
8000005c:	82c78793          	addi	a5,a5,-2004 # 80000884 <_etext>
80000060:	fe010113          	addi	sp,sp,-32
80000064:	00a787b3          	add	a5,a5,a0
80000068:	00912a23          	sw	s1,20(sp)
8000006c:	0007c483          	lbu	s1,0(a5)
80000070:	00812c23          	sw	s0,24(sp)
80000074:	00018437          	lui	s0,0x18
80000078:	00112e23          	sw	ra,28(sp)
8000007c:	69f40413          	addi	s0,s0,1695 # 1869f <_entry_offset+0x1869f>
80000080:	00048513          	mv	a0,s1
80000084:	0f8000ef          	jal	8000017c <putch>
80000088:	00012623          	sw	zero,12(sp)
8000008c:	00c12783          	lw	a5,12(sp)
80000090:	00f44c63          	blt	s0,a5,800000a8 <f+0x5c>
80000094:	00c12783          	lw	a5,12(sp)
80000098:	00178793          	addi	a5,a5,1
8000009c:	00f12623          	sw	a5,12(sp)
800000a0:	00c12783          	lw	a5,12(sp)
800000a4:	fef458e3          	bge	s0,a5,80000094 <f+0x48>
800000a8:	22c000ef          	jal	800002d4 <yield>
800000ac:	fd5ff06f          	j	80000080 <f+0x34>

800000b0 <main>:
800000b0:	fe010113          	addi	sp,sp,-32
800000b4:	00000517          	auipc	a0,0x0
800000b8:	f5c50513          	addi	a0,a0,-164 # 80000010 <schedule>
800000bc:	00112e23          	sw	ra,28(sp)
800000c0:	00812c23          	sw	s0,24(sp)
800000c4:	00912a23          	sw	s1,20(sp)
800000c8:	00011417          	auipc	s0,0x11
800000cc:	8a840413          	addi	s0,s0,-1880 # 80010970 <pcb+0x8000>
800000d0:	19c000ef          	jal	8000026c <cte_init>
800000d4:	00009497          	auipc	s1,0x9
800000d8:	89c48493          	addi	s1,s1,-1892 # 80008970 <pcb>
800000dc:	00040593          	mv	a1,s0
800000e0:	00100693          	li	a3,1
800000e4:	00000617          	auipc	a2,0x0
800000e8:	f6860613          	addi	a2,a2,-152 # 8000004c <f>
800000ec:	00048513          	mv	a0,s1
800000f0:	19c000ef          	jal	8000028c <kcontext>
800000f4:	00050793          	mv	a5,a0
800000f8:	00200693          	li	a3,2
800000fc:	00000617          	auipc	a2,0x0
80000100:	f5060613          	addi	a2,a2,-176 # 8000004c <f>
80000104:	00040513          	mv	a0,s0
80000108:	00019597          	auipc	a1,0x19
8000010c:	86858593          	addi	a1,a1,-1944 # 80018970 <user_handler>
80000110:	00f4a023          	sw	a5,0(s1)
80000114:	178000ef          	jal	8000028c <kcontext>
80000118:	00a42023          	sw	a0,0(s0)
8000011c:	1b8000ef          	jal	800002d4 <yield>
80000120:	00000417          	auipc	s0,0x0
80000124:	76840413          	addi	s0,s0,1896 # 80000888 <_etext+0x4>
80000128:	04100513          	li	a0,65
8000012c:	050000ef          	jal	8000017c <putch>
80000130:	00144503          	lbu	a0,1(s0)
80000134:	00140413          	addi	s0,s0,1
80000138:	fe051ae3          	bnez	a0,8000012c <main+0x7c>
8000013c:	00000417          	auipc	s0,0x0
80000140:	75c40413          	addi	s0,s0,1884 # 80000898 <_etext+0x14>
80000144:	05300513          	li	a0,83
80000148:	034000ef          	jal	8000017c <putch>
8000014c:	00144503          	lbu	a0,1(s0)
80000150:	00140413          	addi	s0,s0,1
80000154:	fe051ae3          	bnez	a0,80000148 <main+0x98>
80000158:	00000417          	auipc	s0,0x0
8000015c:	75840413          	addi	s0,s0,1880 # 800008b0 <_etext+0x2c>
80000160:	02000513          	li	a0,32
80000164:	018000ef          	jal	8000017c <putch>
80000168:	00144503          	lbu	a0,1(s0)
8000016c:	00140413          	addi	s0,s0,1
80000170:	fe051ae3          	bnez	a0,80000164 <main+0xb4>
80000174:	00100513          	li	a0,1
80000178:	010000ef          	jal	80000188 <halt>

8000017c <putch>:
8000017c:	a00007b7          	lui	a5,0xa0000
80000180:	3ea78c23          	sb	a0,1016(a5) # a00003f8 <_end+0x1ffdf3f8>
80000184:	00008067          	ret

80000188 <halt>:
80000188:	00050513          	mv	a0,a0
8000018c:	00100073          	ebreak
80000190:	0000006f          	j	80000190 <halt+0x8>

80000194 <_trm_init>:
80000194:	ff010113          	addi	sp,sp,-16
80000198:	00000517          	auipc	a0,0x0
8000019c:	7d050513          	addi	a0,a0,2000 # 80000968 <mainargs>
800001a0:	00112623          	sw	ra,12(sp)
800001a4:	f0dff0ef          	jal	800000b0 <main>
800001a8:	00050513          	mv	a0,a0
800001ac:	00100073          	ebreak
800001b0:	0000006f          	j	800001b0 <_trm_init+0x1c>

800001b4 <__am_irq_handle>:
800001b4:	00018797          	auipc	a5,0x18
800001b8:	7bc7a783          	lw	a5,1980(a5) # 80018970 <user_handler>
800001bc:	00050593          	mv	a1,a0
800001c0:	08078463          	beqz	a5,80000248 <__am_irq_handle+0x94>
800001c4:	08052683          	lw	a3,128(a0)
800001c8:	fd010113          	addi	sp,sp,-48
800001cc:	02112623          	sw	ra,44(sp)
800001d0:	00012a23          	sw	zero,20(sp)
800001d4:	00012c23          	sw	zero,24(sp)
800001d8:	00012e23          	sw	zero,28(sp)
800001dc:	00b00713          	li	a4,11
800001e0:	04e68263          	beq	a3,a4,80000224 <__am_irq_handle+0x70>
800001e4:	00400713          	li	a4,4
800001e8:	00e12823          	sw	a4,16(sp)
800001ec:	01012703          	lw	a4,16(sp)
800001f0:	00010513          	mv	a0,sp
800001f4:	00e12023          	sw	a4,0(sp)
800001f8:	01412703          	lw	a4,20(sp)
800001fc:	00e12223          	sw	a4,4(sp)
80000200:	01812703          	lw	a4,24(sp)
80000204:	00e12423          	sw	a4,8(sp)
80000208:	01c12703          	lw	a4,28(sp)
8000020c:	00e12623          	sw	a4,12(sp)
80000210:	000780e7          	jalr	a5
80000214:	02050c63          	beqz	a0,8000024c <__am_irq_handle+0x98>
80000218:	02c12083          	lw	ra,44(sp)
8000021c:	03010113          	addi	sp,sp,48
80000220:	00008067          	ret
80000224:	04452683          	lw	a3,68(a0)
80000228:	fff00713          	li	a4,-1
8000022c:	fae69ce3          	bne	a3,a4,800001e4 <__am_irq_handle+0x30>
80000230:	08852703          	lw	a4,136(a0)
80000234:	00100693          	li	a3,1
80000238:	00d12823          	sw	a3,16(sp)
8000023c:	00470713          	addi	a4,a4,4
80000240:	08e52423          	sw	a4,136(a0)
80000244:	fa9ff06f          	j	800001ec <__am_irq_handle+0x38>
80000248:	00008067          	ret
8000024c:	02a00613          	li	a2,42
80000250:	00000597          	auipc	a1,0x0
80000254:	6b058593          	addi	a1,a1,1712 # 80000900 <_etext+0x7c>
80000258:	00000517          	auipc	a0,0x0
8000025c:	6f450513          	addi	a0,a0,1780 # 8000094c <_etext+0xc8>
80000260:	528000ef          	jal	80000788 <printf>
80000264:	00100513          	li	a0,1
80000268:	f21ff0ef          	jal	80000188 <halt>

8000026c <cte_init>:
8000026c:	00050793          	mv	a5,a0
80000270:	00000717          	auipc	a4,0x0
80000274:	07070713          	addi	a4,a4,112 # 800002e0 <__am_asm_trap>
80000278:	30571073          	csrw	mtvec,a4
8000027c:	00100513          	li	a0,1
80000280:	00018717          	auipc	a4,0x18
80000284:	6ef72823          	sw	a5,1776(a4) # 80018970 <user_handler>
80000288:	00008067          	ret

8000028c <kcontext>:
8000028c:	f7058513          	addi	a0,a1,-144
80000290:	ff010113          	addi	sp,sp,-16
80000294:	ff058713          	addi	a4,a1,-16
80000298:	00050793          	mv	a5,a0
8000029c:	0007a023          	sw	zero,0(a5)
800002a0:	00478793          	addi	a5,a5,4
800002a4:	fee79ce3          	bne	a5,a4,8000029c <kcontext+0x10>
800002a8:	000027b7          	lui	a5,0x2
800002ac:	80078793          	addi	a5,a5,-2048 # 1800 <_entry_offset+0x1800>
800002b0:	08f52223          	sw	a5,132(a0)
800002b4:	00b00793          	li	a5,11
800002b8:	00a52423          	sw	a0,8(a0)
800002bc:	02d52423          	sw	a3,40(a0)
800002c0:	08c52423          	sw	a2,136(a0)
800002c4:	08f52023          	sw	a5,128(a0)
800002c8:	08052623          	sw	zero,140(a0)
800002cc:	01010113          	addi	sp,sp,16
800002d0:	00008067          	ret

800002d4 <yield>:
800002d4:	fff00893          	li	a7,-1
800002d8:	00000073          	ecall
800002dc:	00008067          	ret

800002e0 <__am_asm_trap>:
800002e0:	f7410113          	addi	sp,sp,-140
800002e4:	00112223          	sw	ra,4(sp)
800002e8:	00312623          	sw	gp,12(sp)
800002ec:	00412823          	sw	tp,16(sp)
800002f0:	00512a23          	sw	t0,20(sp)
800002f4:	00612c23          	sw	t1,24(sp)
800002f8:	00712e23          	sw	t2,28(sp)
800002fc:	02812023          	sw	s0,32(sp)
80000300:	02912223          	sw	s1,36(sp)
80000304:	02a12423          	sw	a0,40(sp)
80000308:	02b12623          	sw	a1,44(sp)
8000030c:	02c12823          	sw	a2,48(sp)
80000310:	02d12a23          	sw	a3,52(sp)
80000314:	02e12c23          	sw	a4,56(sp)
80000318:	02f12e23          	sw	a5,60(sp)
8000031c:	05012023          	sw	a6,64(sp)
80000320:	05112223          	sw	a7,68(sp)
80000324:	05212423          	sw	s2,72(sp)
80000328:	05312623          	sw	s3,76(sp)
8000032c:	05412823          	sw	s4,80(sp)
80000330:	05512a23          	sw	s5,84(sp)
80000334:	05612c23          	sw	s6,88(sp)
80000338:	05712e23          	sw	s7,92(sp)
8000033c:	07812023          	sw	s8,96(sp)
80000340:	07912223          	sw	s9,100(sp)
80000344:	07a12423          	sw	s10,104(sp)
80000348:	07b12623          	sw	s11,108(sp)
8000034c:	07c12823          	sw	t3,112(sp)
80000350:	07d12a23          	sw	t4,116(sp)
80000354:	07e12c23          	sw	t5,120(sp)
80000358:	07f12e23          	sw	t6,124(sp)
8000035c:	342022f3          	csrr	t0,mcause
80000360:	30002373          	csrr	t1,mstatus
80000364:	341023f3          	csrr	t2,mepc
80000368:	08512023          	sw	t0,128(sp)
8000036c:	08612223          	sw	t1,132(sp)
80000370:	08712423          	sw	t2,136(sp)
80000374:	00020537          	lui	a0,0x20
80000378:	00a36333          	or	t1,t1,a0
8000037c:	30031073          	csrw	mstatus,t1
80000380:	00010513          	mv	a0,sp
80000384:	e31ff0ef          	jal	800001b4 <__am_irq_handle>
80000388:	00050113          	mv	sp,a0
8000038c:	08412303          	lw	t1,132(sp)
80000390:	08812383          	lw	t2,136(sp)
80000394:	30031073          	csrw	mstatus,t1
80000398:	34139073          	csrw	mepc,t2
8000039c:	00412083          	lw	ra,4(sp)
800003a0:	00c12183          	lw	gp,12(sp)
800003a4:	01012203          	lw	tp,16(sp)
800003a8:	01412283          	lw	t0,20(sp)
800003ac:	01812303          	lw	t1,24(sp)
800003b0:	01c12383          	lw	t2,28(sp)
800003b4:	02012403          	lw	s0,32(sp)
800003b8:	02412483          	lw	s1,36(sp)
800003bc:	02812503          	lw	a0,40(sp)
800003c0:	02c12583          	lw	a1,44(sp)
800003c4:	03012603          	lw	a2,48(sp)
800003c8:	03412683          	lw	a3,52(sp)
800003cc:	03812703          	lw	a4,56(sp)
800003d0:	03c12783          	lw	a5,60(sp)
800003d4:	04012803          	lw	a6,64(sp)
800003d8:	04412883          	lw	a7,68(sp)
800003dc:	04812903          	lw	s2,72(sp)
800003e0:	04c12983          	lw	s3,76(sp)
800003e4:	05012a03          	lw	s4,80(sp)
800003e8:	05412a83          	lw	s5,84(sp)
800003ec:	05812b03          	lw	s6,88(sp)
800003f0:	05c12b83          	lw	s7,92(sp)
800003f4:	06012c03          	lw	s8,96(sp)
800003f8:	06412c83          	lw	s9,100(sp)
800003fc:	06812d03          	lw	s10,104(sp)
80000400:	06c12d83          	lw	s11,108(sp)
80000404:	07012e03          	lw	t3,112(sp)
80000408:	07412e83          	lw	t4,116(sp)
8000040c:	07812f03          	lw	t5,120(sp)
80000410:	07c12f83          	lw	t6,124(sp)
80000414:	08c10113          	addi	sp,sp,140
80000418:	30200073          	mret

8000041c <vsprintf>:
8000041c:	0005c783          	lbu	a5,0(a1)
80000420:	00050e93          	mv	t4,a0
80000424:	32078c63          	beqz	a5,8000075c <vsprintf+0x340>
80000428:	f9010113          	addi	sp,sp,-112
8000042c:	06812623          	sw	s0,108(sp)
80000430:	06912423          	sw	s1,104(sp)
80000434:	00000813          	li	a6,0
80000438:	00000513          	li	a0,0
8000043c:	000e8693          	mv	a3,t4
80000440:	02500f93          	li	t6,37
80000444:	03000393          	li	t2,48
80000448:	00900f13          	li	t5,9
8000044c:	06c00293          	li	t0,108
80000450:	0200006f          	j	80000470 <vsprintf+0x54>
80000454:	00070813          	mv	a6,a4
80000458:	00f68023          	sb	a5,0(a3)
8000045c:	010587b3          	add	a5,a1,a6
80000460:	0007c783          	lbu	a5,0(a5)
80000464:	00150513          	addi	a0,a0,1 # 20001 <_entry_offset+0x20001>
80000468:	00ae86b3          	add	a3,t4,a0
8000046c:	0c078063          	beqz	a5,8000052c <vsprintf+0x110>
80000470:	00180713          	addi	a4,a6,1
80000474:	00050493          	mv	s1,a0
80000478:	fdf79ee3          	bne	a5,t6,80000454 <vsprintf+0x38>
8000047c:	00e58333          	add	t1,a1,a4
80000480:	00034e03          	lbu	t3,0(t1)
80000484:	00000413          	li	s0,0
80000488:	007e1a63          	bne	t3,t2,8000049c <vsprintf+0x80>
8000048c:	00280713          	addi	a4,a6,2
80000490:	00e58333          	add	t1,a1,a4
80000494:	00034e03          	lbu	t3,0(t1)
80000498:	00100413          	li	s0,1
8000049c:	fd0e0893          	addi	a7,t3,-48
800004a0:	0ff8f793          	zext.b	a5,a7
800004a4:	00000813          	li	a6,0
800004a8:	02ff6663          	bltu	t5,a5,800004d4 <vsprintf+0xb8>
800004ac:	00170713          	addi	a4,a4,1
800004b0:	00e58333          	add	t1,a1,a4
800004b4:	00281793          	slli	a5,a6,0x2
800004b8:	00034e03          	lbu	t3,0(t1)
800004bc:	010787b3          	add	a5,a5,a6
800004c0:	00179793          	slli	a5,a5,0x1
800004c4:	00f88833          	add	a6,a7,a5
800004c8:	fd0e0893          	addi	a7,t3,-48
800004cc:	0ff8f793          	zext.b	a5,a7
800004d0:	fcff7ee3          	bgeu	t5,a5,800004ac <vsprintf+0x90>
800004d4:	085e0a63          	beq	t3,t0,80000568 <vsprintf+0x14c>
800004d8:	00034783          	lbu	a5,0(t1)
800004dc:	06400893          	li	a7,100
800004e0:	09178e63          	beq	a5,a7,8000057c <vsprintf+0x160>
800004e4:	07300813          	li	a6,115
800004e8:	05079c63          	bne	a5,a6,80000540 <vsprintf+0x124>
800004ec:	00062883          	lw	a7,0(a2)
800004f0:	00460613          	addi	a2,a2,4
800004f4:	02088463          	beqz	a7,8000051c <vsprintf+0x100>
800004f8:	0008c803          	lbu	a6,0(a7)
800004fc:	02080063          	beqz	a6,8000051c <vsprintf+0x100>
80000500:	00150513          	addi	a0,a0,1
80000504:	00ae86b3          	add	a3,t4,a0
80000508:	409507b3          	sub	a5,a0,s1
8000050c:	ff068fa3          	sb	a6,-1(a3)
80000510:	00f887b3          	add	a5,a7,a5
80000514:	0007c803          	lbu	a6,0(a5)
80000518:	fe0814e3          	bnez	a6,80000500 <vsprintf+0xe4>
8000051c:	00170813          	addi	a6,a4,1
80000520:	010587b3          	add	a5,a1,a6
80000524:	0007c783          	lbu	a5,0(a5)
80000528:	f40794e3          	bnez	a5,80000470 <vsprintf+0x54>
8000052c:	00068023          	sb	zero,0(a3)
80000530:	06c12403          	lw	s0,108(sp)
80000534:	06812483          	lw	s1,104(sp)
80000538:	07010113          	addi	sp,sp,112
8000053c:	00008067          	ret
80000540:	02500793          	li	a5,37
80000544:	00f68023          	sb	a5,0(a3)
80000548:	00034683          	lbu	a3,0(t1)
8000054c:	00150793          	addi	a5,a0,1
80000550:	00fe87b3          	add	a5,t4,a5
80000554:	00250513          	addi	a0,a0,2
80000558:	00d78023          	sb	a3,0(a5)
8000055c:	00170813          	addi	a6,a4,1
80000560:	00ae86b3          	add	a3,t4,a0
80000564:	fbdff06f          	j	80000520 <vsprintf+0x104>
80000568:	00170713          	addi	a4,a4,1
8000056c:	00e58333          	add	t1,a1,a4
80000570:	00034783          	lbu	a5,0(t1)
80000574:	06400893          	li	a7,100
80000578:	f71796e3          	bne	a5,a7,800004e4 <vsprintf+0xc8>
8000057c:	05812623          	sw	s8,76(sp)
80000580:	07312023          	sw	s3,96(sp)
80000584:	00062303          	lw	t1,0(a2)
80000588:	00460613          	addi	a2,a2,4
8000058c:	41f35c13          	srai	s8,t1,0x1f
80000590:	018367b3          	or	a5,t1,s8
80000594:	08079463          	bnez	a5,8000061c <vsprintf+0x200>
80000598:	03000793          	li	a5,48
8000059c:	00f10023          	sb	a5,0(sp)
800005a0:	fff80813          	addi	a6,a6,-1
800005a4:	07005663          	blez	a6,80000610 <vsprintf+0x1f4>
800005a8:	00010e13          	mv	t3,sp
800005ac:	06040263          	beqz	s0,80000610 <vsprintf+0x1f4>
800005b0:	fff80813          	addi	a6,a6,-1
800005b4:	00040993          	mv	s3,s0
800005b8:	001e8793          	addi	a5,t4,1
800005bc:	00a787b3          	add	a5,a5,a0
800005c0:	010787b3          	add	a5,a5,a6
800005c4:	03000893          	li	a7,48
800005c8:	01168023          	sb	a7,0(a3)
800005cc:	00168693          	addi	a3,a3,1
800005d0:	fed79ce3          	bne	a5,a3,800005c8 <vsprintf+0x1ac>
800005d4:	00150513          	addi	a0,a0,1
800005d8:	01050533          	add	a0,a0,a6
800005dc:	00ae86b3          	add	a3,t4,a0
800005e0:	013e07b3          	add	a5,t3,s3
800005e4:	fff7c803          	lbu	a6,-1(a5)
800005e8:	fff78793          	addi	a5,a5,-1
800005ec:	00168693          	addi	a3,a3,1
800005f0:	ff068fa3          	sb	a6,-1(a3)
800005f4:	fefe18e3          	bne	t3,a5,800005e4 <vsprintf+0x1c8>
800005f8:	00a98533          	add	a0,s3,a0
800005fc:	04c12c03          	lw	s8,76(sp)
80000600:	06012983          	lw	s3,96(sp)
80000604:	00ae86b3          	add	a3,t4,a0
80000608:	00170813          	addi	a6,a4,1
8000060c:	f15ff06f          	j	80000520 <vsprintf+0x104>
80000610:	00100993          	li	s3,1
80000614:	00010e13          	mv	t3,sp
80000618:	fc9ff06f          	j	800005e0 <vsprintf+0x1c4>
8000061c:	05712823          	sw	s7,80(sp)
80000620:	07212223          	sw	s2,100(sp)
80000624:	05412e23          	sw	s4,92(sp)
80000628:	05512c23          	sw	s5,88(sp)
8000062c:	05612a23          	sw	s6,84(sp)
80000630:	05912423          	sw	s9,72(sp)
80000634:	00000b93          	li	s7,0
80000638:	000c5c63          	bgez	s8,80000650 <vsprintf+0x234>
8000063c:	006037b3          	snez	a5,t1
80000640:	41800c33          	neg	s8,s8
80000644:	40fc0c33          	sub	s8,s8,a5
80000648:	40600333          	neg	t1,t1
8000064c:	00100b93          	li	s7,1
80000650:	ccccd937          	lui	s2,0xccccd
80000654:	ccccdab7          	lui	s5,0xccccd
80000658:	00000493          	li	s1,0
8000065c:	00010e13          	mv	t3,sp
80000660:	00500b13          	li	s6,5
80000664:	ccd90913          	addi	s2,s2,-819 # cccccccd <_end+0x4ccabccd>
80000668:	ccca8a93          	addi	s5,s5,-820 # cccccccc <_end+0x4ccabccc>
8000066c:	018307b3          	add	a5,t1,s8
80000670:	0067b8b3          	sltu	a7,a5,t1
80000674:	011787b3          	add	a5,a5,a7
80000678:	0367f7b3          	remu	a5,a5,s6
8000067c:	00048993          	mv	s3,s1
80000680:	00148493          	addi	s1,s1,1
80000684:	009e0a33          	add	s4,t3,s1
80000688:	40f307b3          	sub	a5,t1,a5
8000068c:	00f338b3          	sltu	a7,t1,a5
80000690:	411c08b3          	sub	a7,s8,a7
80000694:	03578cb3          	mul	s9,a5,s5
80000698:	032888b3          	mul	a7,a7,s2
8000069c:	0327bc33          	mulhu	s8,a5,s2
800006a0:	019888b3          	add	a7,a7,s9
800006a4:	032787b3          	mul	a5,a5,s2
800006a8:	018888b3          	add	a7,a7,s8
800006ac:	01f89c93          	slli	s9,a7,0x1f
800006b0:	0018dc13          	srli	s8,a7,0x1
800006b4:	0017d793          	srli	a5,a5,0x1
800006b8:	00fce7b3          	or	a5,s9,a5
800006bc:	00279893          	slli	a7,a5,0x2
800006c0:	00f888b3          	add	a7,a7,a5
800006c4:	00189893          	slli	a7,a7,0x1
800006c8:	411308b3          	sub	a7,t1,a7
800006cc:	03088893          	addi	a7,a7,48
800006d0:	00078313          	mv	t1,a5
800006d4:	ff1a0fa3          	sb	a7,-1(s4)
800006d8:	0187e7b3          	or	a5,a5,s8
800006dc:	f80798e3          	bnez	a5,8000066c <vsprintf+0x250>
800006e0:	020b9863          	bnez	s7,80000710 <vsprintf+0x2f4>
800006e4:	40980833          	sub	a6,a6,s1
800006e8:	01005463          	blez	a6,800006f0 <vsprintf+0x2d4>
800006ec:	06041e63          	bnez	s0,80000768 <vsprintf+0x34c>
800006f0:	00048993          	mv	s3,s1
800006f4:	06412903          	lw	s2,100(sp)
800006f8:	05c12a03          	lw	s4,92(sp)
800006fc:	05812a83          	lw	s5,88(sp)
80000700:	05412b03          	lw	s6,84(sp)
80000704:	05012b83          	lw	s7,80(sp)
80000708:	04812c83          	lw	s9,72(sp)
8000070c:	ed5ff06f          	j	800005e0 <vsprintf+0x1c4>
80000710:	04048793          	addi	a5,s1,64
80000714:	00298993          	addi	s3,s3,2
80000718:	02d00893          	li	a7,45
8000071c:	002787b3          	add	a5,a5,sp
80000720:	fd178023          	sb	a7,-64(a5)
80000724:	41380833          	sub	a6,a6,s3
80000728:	fd0056e3          	blez	a6,800006f4 <vsprintf+0x2d8>
8000072c:	fc0404e3          	beqz	s0,800006f4 <vsprintf+0x2d8>
80000730:	01168023          	sb	a7,0(a3)
80000734:	00150513          	addi	a0,a0,1
80000738:	06412903          	lw	s2,100(sp)
8000073c:	05c12a03          	lw	s4,92(sp)
80000740:	05812a83          	lw	s5,88(sp)
80000744:	05412b03          	lw	s6,84(sp)
80000748:	05012b83          	lw	s7,80(sp)
8000074c:	04812c83          	lw	s9,72(sp)
80000750:	00048993          	mv	s3,s1
80000754:	00ae86b3          	add	a3,t4,a0
80000758:	e61ff06f          	j	800005b8 <vsprintf+0x19c>
8000075c:	00000513          	li	a0,0
80000760:	000e8023          	sb	zero,0(t4)
80000764:	00008067          	ret
80000768:	06412903          	lw	s2,100(sp)
8000076c:	05c12a03          	lw	s4,92(sp)
80000770:	05812a83          	lw	s5,88(sp)
80000774:	05412b03          	lw	s6,84(sp)
80000778:	05012b83          	lw	s7,80(sp)
8000077c:	04812c83          	lw	s9,72(sp)
80000780:	00048413          	mv	s0,s1
80000784:	e2dff06f          	j	800005b0 <vsprintf+0x194>

80000788 <printf>:
80000788:	fb010113          	addi	sp,sp,-80
8000078c:	00001e37          	lui	t3,0x1
80000790:	fffff2b7          	lui	t0,0xfffff
80000794:	02912223          	sw	s1,36(sp)
80000798:	02112623          	sw	ra,44(sp)
8000079c:	02812423          	sw	s0,40(sp)
800007a0:	fffff337          	lui	t1,0xfffff
800007a4:	00510133          	add	sp,sp,t0
800007a8:	010e0e93          	addi	t4,t3,16 # 1010 <_entry_offset+0x1010>
800007ac:	006e8eb3          	add	t4,t4,t1
800007b0:	01010313          	addi	t1,sp,16
800007b4:	01010f13          	addi	t5,sp,16
800007b8:	006e8333          	add	t1,t4,t1
800007bc:	024e0e93          	addi	t4,t3,36
800007c0:	00612623          	sw	t1,12(sp)
800007c4:	01ee8eb3          	add	t4,t4,t5
800007c8:	00bea023          	sw	a1,0(t4)
800007cc:	028e0593          	addi	a1,t3,40
800007d0:	01e585b3          	add	a1,a1,t5
800007d4:	02ce0e93          	addi	t4,t3,44
800007d8:	00c5a023          	sw	a2,0(a1)
800007dc:	01ee8eb3          	add	t4,t4,t5
800007e0:	034e0313          	addi	t1,t3,52
800007e4:	00050593          	mv	a1,a0
800007e8:	00c12503          	lw	a0,12(sp)
800007ec:	00dea023          	sw	a3,0(t4)
800007f0:	000e0693          	mv	a3,t3
800007f4:	030e0e13          	addi	t3,t3,48
800007f8:	01ee0e33          	add	t3,t3,t5
800007fc:	00ee2023          	sw	a4,0(t3)
80000800:	00068713          	mv	a4,a3
80000804:	03468693          	addi	a3,a3,52
80000808:	01e686b3          	add	a3,a3,t5
8000080c:	00f6a023          	sw	a5,0(a3)
80000810:	00070793          	mv	a5,a4
80000814:	03870713          	addi	a4,a4,56
80000818:	01e70733          	add	a4,a4,t5
8000081c:	03c78793          	addi	a5,a5,60
80000820:	01072023          	sw	a6,0(a4)
80000824:	01e787b3          	add	a5,a5,t5
80000828:	0117a023          	sw	a7,0(a5)
8000082c:	00c12783          	lw	a5,12(sp)
80000830:	00230333          	add	t1,t1,sp
80000834:	00030613          	mv	a2,t1
80000838:	fe67ae23          	sw	t1,-4(a5)
8000083c:	be1ff0ef          	jal	8000041c <vsprintf>
80000840:	00c12783          	lw	a5,12(sp)
80000844:	00050493          	mv	s1,a0
80000848:	0007c503          	lbu	a0,0(a5)
8000084c:	00050c63          	beqz	a0,80000864 <printf+0xdc>
80000850:	00178413          	addi	s0,a5,1
80000854:	929ff0ef          	jal	8000017c <putch>
80000858:	00044503          	lbu	a0,0(s0)
8000085c:	00140413          	addi	s0,s0,1
80000860:	fe051ae3          	bnez	a0,80000854 <printf+0xcc>
80000864:	000012b7          	lui	t0,0x1
80000868:	00510133          	add	sp,sp,t0
8000086c:	02c12083          	lw	ra,44(sp)
80000870:	00048513          	mv	a0,s1
80000874:	02812403          	lw	s0,40(sp)
80000878:	02412483          	lw	s1,36(sp)
8000087c:	05010113          	addi	sp,sp,80
80000880:	00008067          	ret
