
/home/jinghanhui/ysyx-workbench/am-kernels/kernels/yield-os/build/yield-os-riscv32e-npc.elf:     file format elf32-littleriscv


Disassembly of section .text:

80000000 <_start>:
80000000:	00000413          	li	s0,0
80000004:	00021117          	auipc	sp,0x21
80000008:	ffc10113          	addi	sp,sp,-4 # 80021000 <_end>
8000000c:	188000ef          	jal	80000194 <_trm_init>

80000010 <schedule>:
80000010:	00001717          	auipc	a4,0x1
80000014:	97470713          	addi	a4,a4,-1676 # 80000984 <current>
80000018:	00072683          	lw	a3,0(a4)
8000001c:	00009797          	auipc	a5,0x9
80000020:	96c78793          	addi	a5,a5,-1684 # 80008988 <pcb>
80000024:	00b6a023          	sw	a1,0(a3)
80000028:	00f68863          	beq	a3,a5,80000038 <schedule+0x28>
8000002c:	0007a503          	lw	a0,0(a5)
80000030:	00f72023          	sw	a5,0(a4)
80000034:	00008067          	ret
80000038:	00011797          	auipc	a5,0x11
8000003c:	95078793          	addi	a5,a5,-1712 # 80010988 <pcb+0x8000>
80000040:	0007a503          	lw	a0,0(a5)
80000044:	00f72023          	sw	a5,0(a4)
80000048:	00008067          	ret

8000004c <f>:
8000004c:	00353793          	sltiu	a5,a0,3
80000050:	40f007b3          	neg	a5,a5
80000054:	00f57533          	and	a0,a0,a5
80000058:	00001797          	auipc	a5,0x1
8000005c:	84c78793          	addi	a5,a5,-1972 # 800008a4 <_etext>
80000060:	ff010113          	addi	sp,sp,-16
80000064:	00a787b3          	add	a5,a5,a0
80000068:	00812423          	sw	s0,8(sp)
8000006c:	0007c403          	lbu	s0,0(a5)
80000070:	00112623          	sw	ra,12(sp)
80000074:	00040513          	mv	a0,s0
80000078:	104000ef          	jal	8000017c <putch>
8000007c:	00012023          	sw	zero,0(sp)
80000080:	00012703          	lw	a4,0(sp)
80000084:	000187b7          	lui	a5,0x18
80000088:	69f78793          	addi	a5,a5,1695 # 1869f <_entry_offset+0x1869f>
8000008c:	00e7ce63          	blt	a5,a4,800000a8 <f+0x5c>
80000090:	00078713          	mv	a4,a5
80000094:	00012783          	lw	a5,0(sp)
80000098:	00178793          	addi	a5,a5,1
8000009c:	00f12023          	sw	a5,0(sp)
800000a0:	00012783          	lw	a5,0(sp)
800000a4:	fef758e3          	bge	a4,a5,80000094 <f+0x48>
800000a8:	228000ef          	jal	800002d0 <yield>
800000ac:	fc9ff06f          	j	80000074 <f+0x28>

800000b0 <main>:
800000b0:	fe410113          	addi	sp,sp,-28
800000b4:	00000517          	auipc	a0,0x0
800000b8:	f5c50513          	addi	a0,a0,-164 # 80000010 <schedule>
800000bc:	00112c23          	sw	ra,24(sp)
800000c0:	00812a23          	sw	s0,20(sp)
800000c4:	00912823          	sw	s1,16(sp)
800000c8:	00011417          	auipc	s0,0x11
800000cc:	8c040413          	addi	s0,s0,-1856 # 80010988 <pcb+0x8000>
800000d0:	19c000ef          	jal	8000026c <cte_init>
800000d4:	00009497          	auipc	s1,0x9
800000d8:	8b448493          	addi	s1,s1,-1868 # 80008988 <pcb>
800000dc:	00040593          	mv	a1,s0
800000e0:	00100693          	li	a3,1
800000e4:	00000617          	auipc	a2,0x0
800000e8:	f6860613          	addi	a2,a2,-152 # 8000004c <f>
800000ec:	00048513          	mv	a0,s1
800000f0:	19c000ef          	jal	8000028c <kcontext>
800000f4:	00050793          	mv	a5,a0
800000f8:	00200693          	li	a3,2
800000fc:	00000617          	auipc	a2,0x0
80000100:	f5060613          	addi	a2,a2,-176 # 8000004c <f>
80000104:	00040513          	mv	a0,s0
80000108:	00019597          	auipc	a1,0x19
8000010c:	88058593          	addi	a1,a1,-1920 # 80018988 <user_handler>
80000110:	00f4a023          	sw	a5,0(s1)
80000114:	178000ef          	jal	8000028c <kcontext>
80000118:	00a42023          	sw	a0,0(s0)
8000011c:	1b4000ef          	jal	800002d0 <yield>
80000120:	00000417          	auipc	s0,0x0
80000124:	78840413          	addi	s0,s0,1928 # 800008a8 <_etext+0x4>
80000128:	04100513          	li	a0,65
8000012c:	050000ef          	jal	8000017c <putch>
80000130:	00144503          	lbu	a0,1(s0)
80000134:	00140413          	addi	s0,s0,1
80000138:	fe051ae3          	bnez	a0,8000012c <main+0x7c>
8000013c:	00000417          	auipc	s0,0x0
80000140:	77840413          	addi	s0,s0,1912 # 800008b4 <_etext+0x10>
80000144:	05300513          	li	a0,83
80000148:	034000ef          	jal	8000017c <putch>
8000014c:	00144503          	lbu	a0,1(s0)
80000150:	00140413          	addi	s0,s0,1
80000154:	fe051ae3          	bnez	a0,80000148 <main+0x98>
80000158:	00000417          	auipc	s0,0x0
8000015c:	77440413          	addi	s0,s0,1908 # 800008cc <_etext+0x28>
80000160:	02000513          	li	a0,32
80000164:	018000ef          	jal	8000017c <putch>
80000168:	00144503          	lbu	a0,1(s0)
8000016c:	00140413          	addi	s0,s0,1
80000170:	fe051ae3          	bnez	a0,80000164 <main+0xb4>
80000174:	00100513          	li	a0,1
80000178:	010000ef          	jal	80000188 <halt>

8000017c <putch>:
8000017c:	a00007b7          	lui	a5,0xa0000
80000180:	3ea78c23          	sb	a0,1016(a5) # a00003f8 <_end+0x1ffdf3f8>
80000184:	00008067          	ret

80000188 <halt>:
80000188:	00050513          	mv	a0,a0
8000018c:	00100073          	ebreak
80000190:	0000006f          	j	80000190 <halt+0x8>

80000194 <_trm_init>:
80000194:	ff410113          	addi	sp,sp,-12
80000198:	00000517          	auipc	a0,0x0
8000019c:	7e850513          	addi	a0,a0,2024 # 80000980 <mainargs>
800001a0:	00112423          	sw	ra,8(sp)
800001a4:	f0dff0ef          	jal	800000b0 <main>
800001a8:	00050513          	mv	a0,a0
800001ac:	00100073          	ebreak
800001b0:	0000006f          	j	800001b0 <_trm_init+0x1c>

800001b4 <__am_irq_handle>:
800001b4:	00018797          	auipc	a5,0x18
800001b8:	7d47a783          	lw	a5,2004(a5) # 80018988 <user_handler>
800001bc:	00050593          	mv	a1,a0
800001c0:	08078463          	beqz	a5,80000248 <__am_irq_handle+0x94>
800001c4:	04052683          	lw	a3,64(a0)
800001c8:	fd410113          	addi	sp,sp,-44
800001cc:	02112423          	sw	ra,40(sp)
800001d0:	00012a23          	sw	zero,20(sp)
800001d4:	00012c23          	sw	zero,24(sp)
800001d8:	00012e23          	sw	zero,28(sp)
800001dc:	00b00713          	li	a4,11
800001e0:	04e68263          	beq	a3,a4,80000224 <__am_irq_handle+0x70>
800001e4:	00400713          	li	a4,4
800001e8:	00e12823          	sw	a4,16(sp)
800001ec:	01012703          	lw	a4,16(sp)
800001f0:	00010513          	mv	a0,sp
800001f4:	00e12023          	sw	a4,0(sp)
800001f8:	01412703          	lw	a4,20(sp)
800001fc:	00e12223          	sw	a4,4(sp)
80000200:	01812703          	lw	a4,24(sp)
80000204:	00e12423          	sw	a4,8(sp)
80000208:	01c12703          	lw	a4,28(sp)
8000020c:	00e12623          	sw	a4,12(sp)
80000210:	000780e7          	jalr	a5
80000214:	02050c63          	beqz	a0,8000024c <__am_irq_handle+0x98>
80000218:	02812083          	lw	ra,40(sp)
8000021c:	02c10113          	addi	sp,sp,44
80000220:	00008067          	ret
80000224:	03c52683          	lw	a3,60(a0)
80000228:	fff00713          	li	a4,-1
8000022c:	fae69ce3          	bne	a3,a4,800001e4 <__am_irq_handle+0x30>
80000230:	04852703          	lw	a4,72(a0)
80000234:	00100693          	li	a3,1
80000238:	00d12823          	sw	a3,16(sp)
8000023c:	00470713          	addi	a4,a4,4
80000240:	04e52423          	sw	a4,72(a0)
80000244:	fa9ff06f          	j	800001ec <__am_irq_handle+0x38>
80000248:	00008067          	ret
8000024c:	02100613          	li	a2,33
80000250:	00000597          	auipc	a1,0x0
80000254:	6cc58593          	addi	a1,a1,1740 # 8000091c <_etext+0x78>
80000258:	00000517          	auipc	a0,0x0
8000025c:	70c50513          	addi	a0,a0,1804 # 80000964 <_etext+0xc0>
80000260:	4b4000ef          	jal	80000714 <printf>
80000264:	00100513          	li	a0,1
80000268:	f21ff0ef          	jal	80000188 <halt>

8000026c <cte_init>:
8000026c:	00050793          	mv	a5,a0
80000270:	00000717          	auipc	a4,0x0
80000274:	07070713          	addi	a4,a4,112 # 800002e0 <__am_asm_trap>
80000278:	30571073          	csrw	mtvec,a4
8000027c:	00100513          	li	a0,1
80000280:	00018717          	auipc	a4,0x18
80000284:	70f72423          	sw	a5,1800(a4) # 80018988 <user_handler>
80000288:	00008067          	ret

8000028c <kcontext>:
8000028c:	fb058513          	addi	a0,a1,-80
80000290:	ff810113          	addi	sp,sp,-8
80000294:	ff058713          	addi	a4,a1,-16
80000298:	00050793          	mv	a5,a0
8000029c:	0007a023          	sw	zero,0(a5)
800002a0:	00478793          	addi	a5,a5,4
800002a4:	fee79ce3          	bne	a5,a4,8000029c <kcontext+0x10>
800002a8:	000027b7          	lui	a5,0x2
800002ac:	80078793          	addi	a5,a5,-2048 # 1800 <_entry_offset+0x1800>
800002b0:	00a52423          	sw	a0,8(a0)
800002b4:	02d52423          	sw	a3,40(a0)
800002b8:	04c52423          	sw	a2,72(a0)
800002bc:	04f52223          	sw	a5,68(a0)
800002c0:	04052023          	sw	zero,64(a0)
800002c4:	04052623          	sw	zero,76(a0)
800002c8:	00810113          	addi	sp,sp,8
800002cc:	00008067          	ret

800002d0 <yield>:
800002d0:	fff00793          	li	a5,-1
800002d4:	00000073          	ecall
800002d8:	00008067          	ret
800002dc:	0000                	.insn	2, 0x
	...

800002e0 <__am_asm_trap>:
800002e0:	fb410113          	addi	sp,sp,-76
800002e4:	00112223          	sw	ra,4(sp)
800002e8:	00312623          	sw	gp,12(sp)
800002ec:	00412823          	sw	tp,16(sp)
800002f0:	00512a23          	sw	t0,20(sp)
800002f4:	00612c23          	sw	t1,24(sp)
800002f8:	00712e23          	sw	t2,28(sp)
800002fc:	02812023          	sw	s0,32(sp)
80000300:	02912223          	sw	s1,36(sp)
80000304:	02a12423          	sw	a0,40(sp)
80000308:	02b12623          	sw	a1,44(sp)
8000030c:	02c12823          	sw	a2,48(sp)
80000310:	02d12a23          	sw	a3,52(sp)
80000314:	02e12c23          	sw	a4,56(sp)
80000318:	02f12e23          	sw	a5,60(sp)
8000031c:	342022f3          	csrr	t0,mcause
80000320:	30002373          	csrr	t1,mstatus
80000324:	341023f3          	csrr	t2,mepc
80000328:	04512023          	sw	t0,64(sp)
8000032c:	04612223          	sw	t1,68(sp)
80000330:	04712423          	sw	t2,72(sp)
80000334:	00020537          	lui	a0,0x20
80000338:	00a36333          	or	t1,t1,a0
8000033c:	30031073          	csrw	mstatus,t1
80000340:	00010513          	mv	a0,sp
80000344:	e71ff0ef          	jal	800001b4 <__am_irq_handle>
80000348:	00050113          	mv	sp,a0
8000034c:	04412303          	lw	t1,68(sp)
80000350:	04812383          	lw	t2,72(sp)
80000354:	30031073          	csrw	mstatus,t1
80000358:	34139073          	csrw	mepc,t2
8000035c:	00412083          	lw	ra,4(sp)
80000360:	00c12183          	lw	gp,12(sp)
80000364:	01012203          	lw	tp,16(sp)
80000368:	01412283          	lw	t0,20(sp)
8000036c:	01812303          	lw	t1,24(sp)
80000370:	01c12383          	lw	t2,28(sp)
80000374:	02012403          	lw	s0,32(sp)
80000378:	02412483          	lw	s1,36(sp)
8000037c:	02812503          	lw	a0,40(sp)
80000380:	02c12583          	lw	a1,44(sp)
80000384:	03012603          	lw	a2,48(sp)
80000388:	03412683          	lw	a3,52(sp)
8000038c:	03812703          	lw	a4,56(sp)
80000390:	03c12783          	lw	a5,60(sp)
80000394:	04c10113          	addi	sp,sp,76
80000398:	30200073          	mret

8000039c <vsprintf>:
8000039c:	fa410113          	addi	sp,sp,-92
800003a0:	04112c23          	sw	ra,88(sp)
800003a4:	0005c683          	lbu	a3,0(a1)
800003a8:	00b12023          	sw	a1,0(sp)
800003ac:	00c12423          	sw	a2,8(sp)
800003b0:	00050393          	mv	t2,a0
800003b4:	34068063          	beqz	a3,800006f4 <vsprintf+0x358>
800003b8:	04912823          	sw	s1,80(sp)
800003bc:	04812a23          	sw	s0,84(sp)
800003c0:	00000713          	li	a4,0
800003c4:	00000493          	li	s1,0
800003c8:	00050313          	mv	t1,a0
800003cc:	00a12223          	sw	a0,4(sp)
800003d0:	0280006f          	j	800003f8 <vsprintf+0x5c>
800003d4:	00412783          	lw	a5,4(sp)
800003d8:	00148493          	addi	s1,s1,1
800003dc:	00d30023          	sb	a3,0(t1)
800003e0:	00978333          	add	t1,a5,s1
800003e4:	00012783          	lw	a5,0(sp)
800003e8:	00060713          	mv	a4,a2
800003ec:	00e787b3          	add	a5,a5,a4
800003f0:	0007c683          	lbu	a3,0(a5)
800003f4:	10068a63          	beqz	a3,80000508 <vsprintf+0x16c>
800003f8:	02500793          	li	a5,37
800003fc:	00170613          	addi	a2,a4,1
80000400:	00048393          	mv	t2,s1
80000404:	fcf698e3          	bne	a3,a5,800003d4 <vsprintf+0x38>
80000408:	00012783          	lw	a5,0(sp)
8000040c:	00012823          	sw	zero,16(sp)
80000410:	00c782b3          	add	t0,a5,a2
80000414:	0002c583          	lbu	a1,0(t0)
80000418:	03000793          	li	a5,48
8000041c:	00f59e63          	bne	a1,a5,80000438 <vsprintf+0x9c>
80000420:	00012783          	lw	a5,0(sp)
80000424:	00270613          	addi	a2,a4,2
80000428:	00c782b3          	add	t0,a5,a2
8000042c:	0002c583          	lbu	a1,0(t0)
80000430:	00100793          	li	a5,1
80000434:	00f12823          	sw	a5,16(sp)
80000438:	00012783          	lw	a5,0(sp)
8000043c:	00160693          	addi	a3,a2,1
80000440:	fd058713          	addi	a4,a1,-48
80000444:	00d787b3          	add	a5,a5,a3
80000448:	00f12623          	sw	a5,12(sp)
8000044c:	0ff77513          	zext.b	a0,a4
80000450:	00900793          	li	a5,9
80000454:	00000413          	li	s0,0
80000458:	04a7e863          	bltu	a5,a0,800004a8 <vsprintf+0x10c>
8000045c:	00c12783          	lw	a5,12(sp)
80000460:	00040513          	mv	a0,s0
80000464:	00612623          	sw	t1,12(sp)
80000468:	0080006f          	j	80000470 <vsprintf+0xd4>
8000046c:	00168693          	addi	a3,a3,1
80000470:	0007c583          	lbu	a1,0(a5)
80000474:	00251413          	slli	s0,a0,0x2
80000478:	00a40433          	add	s0,s0,a0
8000047c:	00141413          	slli	s0,s0,0x1
80000480:	00870533          	add	a0,a4,s0
80000484:	fd058713          	addi	a4,a1,-48
80000488:	0ff77413          	zext.b	s0,a4
8000048c:	00900313          	li	t1,9
80000490:	00078293          	mv	t0,a5
80000494:	00068613          	mv	a2,a3
80000498:	00178793          	addi	a5,a5,1
8000049c:	fc8378e3          	bgeu	t1,s0,8000046c <vsprintf+0xd0>
800004a0:	00c12303          	lw	t1,12(sp)
800004a4:	00050413          	mv	s0,a0
800004a8:	06400793          	li	a5,100
800004ac:	0af58663          	beq	a1,a5,80000558 <vsprintf+0x1bc>
800004b0:	07300793          	li	a5,115
800004b4:	06f59c63          	bne	a1,a5,8000052c <vsprintf+0x190>
800004b8:	00812783          	lw	a5,8(sp)
800004bc:	0007a683          	lw	a3,0(a5)
800004c0:	00478593          	addi	a1,a5,4
800004c4:	02068663          	beqz	a3,800004f0 <vsprintf+0x154>
800004c8:	0006c703          	lbu	a4,0(a3)
800004cc:	02070263          	beqz	a4,800004f0 <vsprintf+0x154>
800004d0:	00412503          	lw	a0,4(sp)
800004d4:	00148493          	addi	s1,s1,1
800004d8:	00950333          	add	t1,a0,s1
800004dc:	407487b3          	sub	a5,s1,t2
800004e0:	fee30fa3          	sb	a4,-1(t1)
800004e4:	00f687b3          	add	a5,a3,a5
800004e8:	0007c703          	lbu	a4,0(a5)
800004ec:	fe0714e3          	bnez	a4,800004d4 <vsprintf+0x138>
800004f0:	00b12423          	sw	a1,8(sp)
800004f4:	00160713          	addi	a4,a2,1
800004f8:	00012783          	lw	a5,0(sp)
800004fc:	00e787b3          	add	a5,a5,a4
80000500:	0007c683          	lbu	a3,0(a5)
80000504:	ee069ae3          	bnez	a3,800003f8 <vsprintf+0x5c>
80000508:	00030393          	mv	t2,t1
8000050c:	05412403          	lw	s0,84(sp)
80000510:	00048793          	mv	a5,s1
80000514:	05012483          	lw	s1,80(sp)
80000518:	00038023          	sb	zero,0(t2)
8000051c:	05812083          	lw	ra,88(sp)
80000520:	00078513          	mv	a0,a5
80000524:	05c10113          	addi	sp,sp,92
80000528:	00008067          	ret
8000052c:	02500793          	li	a5,37
80000530:	00f30023          	sb	a5,0(t1)
80000534:	00412683          	lw	a3,4(sp)
80000538:	0002c703          	lbu	a4,0(t0)
8000053c:	00148793          	addi	a5,s1,1
80000540:	00f687b3          	add	a5,a3,a5
80000544:	00248493          	addi	s1,s1,2
80000548:	00e78023          	sb	a4,0(a5)
8000054c:	00968333          	add	t1,a3,s1
80000550:	00160713          	addi	a4,a2,1
80000554:	fa5ff06f          	j	800004f8 <vsprintf+0x15c>
80000558:	00812703          	lw	a4,8(sp)
8000055c:	00072783          	lw	a5,0(a4)
80000560:	00470293          	addi	t0,a4,4
80000564:	08079a63          	bnez	a5,800005f8 <vsprintf+0x25c>
80000568:	03000793          	li	a5,48
8000056c:	02f10823          	sb	a5,48(sp)
80000570:	fff40413          	addi	s0,s0,-1
80000574:	06805c63          	blez	s0,800005ec <vsprintf+0x250>
80000578:	01012783          	lw	a5,16(sp)
8000057c:	03010693          	addi	a3,sp,48
80000580:	06078663          	beqz	a5,800005ec <vsprintf+0x250>
80000584:	01012783          	lw	a5,16(sp)
80000588:	fff40593          	addi	a1,s0,-1
8000058c:	00412703          	lw	a4,4(sp)
80000590:	03000513          	li	a0,48
80000594:	00170713          	addi	a4,a4,1
80000598:	00970733          	add	a4,a4,s1
8000059c:	00b70733          	add	a4,a4,a1
800005a0:	00a30023          	sb	a0,0(t1)
800005a4:	00130313          	addi	t1,t1,1
800005a8:	fe671ce3          	bne	a4,t1,800005a0 <vsprintf+0x204>
800005ac:	00412703          	lw	a4,4(sp)
800005b0:	00148493          	addi	s1,s1,1
800005b4:	00b484b3          	add	s1,s1,a1
800005b8:	00970333          	add	t1,a4,s1
800005bc:	00f68733          	add	a4,a3,a5
800005c0:	fff74583          	lbu	a1,-1(a4)
800005c4:	fff70713          	addi	a4,a4,-1
800005c8:	00130313          	addi	t1,t1,1
800005cc:	feb30fa3          	sb	a1,-1(t1)
800005d0:	fee698e3          	bne	a3,a4,800005c0 <vsprintf+0x224>
800005d4:	009784b3          	add	s1,a5,s1
800005d8:	00412783          	lw	a5,4(sp)
800005dc:	00512423          	sw	t0,8(sp)
800005e0:	00160713          	addi	a4,a2,1
800005e4:	00978333          	add	t1,a5,s1
800005e8:	f11ff06f          	j	800004f8 <vsprintf+0x15c>
800005ec:	00100793          	li	a5,1
800005f0:	03010693          	addi	a3,sp,48
800005f4:	fc9ff06f          	j	800005bc <vsprintf+0x220>
800005f8:	00000593          	li	a1,0
800005fc:	0007d663          	bgez	a5,80000608 <vsprintf+0x26c>
80000600:	40f007b3          	neg	a5,a5
80000604:	00100593          	li	a1,1
80000608:	00000713          	li	a4,0
8000060c:	03010693          	addi	a3,sp,48
80000610:	00812c23          	sw	s0,24(sp)
80000614:	02912423          	sw	s1,40(sp)
80000618:	00078413          	mv	s0,a5
8000061c:	00c12e23          	sw	a2,28(sp)
80000620:	02512023          	sw	t0,32(sp)
80000624:	02b12223          	sw	a1,36(sp)
80000628:	00070493          	mv	s1,a4
8000062c:	02612623          	sw	t1,44(sp)
80000630:	00d12623          	sw	a3,12(sp)
80000634:	00c12783          	lw	a5,12(sp)
80000638:	00912a23          	sw	s1,20(sp)
8000063c:	00148493          	addi	s1,s1,1
80000640:	00978633          	add	a2,a5,s1
80000644:	00a00593          	li	a1,10
80000648:	00040513          	mv	a0,s0
8000064c:	00c12423          	sw	a2,8(sp)
80000650:	224000ef          	jal	80000874 <__modsi3>
80000654:	00812603          	lw	a2,8(sp)
80000658:	03050693          	addi	a3,a0,48 # 20030 <_entry_offset+0x20030>
8000065c:	00a00593          	li	a1,10
80000660:	00040513          	mv	a0,s0
80000664:	fed60fa3          	sb	a3,-1(a2)
80000668:	188000ef          	jal	800007f0 <__divsi3>
8000066c:	00050413          	mv	s0,a0
80000670:	fc0512e3          	bnez	a0,80000634 <vsprintf+0x298>
80000674:	02412583          	lw	a1,36(sp)
80000678:	00048713          	mv	a4,s1
8000067c:	01812403          	lw	s0,24(sp)
80000680:	01c12603          	lw	a2,28(sp)
80000684:	02012283          	lw	t0,32(sp)
80000688:	02812483          	lw	s1,40(sp)
8000068c:	02c12303          	lw	t1,44(sp)
80000690:	00c12683          	lw	a3,12(sp)
80000694:	00059e63          	bnez	a1,800006b0 <vsprintf+0x314>
80000698:	40e40433          	sub	s0,s0,a4
8000069c:	00805663          	blez	s0,800006a8 <vsprintf+0x30c>
800006a0:	01012783          	lw	a5,16(sp)
800006a4:	06079463          	bnez	a5,8000070c <vsprintf+0x370>
800006a8:	00070793          	mv	a5,a4
800006ac:	f11ff06f          	j	800005bc <vsprintf+0x220>
800006b0:	01412783          	lw	a5,20(sp)
800006b4:	02070593          	addi	a1,a4,32
800006b8:	03010393          	addi	t2,sp,48
800006bc:	007585b3          	add	a1,a1,t2
800006c0:	00278793          	addi	a5,a5,2
800006c4:	02d00513          	li	a0,45
800006c8:	fea58023          	sb	a0,-32(a1)
800006cc:	40f405b3          	sub	a1,s0,a5
800006d0:	eeb056e3          	blez	a1,800005bc <vsprintf+0x220>
800006d4:	01012383          	lw	t2,16(sp)
800006d8:	ee0382e3          	beqz	t2,800005bc <vsprintf+0x220>
800006dc:	00070793          	mv	a5,a4
800006e0:	00412703          	lw	a4,4(sp)
800006e4:	00148493          	addi	s1,s1,1
800006e8:	00a30023          	sb	a0,0(t1)
800006ec:	00970333          	add	t1,a4,s1
800006f0:	e9dff06f          	j	8000058c <vsprintf+0x1f0>
800006f4:	00038023          	sb	zero,0(t2)
800006f8:	05812083          	lw	ra,88(sp)
800006fc:	00000793          	li	a5,0
80000700:	00078513          	mv	a0,a5
80000704:	05c10113          	addi	sp,sp,92
80000708:	00008067          	ret
8000070c:	00e12823          	sw	a4,16(sp)
80000710:	e75ff06f          	j	80000584 <vsprintf+0x1e8>

80000714 <printf>:
80000714:	fd810113          	addi	sp,sp,-40
80000718:	fffff2b7          	lui	t0,0xfffff
8000071c:	00112823          	sw	ra,16(sp)
80000720:	00912423          	sw	s1,8(sp)
80000724:	00812623          	sw	s0,12(sp)
80000728:	00510133          	add	sp,sp,t0
8000072c:	000012b7          	lui	t0,0x1
80000730:	fffff337          	lui	t1,0xfffff
80000734:	00428393          	addi	t2,t0,4 # 1004 <_entry_offset+0x1004>
80000738:	006383b3          	add	t2,t2,t1
8000073c:	00410313          	addi	t1,sp,4
80000740:	00410093          	addi	ra,sp,4
80000744:	00638333          	add	t1,t2,t1
80000748:	01028393          	addi	t2,t0,16
8000074c:	00612023          	sw	t1,0(sp)
80000750:	001383b3          	add	t2,t2,ra
80000754:	00b3a023          	sw	a1,0(t2)
80000758:	01428593          	addi	a1,t0,20
8000075c:	001585b3          	add	a1,a1,ra
80000760:	01828393          	addi	t2,t0,24
80000764:	00c5a023          	sw	a2,0(a1)
80000768:	001383b3          	add	t2,t2,ra
8000076c:	01428313          	addi	t1,t0,20
80000770:	00050593          	mv	a1,a0
80000774:	00012503          	lw	a0,0(sp)
80000778:	00d3a023          	sw	a3,0(t2)
8000077c:	00028693          	mv	a3,t0
80000780:	01c28293          	addi	t0,t0,28
80000784:	001282b3          	add	t0,t0,ra
80000788:	00e2a023          	sw	a4,0(t0)
8000078c:	02068713          	addi	a4,a3,32
80000790:	00170733          	add	a4,a4,ra
80000794:	00f72023          	sw	a5,0(a4)
80000798:	00012783          	lw	a5,0(sp)
8000079c:	00230333          	add	t1,t1,sp
800007a0:	00030613          	mv	a2,t1
800007a4:	fe67ae23          	sw	t1,-4(a5)
800007a8:	bf5ff0ef          	jal	8000039c <vsprintf>
800007ac:	00012783          	lw	a5,0(sp)
800007b0:	00050493          	mv	s1,a0
800007b4:	0007c503          	lbu	a0,0(a5)
800007b8:	00050c63          	beqz	a0,800007d0 <printf+0xbc>
800007bc:	00178413          	addi	s0,a5,1
800007c0:	9bdff0ef          	jal	8000017c <putch>
800007c4:	00044503          	lbu	a0,0(s0)
800007c8:	00140413          	addi	s0,s0,1
800007cc:	fe051ae3          	bnez	a0,800007c0 <printf+0xac>
800007d0:	000012b7          	lui	t0,0x1
800007d4:	00510133          	add	sp,sp,t0
800007d8:	01012083          	lw	ra,16(sp)
800007dc:	00048513          	mv	a0,s1
800007e0:	00c12403          	lw	s0,12(sp)
800007e4:	00812483          	lw	s1,8(sp)
800007e8:	02810113          	addi	sp,sp,40
800007ec:	00008067          	ret

800007f0 <__divsi3>:
800007f0:	06054063          	bltz	a0,80000850 <__umodsi3+0x10>
800007f4:	0605c663          	bltz	a1,80000860 <__umodsi3+0x20>

800007f8 <__hidden___udivsi3>:
800007f8:	00058613          	mv	a2,a1
800007fc:	00050593          	mv	a1,a0
80000800:	fff00513          	li	a0,-1
80000804:	02060c63          	beqz	a2,8000083c <__hidden___udivsi3+0x44>
80000808:	00100693          	li	a3,1
8000080c:	00b67a63          	bgeu	a2,a1,80000820 <__hidden___udivsi3+0x28>
80000810:	00c05863          	blez	a2,80000820 <__hidden___udivsi3+0x28>
80000814:	00161613          	slli	a2,a2,0x1
80000818:	00169693          	slli	a3,a3,0x1
8000081c:	feb66ae3          	bltu	a2,a1,80000810 <__hidden___udivsi3+0x18>
80000820:	00000513          	li	a0,0
80000824:	00c5e663          	bltu	a1,a2,80000830 <__hidden___udivsi3+0x38>
80000828:	40c585b3          	sub	a1,a1,a2
8000082c:	00d56533          	or	a0,a0,a3
80000830:	0016d693          	srli	a3,a3,0x1
80000834:	00165613          	srli	a2,a2,0x1
80000838:	fe0696e3          	bnez	a3,80000824 <__hidden___udivsi3+0x2c>
8000083c:	00008067          	ret

80000840 <__umodsi3>:
80000840:	00008293          	mv	t0,ra
80000844:	fb5ff0ef          	jal	800007f8 <__hidden___udivsi3>
80000848:	00058513          	mv	a0,a1
8000084c:	00028067          	jr	t0 # 1000 <_entry_offset+0x1000>
80000850:	40a00533          	neg	a0,a0
80000854:	00b04863          	bgtz	a1,80000864 <__umodsi3+0x24>
80000858:	40b005b3          	neg	a1,a1
8000085c:	f9dff06f          	j	800007f8 <__hidden___udivsi3>
80000860:	40b005b3          	neg	a1,a1
80000864:	00008293          	mv	t0,ra
80000868:	f91ff0ef          	jal	800007f8 <__hidden___udivsi3>
8000086c:	40a00533          	neg	a0,a0
80000870:	00028067          	jr	t0

80000874 <__modsi3>:
80000874:	00008293          	mv	t0,ra
80000878:	0005ca63          	bltz	a1,8000088c <__modsi3+0x18>
8000087c:	00054c63          	bltz	a0,80000894 <__modsi3+0x20>
80000880:	f79ff0ef          	jal	800007f8 <__hidden___udivsi3>
80000884:	00058513          	mv	a0,a1
80000888:	00028067          	jr	t0
8000088c:	40b005b3          	neg	a1,a1
80000890:	fe0558e3          	bgez	a0,80000880 <__modsi3+0xc>
80000894:	40a00533          	neg	a0,a0
80000898:	f61ff0ef          	jal	800007f8 <__hidden___udivsi3>
8000089c:	40b00533          	neg	a0,a1
800008a0:	00028067          	jr	t0
