[1;34m[src/utils/log.c:30 init_log] Log is written to /home/jinghanhui/ysyx-workbench/am-kernels/tests/am-tests/build/nemu-log.txt[0m
[1;34m[src/memory/paddr.c:73 init_mem] physical memory area [0x80000000, 0x87ffffff][0m
[1;34m[src/device/io/mmio.c:50 add_mmio_map] Add mmio map 'serial' at [0xa00003f8, 0xa00003ff][0m
[1;34m[src/device/io/mmio.c:50 add_mmio_map] Add mmio map 'rtc' at [0xa0000048, 0xa000004f][0m
[1;34m[src/device/io/mmio.c:50 add_mmio_map] Add mmio map 'vgactl' at [0xa0000100, 0xa0000107][0m
[1;34m[src/device/io/mmio.c:50 add_mmio_map] Add mmio map 'vmem' at [0xa1000000, 0xa10752ff][0m
[1;34m[src/device/io/mmio.c:50 add_mmio_map] Add mmio map 'keyboard' at [0xa0000060, 0xa0000063][0m
[1;34m[src/device/io/mmio.c:50 add_mmio_map] Add mmio map 'audio' at [0xa0000200, 0xa0000217][0m
[1;34m[src/device/io/mmio.c:50 add_mmio_map] Add mmio map 'audio-sbuf' at [0xa1200000, 0xa120ffff][0m
[1;34m[src/monitor/monitor.c:84 load_img] The image is /home/jinghanhui/ysyx-workbench/am-kernels/tests/am-tests/build/amtest-riscv32-nemu.bin, size = 610212[0m
[1;34m[src/cpu/difftest/dut.c:83 init_difftest] Differential testing: [1;32mON[0m[0m
[1;34m[src/cpu/difftest/dut.c:84 init_difftest] The result of every instruction will be compared with /home/jinghanhui/ysyx-workbench/nemu/tools/spike-diff/build/riscv32-spike-so. This will help you a lot for debugging, but also significantly reduce the performance. If it is not necessary, you can turn it off in menuconfig.[0m
[1;34m[src/monitor/monitor.c:30 welcome] Trace: [1;32mON[0m[0m
[1;34m[src/monitor/monitor.c:31 welcome] Ftrace: [1;31mOFF[0m[0m
[1;34m[src/monitor/monitor.c:32 welcome] Mtrace: [1;31mOFF[0m[0m
[1;34m[src/monitor/monitor.c:33 welcome] Dtrace: [1;31mOFF[0m[0m
[1;34m[src/monitor/monitor.c:34 welcome] If trace is enabled, a log file will be generated to record the trace. This may lead to a large log file. If it is not necessary, you can disable it in menuconfig[0m
[1;34m[src/monitor/monitor.c:37 welcome] Build time: 10:23:25, Aug  2 2025[0m
0x80000000: 00 00 04 13 addi	s0, zero, 0x0
0x80000004: 00 09 d1 17 auipc	sp, 0x9d
0x80000008: ff c1 01 13 addi	sp, sp, -0x4
0x8000000c: 7b 50 00 ef jal	ra, 0x80000fc0
0x80000fc0: ff 01 01 13 addi	sp, sp, -0x10
0x80000fc4: 00 00 25 17 auipc	a0, 0x2
0x80000fc8: d7 05 05 13 addi	a0, a0, -0x290
0x80000fcc: 00 11 26 23 sw	ra, 0xc(sp)
0x80000fd0: 84 0f f0 ef jal	ra, 0x80000010
0x80000010: fe 01 01 13 addi	sp, sp, -0x20
0x80000014: 00 11 2e 23 sw	ra, 0x1c(sp)
0x80000018: 00 05 47 83 lbu	a5, 0x0(a0)
0x8000001c: 01 50 07 13 addi	a4, zero, 0x15
0x80000020: f9 f7 87 93 addi	a5, a5, -0x61
0x80000024: 0f f7 f7 93 andi	a5, a5, 0xff
0x80000028: 02 f7 60 63 bltu	a4, a5, 0x80000048
0x8000002c: 00 00 27 17 auipc	a4, 0x2
0x80000030: 74 47 07 13 addi	a4, a4, 0x744
0x80000034: 00 27 97 93 slli	a5, a5, 0x2
0x80000038: 00 e7 87 b3 add	a5, a5, a4
0x8000003c: 00 07 a7 83 lw	a5, 0x0(a5)
0x80000040: 00 e7 87 b3 add	a5, a5, a4
0x80000044: 00 07 80 67 jalr	zero, 0x0(a5)
0x8000010c: 00 00 07 97 auipc	a5, 0x0
0x80000110: 1b 07 87 93 addi	a5, a5, 0x1b0
0x80000114: 00 09 57 17 auipc	a4, 0x95
0x80000118: e6 f7 28 23 sw	a5, -0x190(a4)
0x8000011c: 75 90 00 ef jal	ra, 0x80001074
0x80001074: ff 01 01 13 addi	sp, sp, -0x10
0x80001078: 00 11 26 23 sw	ra, 0xc(sp)
0x8000107c: 00 01 07 97 auipc	a5, 0x10
0x80001080: ae 47 87 93 addi	a5, a5, -0x51c
0x80001084: 00 01 06 97 auipc	a3, 0x10
0x80001088: cd c6 86 93 addi	a3, a3, -0x324
0x8000108c: 00 00 06 17 auipc	a2, 0x0
0x80001090: f8 06 06 13 addi	a2, a2, -0x80
0x80001094: 00 c0 00 6f jal	zero, 0x800010a0
0x800010a0: 00 07 a7 03 lw	a4, 0x0(a5)
0x800010a4: fe 07 1a e3 bne	a4, zero, 0x80001098
0x800010a8: 00 c7 a0 23 sw	a2, 0x0(a5)
0x800010ac: 00 47 87 93 addi	a5, a5, 0x4
0x800010b0: fe d7 98 e3 bne	a5, a3, 0x800010a0
0x800010a0: 00 07 a7 03 lw	a4, 0x0(a5)
0x800010a4: fe 07 1a e3 bne	a4, zero, 0x80001098
0x80001098: 00 47 87 93 addi	a5, a5, 0x4
0x8000109c: 00 d7 8c 63 beq	a5, a3, 0x800010b4
0x800010a0: 00 07 a7 03 lw	a4, 0x0(a5)
0x800010a4: fe 07 1a e3 bne	a4, zero, 0x80001098
0x800010a8: 00 c7 a0 23 sw	a2, 0x0(a5)
0x800010ac: 00 47 87 93 addi	a5, a5, 0x4
0x800010b0: fe d7 98 e3 bne	a5, a3, 0x800010a0
0x800010a0: 00 07 a7 03 lw	a4, 0x0(a5)
0x800010a4: fe 07 1a e3 bne	a4, zero, 0x80001098
0x800010a8: 00 c7 a0 23 sw	a2, 0x0(a5)
0x800010ac: 00 47 87 93 addi	a5, a5, 0x4
0x800010b0: fe d7 98 e3 bne	a5, a3, 0x800010a0
0x800010a0: 00 07 a7 03 lw	a4, 0x0(a5)
0x800010a4: fe 07 1a e3 bne	a4, zero, 0x80001098
0x80001098: 00 47 87 93 addi	a5, a5, 0x4
0x8000109c: 00 d7 8c 63 beq	a5, a3, 0x800010b4
0x800010a0: 00 07 a7 03 lw	a4, 0x0(a5)
0x800010a4: fe 07 1a e3 bne	a4, zero, 0x80001098
0x80001098: 00 47 87 93 addi	a5, a5, 0x4
0x8000109c: 00 d7 8c 63 beq	a5, a3, 0x800010b4
0x800010a0: 00 07 a7 03 lw	a4, 0x0(a5)
0x800010a4: fe 07 1a e3 bne	a4, zero, 0x80001098
0x80001098: 00 47 87 93 addi	a5, a5, 0x4
0x8000109c: 00 d7 8c 63 beq	a5, a3, 0x800010b4
0x800010a0: 00 07 a7 03 lw	a4, 0x0(a5)
0x800010a4: fe 07 1a e3 bne	a4, zero, 0x80001098
0x80001098: 00 47 87 93 addi	a5, a5, 0x4
0x8000109c: 00 d7 8c 63 beq	a5, a3, 0x800010b4
0x800010a0: 00 07 a7 03 lw	a4, 0x0(a5)
0x800010a4: fe 07 1a e3 bne	a4, zero, 0x80001098
0x80001098: 00 47 87 93 addi	a5, a5, 0x4
0x8000109c: 00 d7 8c 63 beq	a5, a3, 0x800010b4
0x800010a0: 00 07 a7 03 lw	a4, 0x0(a5)
0x800010a4: fe 07 1a e3 bne	a4, zero, 0x80001098
0x80001098: 00 47 87 93 addi	a5, a5, 0x4
0x8000109c: 00 d7 8c 63 beq	a5, a3, 0x800010b4
0x800010a0: 00 07 a7 03 lw	a4, 0x0(a5)
0x800010a4: fe 07 1a e3 bne	a4, zero, 0x80001098
0x80001098: 00 47 87 93 addi	a5, a5, 0x4
0x8000109c: 00 d7 8c 63 beq	a5, a3, 0x800010b4
0x800010a0: 00 07 a7 03 lw	a4, 0x0(a5)
0x800010a4: fe 07 1a e3 bne	a4, zero, 0x80001098
0x80001098: 00 47 87 93 addi	a5, a5, 0x4
0x8000109c: 00 d7 8c 63 beq	a5, a3, 0x800010b4
0x800010a0: 00 07 a7 03 lw	a4, 0x0(a5)
0x800010a4: fe 07 1a e3 bne	a4, zero, 0x80001098
0x800010a8: 00 c7 a0 23 sw	a2, 0x0(a5)
0x800010ac: 00 47 87 93 addi	a5, a5, 0x4
0x800010b0: fe d7 98 e3 bne	a5, a3, 0x800010a0
0x800010a0: 00 07 a7 03 lw	a4, 0x0(a5)
0x800010a4: fe 07 1a e3 bne	a4, zero, 0x80001098
0x800010a8: 00 c7 a0 23 sw	a2, 0x0(a5)
0x800010ac: 00 47 87 93 addi	a5, a5, 0x4
0x800010b0: fe d7 98 e3 bne	a5, a3, 0x800010a0
0x800010a0: 00 07 a7 03 lw	a4, 0x0(a5)
0x800010a4: fe 07 1a e3 bne	a4, zero, 0x80001098
0x80001098: 00 47 87 93 addi	a5, a5, 0x4
0x8000109c: 00 d7 8c 63 beq	a5, a3, 0x800010b4
0x800010a0: 00 07 a7 03 lw	a4, 0x0(a5)
0x800010a4: fe 07 1a e3 bne	a4, zero, 0x80001098
0x80001098: 00 47 87 93 addi	a5, a5, 0x4
0x8000109c: 00 d7 8c 63 beq	a5, a3, 0x800010b4
0x800010a0: 00 07 a7 03 lw	a4, 0x0(a5)
0x800010a4: fe 07 1a e3 bne	a4, zero, 0x80001098
0x80001098: 00 47 87 93 addi	a5, a5, 0x4
0x8000109c: 00 d7 8c 63 beq	a5, a3, 0x800010b4
0x800010a0: 00 07 a7 03 lw	a4, 0x0(a5)
0x800010a4: fe 07 1a e3 bne	a4, zero, 0x80001098
0x80001098: 00 47 87 93 addi	a5, a5, 0x4
0x8000109c: 00 d7 8c 63 beq	a5, a3, 0x800010b4
0x800010a0: 00 07 a7 03 lw	a4, 0x0(a5)
0x800010a4: fe 07 1a e3 bne	a4, zero, 0x80001098
0x80001098: 00 47 87 93 addi	a5, a5, 0x4
0x8000109c: 00 d7 8c 63 beq	a5, a3, 0x800010b4
0x800010a0: 00 07 a7 03 lw	a4, 0x0(a5)
0x800010a4: fe 07 1a e3 bne	a4, zero, 0x80001098
0x80001098: 00 47 87 93 addi	a5, a5, 0x4
0x8000109c: 00 d7 8c 63 beq	a5, a3, 0x800010b4
0x800010a0: 00 07 a7 03 lw	a4, 0x0(a5)
0x800010a4: fe 07 1a e3 bne	a4, zero, 0x80001098
0x80001098: 00 47 87 93 addi	a5, a5, 0x4
0x8000109c: 00 d7 8c 63 beq	a5, a3, 0x800010b4
0x800010a0: 00 07 a7 03 lw	a4, 0x0(a5)
0x800010a4: fe 07 1a e3 bne	a4, zero, 0x80001098
0x80001098: 00 47 87 93 addi	a5, a5, 0x4
0x8000109c: 00 d7 8c 63 beq	a5, a3, 0x800010b4
0x800010a0: 00 07 a7 03 lw	a4, 0x0(a5)
0x800010a4: fe 07 1a e3 bne	a4, zero, 0x80001098
0x800010a8: 00 c7 a0 23 sw	a2, 0x0(a5)
0x800010ac: 00 47 87 93 addi	a5, a5, 0x4
0x800010b0: fe d7 98 e3 bne	a5, a3, 0x800010a0
0x800010a0: 00 07 a7 03 lw	a4, 0x0(a5)
0x800010a4: fe 07 1a e3 bne	a4, zero, 0x80001098
0x800010a8: 00 c7 a0 23 sw	a2, 0x0(a5)
0x800010ac: 00 47 87 93 addi	a5, a5, 0x4
0x800010b0: fe d7 98 e3 bne	a5, a3, 0x800010a0
0x800010a0: 00 07 a7 03 lw	a4, 0x0(a5)
0x800010a4: fe 07 1a e3 bne	a4, zero, 0x80001098
0x800010a8: 00 c7 a0 23 sw	a2, 0x0(a5)
0x800010ac: 00 47 87 93 addi	a5, a5, 0x4
0x800010b0: fe d7 98 e3 bne	a5, a3, 0x800010a0
0x800010a0: 00 07 a7 03 lw	a4, 0x0(a5)
0x800010a4: fe 07 1a e3 bne	a4, zero, 0x80001098
0x800010a8: 00 c7 a0 23 sw	a2, 0x0(a5)
0x800010ac: 00 47 87 93 addi	a5, a5, 0x4
0x800010b0: fe d7 98 e3 bne	a5, a3, 0x800010a0
0x800010a0: 00 07 a7 03 lw	a4, 0x0(a5)
0x800010a4: fe 07 1a e3 bne	a4, zero, 0x80001098
0x800010a8: 00 c7 a0 23 sw	a2, 0x0(a5)
0x800010ac: 00 47 87 93 addi	a5, a5, 0x4
0x800010b0: fe d7 98 e3 bne	a5, a3, 0x800010a0
0x800010a0: 00 07 a7 03 lw	a4, 0x0(a5)
0x800010a4: fe 07 1a e3 bne	a4, zero, 0x80001098
0x800010a8: 00 c7 a0 23 sw	a2, 0x0(a5)
0x800010ac: 00 47 87 93 addi	a5, a5, 0x4
0x800010b0: fe d7 98 e3 bne	a5, a3, 0x800010a0
0x800010a0: 00 07 a7 03 lw	a4, 0x0(a5)
0x800010a4: fe 07 1a e3 bne	a4, zero, 0x80001098
0x800010a8: 00 c7 a0 23 sw	a2, 0x0(a5)
0x800010ac: 00 47 87 93 addi	a5, a5, 0x4
0x800010b0: fe d7 98 e3 bne	a5, a3, 0x800010a0
0x800010a0: 00 07 a7 03 lw	a4, 0x0(a5)
0x800010a4: fe 07 1a e3 bne	a4, zero, 0x80001098
0x800010a8: 00 c7 a0 23 sw	a2, 0x0(a5)
0x800010ac: 00 47 87 93 addi	a5, a5, 0x4
0x800010b0: fe d7 98 e3 bne	a5, a3, 0x800010a0
0x800010a0: 00 07 a7 03 lw	a4, 0x0(a5)
0x800010a4: fe 07 1a e3 bne	a4, zero, 0x80001098
0x800010a8: 00 c7 a0 23 sw	a2, 0x0(a5)
0x800010ac: 00 47 87 93 addi	a5, a5, 0x4
0x800010b0: fe d7 98 e3 bne	a5, a3, 0x800010a0
0x800010a0: 00 07 a7 03 lw	a4, 0x0(a5)
0x800010a4: fe 07 1a e3 bne	a4, zero, 0x80001098
0x800010a8: 00 c7 a0 23 sw	a2, 0x0(a5)
0x800010ac: 00 47 87 93 addi	a5, a5, 0x4
0x800010b0: fe d7 98 e3 bne	a5, a3, 0x800010a0
0x800010a0: 00 07 a7 03 lw	a4, 0x0(a5)
0x800010a4: fe 07 1a e3 bne	a4, zero, 0x80001098
0x800010a8: 00 c7 a0 23 sw	a2, 0x0(a5)
0x800010ac: 00 47 87 93 addi	a5, a5, 0x4
0x800010b0: fe d7 98 e3 bne	a5, a3, 0x800010a0
0x800010a0: 00 07 a7 03 lw	a4, 0x0(a5)
0x800010a4: fe 07 1a e3 bne	a4, zero, 0x80001098
0x800010a8: 00 c7 a0 23 sw	a2, 0x0(a5)
0x800010ac: 00 47 87 93 addi	a5, a5, 0x4
0x800010b0: fe d7 98 e3 bne	a5, a3, 0x800010a0
0x800010a0: 00 07 a7 03 lw	a4, 0x0(a5)
0x800010a4: fe 07 1a e3 bne	a4, zero, 0x80001098
0x800010a8: 00 c7 a0 23 sw	a2, 0x0(a5)
0x800010ac: 00 47 87 93 addi	a5, a5, 0x4
0x800010b0: fe d7 98 e3 bne	a5, a3, 0x800010a0
0x800010a0: 00 07 a7 03 lw	a4, 0x0(a5)
0x800010a4: fe 07 1a e3 bne	a4, zero, 0x80001098
0x800010a8: 00 c7 a0 23 sw	a2, 0x0(a5)
0x800010ac: 00 47 87 93 addi	a5, a5, 0x4
0x800010b0: fe d7 98 e3 bne	a5, a3, 0x800010a0
0x800010a0: 00 07 a7 03 lw	a4, 0x0(a5)
0x800010a4: fe 07 1a e3 bne	a4, zero, 0x80001098
0x800010a8: 00 c7 a0 23 sw	a2, 0x0(a5)
0x800010ac: 00 47 87 93 addi	a5, a5, 0x4
0x800010b0: fe d7 98 e3 bne	a5, a3, 0x800010a0
0x800010a0: 00 07 a7 03 lw	a4, 0x0(a5)
0x800010a4: fe 07 1a e3 bne	a4, zero, 0x80001098
0x800010a8: 00 c7 a0 23 sw	a2, 0x0(a5)
0x800010ac: 00 47 87 93 addi	a5, a5, 0x4
0x800010b0: fe d7 98 e3 bne	a5, a3, 0x800010a0
0x800010a0: 00 07 a7 03 lw	a4, 0x0(a5)
0x800010a4: fe 07 1a e3 bne	a4, zero, 0x80001098
0x800010a8: 00 c7 a0 23 sw	a2, 0x0(a5)
0x800010ac: 00 47 87 93 addi	a5, a5, 0x4
0x800010b0: fe d7 98 e3 bne	a5, a3, 0x800010a0
0x800010a0: 00 07 a7 03 lw	a4, 0x0(a5)
0x800010a4: fe 07 1a e3 bne	a4, zero, 0x80001098
0x800010a8: 00 c7 a0 23 sw	a2, 0x0(a5)
0x800010ac: 00 47 87 93 addi	a5, a5, 0x4
0x800010b0: fe d7 98 e3 bne	a5, a3, 0x800010a0
0x800010a0: 00 07 a7 03 lw	a4, 0x0(a5)
0x800010a4: fe 07 1a e3 bne	a4, zero, 0x80001098
0x800010a8: 00 c7 a0 23 sw	a2, 0x0(a5)
0x800010ac: 00 47 87 93 addi	a5, a5, 0x4
0x800010b0: fe d7 98 e3 bne	a5, a3, 0x800010a0
0x800010a0: 00 07 a7 03 lw	a4, 0x0(a5)
0x800010a4: fe 07 1a e3 bne	a4, zero, 0x80001098
0x800010a8: 00 c7 a0 23 sw	a2, 0x0(a5)
0x800010ac: 00 47 87 93 addi	a5, a5, 0x4
0x800010b0: fe d7 98 e3 bne	a5, a3, 0x800010a0
0x800010a0: 00 07 a7 03 lw	a4, 0x0(a5)
0x800010a4: fe 07 1a e3 bne	a4, zero, 0x80001098
0x800010a8: 00 c7 a0 23 sw	a2, 0x0(a5)
0x800010ac: 00 47 87 93 addi	a5, a5, 0x4
0x800010b0: fe d7 98 e3 bne	a5, a3, 0x800010a0
0x800010a0: 00 07 a7 03 lw	a4, 0x0(a5)
0x800010a4: fe 07 1a e3 bne	a4, zero, 0x80001098
0x800010a8: 00 c7 a0 23 sw	a2, 0x0(a5)
0x800010ac: 00 47 87 93 addi	a5, a5, 0x4
0x800010b0: fe d7 98 e3 bne	a5, a3, 0x800010a0
0x800010a0: 00 07 a7 03 lw	a4, 0x0(a5)
0x800010a4: fe 07 1a e3 bne	a4, zero, 0x80001098
0x800010a8: 00 c7 a0 23 sw	a2, 0x0(a5)
0x800010ac: 00 47 87 93 addi	a5, a5, 0x4
0x800010b0: fe d7 98 e3 bne	a5, a3, 0x800010a0
0x800010a0: 00 07 a7 03 lw	a4, 0x0(a5)
0x800010a4: fe 07 1a e3 bne	a4, zero, 0x80001098
0x800010a8: 00 c7 a0 23 sw	a2, 0x0(a5)
0x800010ac: 00 47 87 93 addi	a5, a5, 0x4
0x800010b0: fe d7 98 e3 bne	a5, a3, 0x800010a0
0x800010a0: 00 07 a7 03 lw	a4, 0x0(a5)
0x800010a4: fe 07 1a e3 bne	a4, zero, 0x80001098
0x800010a8: 00 c7 a0 23 sw	a2, 0x0(a5)
0x800010ac: 00 47 87 93 addi	a5, a5, 0x4
0x800010b0: fe d7 98 e3 bne	a5, a3, 0x800010a0
0x800010a0: 00 07 a7 03 lw	a4, 0x0(a5)
0x800010a4: fe 07 1a e3 bne	a4, zero, 0x80001098
0x800010a8: 00 c7 a0 23 sw	a2, 0x0(a5)
0x800010ac: 00 47 87 93 addi	a5, a5, 0x4
0x800010b0: fe d7 98 e3 bne	a5, a3, 0x800010a0
0x800010a0: 00 07 a7 03 lw	a4, 0x0(a5)
0x800010a4: fe 07 1a e3 bne	a4, zero, 0x80001098
0x800010a8: 00 c7 a0 23 sw	a2, 0x0(a5)
0x800010ac: 00 47 87 93 addi	a5, a5, 0x4
0x800010b0: fe d7 98 e3 bne	a5, a3, 0x800010a0
0x800010a0: 00 07 a7 03 lw	a4, 0x0(a5)
0x800010a4: fe 07 1a e3 bne	a4, zero, 0x80001098
0x800010a8: 00 c7 a0 23 sw	a2, 0x0(a5)
0x800010ac: 00 47 87 93 addi	a5, a5, 0x4
0x800010b0: fe d7 98 e3 bne	a5, a3, 0x800010a0
0x800010a0: 00 07 a7 03 lw	a4, 0x0(a5)
0x800010a4: fe 07 1a e3 bne	a4, zero, 0x80001098
0x800010a8: 00 c7 a0 23 sw	a2, 0x0(a5)
0x800010ac: 00 47 87 93 addi	a5, a5, 0x4
0x800010b0: fe d7 98 e3 bne	a5, a3, 0x800010a0
0x800010a0: 00 07 a7 03 lw	a4, 0x0(a5)
0x800010a4: fe 07 1a e3 bne	a4, zero, 0x80001098
0x800010a8: 00 c7 a0 23 sw	a2, 0x0(a5)
0x800010ac: 00 47 87 93 addi	a5, a5, 0x4
0x800010b0: fe d7 98 e3 bne	a5, a3, 0x800010a0
0x800010a0: 00 07 a7 03 lw	a4, 0x0(a5)
0x800010a4: fe 07 1a e3 bne	a4, zero, 0x80001098
0x800010a8: 00 c7 a0 23 sw	a2, 0x0(a5)
0x800010ac: 00 47 87 93 addi	a5, a5, 0x4
0x800010b0: fe d7 98 e3 bne	a5, a3, 0x800010a0
0x800010a0: 00 07 a7 03 lw	a4, 0x0(a5)
0x800010a4: fe 07 1a e3 bne	a4, zero, 0x80001098
0x800010a8: 00 c7 a0 23 sw	a2, 0x0(a5)
0x800010ac: 00 47 87 93 addi	a5, a5, 0x4
0x800010b0: fe d7 98 e3 bne	a5, a3, 0x800010a0
0x800010a0: 00 07 a7 03 lw	a4, 0x0(a5)
0x800010a4: fe 07 1a e3 bne	a4, zero, 0x80001098
0x800010a8: 00 c7 a0 23 sw	a2, 0x0(a5)
0x800010ac: 00 47 87 93 addi	a5, a5, 0x4
0x800010b0: fe d7 98 e3 bne	a5, a3, 0x800010a0
0x800010a0: 00 07 a7 03 lw	a4, 0x0(a5)
0x800010a4: fe 07 1a e3 bne	a4, zero, 0x80001098
0x800010a8: 00 c7 a0 23 sw	a2, 0x0(a5)
0x800010ac: 00 47 87 93 addi	a5, a5, 0x4
0x800010b0: fe d7 98 e3 bne	a5, a3, 0x800010a0
0x800010a0: 00 07 a7 03 lw	a4, 0x0(a5)
0x800010a4: fe 07 1a e3 bne	a4, zero, 0x80001098
0x800010a8: 00 c7 a0 23 sw	a2, 0x0(a5)
0x800010ac: 00 47 87 93 addi	a5, a5, 0x4
0x800010b0: fe d7 98 e3 bne	a5, a3, 0x800010a0
0x800010a0: 00 07 a7 03 lw	a4, 0x0(a5)
0x800010a4: fe 07 1a e3 bne	a4, zero, 0x80001098
0x800010a8: 00 c7 a0 23 sw	a2, 0x0(a5)
0x800010ac: 00 47 87 93 addi	a5, a5, 0x4
0x800010b0: fe d7 98 e3 bne	a5, a3, 0x800010a0
0x800010a0: 00 07 a7 03 lw	a4, 0x0(a5)
0x800010a4: fe 07 1a e3 bne	a4, zero, 0x80001098
0x800010a8: 00 c7 a0 23 sw	a2, 0x0(a5)
0x800010ac: 00 47 87 93 addi	a5, a5, 0x4
0x800010b0: fe d7 98 e3 bne	a5, a3, 0x800010a0
0x800010a0: 00 07 a7 03 lw	a4, 0x0(a5)
0x800010a4: fe 07 1a e3 bne	a4, zero, 0x80001098
0x800010a8: 00 c7 a0 23 sw	a2, 0x0(a5)
0x800010ac: 00 47 87 93 addi	a5, a5, 0x4
0x800010b0: fe d7 98 e3 bne	a5, a3, 0x800010a0
0x800010a0: 00 07 a7 03 lw	a4, 0x0(a5)
0x800010a4: fe 07 1a e3 bne	a4, zero, 0x80001098
0x800010a8: 00 c7 a0 23 sw	a2, 0x0(a5)
0x800010ac: 00 47 87 93 addi	a5, a5, 0x4
0x800010b0: fe d7 98 e3 bne	a5, a3, 0x800010a0
0x800010a0: 00 07 a7 03 lw	a4, 0x0(a5)
0x800010a4: fe 07 1a e3 bne	a4, zero, 0x80001098
0x800010a8: 00 c7 a0 23 sw	a2, 0x0(a5)
0x800010ac: 00 47 87 93 addi	a5, a5, 0x4
0x800010b0: fe d7 98 e3 bne	a5, a3, 0x800010a0
0x800010a0: 00 07 a7 03 lw	a4, 0x0(a5)
0x800010a4: fe 07 1a e3 bne	a4, zero, 0x80001098
0x800010a8: 00 c7 a0 23 sw	a2, 0x0(a5)
0x800010ac: 00 47 87 93 addi	a5, a5, 0x4
0x800010b0: fe d7 98 e3 bne	a5, a3, 0x800010a0
0x800010a0: 00 07 a7 03 lw	a4, 0x0(a5)
0x800010a4: fe 07 1a e3 bne	a4, zero, 0x80001098
0x800010a8: 00 c7 a0 23 sw	a2, 0x0(a5)
0x800010ac: 00 47 87 93 addi	a5, a5, 0x4
0x800010b0: fe d7 98 e3 bne	a5, a3, 0x800010a0
0x800010a0: 00 07 a7 03 lw	a4, 0x0(a5)
0x800010a4: fe 07 1a e3 bne	a4, zero, 0x80001098
0x800010a8: 00 c7 a0 23 sw	a2, 0x0(a5)
0x800010ac: 00 47 87 93 addi	a5, a5, 0x4
0x800010b0: fe d7 98 e3 bne	a5, a3, 0x800010a0
0x800010a0: 00 07 a7 03 lw	a4, 0x0(a5)
0x800010a4: fe 07 1a e3 bne	a4, zero, 0x80001098
0x800010a8: 00 c7 a0 23 sw	a2, 0x0(a5)
0x800010ac: 00 47 87 93 addi	a5, a5, 0x4
0x800010b0: fe d7 98 e3 bne	a5, a3, 0x800010a0
0x800010a0: 00 07 a7 03 lw	a4, 0x0(a5)
0x800010a4: fe 07 1a e3 bne	a4, zero, 0x80001098
0x800010a8: 00 c7 a0 23 sw	a2, 0x0(a5)
0x800010ac: 00 47 87 93 addi	a5, a5, 0x4
0x800010b0: fe d7 98 e3 bne	a5, a3, 0x800010a0
0x800010a0: 00 07 a7 03 lw	a4, 0x0(a5)
0x800010a4: fe 07 1a e3 bne	a4, zero, 0x80001098
0x800010a8: 00 c7 a0 23 sw	a2, 0x0(a5)
0x800010ac: 00 47 87 93 addi	a5, a5, 0x4
0x800010b0: fe d7 98 e3 bne	a5, a3, 0x800010a0
0x800010a0: 00 07 a7 03 lw	a4, 0x0(a5)
0x800010a4: fe 07 1a e3 bne	a4, zero, 0x80001098
0x800010a8: 00 c7 a0 23 sw	a2, 0x0(a5)
0x800010ac: 00 47 87 93 addi	a5, a5, 0x4
0x800010b0: fe d7 98 e3 bne	a5, a3, 0x800010a0
0x800010a0: 00 07 a7 03 lw	a4, 0x0(a5)
0x800010a4: fe 07 1a e3 bne	a4, zero, 0x80001098
0x800010a8: 00 c7 a0 23 sw	a2, 0x0(a5)
0x800010ac: 00 47 87 93 addi	a5, a5, 0x4
0x800010b0: fe d7 98 e3 bne	a5, a3, 0x800010a0
0x800010a0: 00 07 a7 03 lw	a4, 0x0(a5)
0x800010a4: fe 07 1a e3 bne	a4, zero, 0x80001098
0x800010a8: 00 c7 a0 23 sw	a2, 0x0(a5)
0x800010ac: 00 47 87 93 addi	a5, a5, 0x4
0x800010b0: fe d7 98 e3 bne	a5, a3, 0x800010a0
0x800010a0: 00 07 a7 03 lw	a4, 0x0(a5)
0x800010a4: fe 07 1a e3 bne	a4, zero, 0x80001098
0x800010a8: 00 c7 a0 23 sw	a2, 0x0(a5)
0x800010ac: 00 47 87 93 addi	a5, a5, 0x4
0x800010b0: fe d7 98 e3 bne	a5, a3, 0x800010a0
0x800010a0: 00 07 a7 03 lw	a4, 0x0(a5)
0x800010a4: fe 07 1a e3 bne	a4, zero, 0x80001098
0x800010a8: 00 c7 a0 23 sw	a2, 0x0(a5)
0x800010ac: 00 47 87 93 addi	a5, a5, 0x4
0x800010b0: fe d7 98 e3 bne	a5, a3, 0x800010a0
0x800010a0: 00 07 a7 03 lw	a4, 0x0(a5)
0x800010a4: fe 07 1a e3 bne	a4, zero, 0x80001098
0x800010a8: 00 c7 a0 23 sw	a2, 0x0(a5)
0x800010ac: 00 47 87 93 addi	a5, a5, 0x4
0x800010b0: fe d7 98 e3 bne	a5, a3, 0x800010a0
0x800010a0: 00 07 a7 03 lw	a4, 0x0(a5)
0x800010a4: fe 07 1a e3 bne	a4, zero, 0x80001098
0x800010a8: 00 c7 a0 23 sw	a2, 0x0(a5)
0x800010ac: 00 47 87 93 addi	a5, a5, 0x4
0x800010b0: fe d7 98 e3 bne	a5, a3, 0x800010a0
0x800010a0: 00 07 a7 03 lw	a4, 0x0(a5)
0x800010a4: fe 07 1a e3 bne	a4, zero, 0x80001098
0x800010a8: 00 c7 a0 23 sw	a2, 0x0(a5)
0x800010ac: 00 47 87 93 addi	a5, a5, 0x4
0x800010b0: fe d7 98 e3 bne	a5, a3, 0x800010a0
0x800010a0: 00 07 a7 03 lw	a4, 0x0(a5)
0x800010a4: fe 07 1a e3 bne	a4, zero, 0x80001098
0x800010a8: 00 c7 a0 23 sw	a2, 0x0(a5)
0x800010ac: 00 47 87 93 addi	a5, a5, 0x4
0x800010b0: fe d7 98 e3 bne	a5, a3, 0x800010a0
0x800010a0: 00 07 a7 03 lw	a4, 0x0(a5)
0x800010a4: fe 07 1a e3 bne	a4, zero, 0x80001098
0x800010a8: 00 c7 a0 23 sw	a2, 0x0(a5)
0x800010ac: 00 47 87 93 addi	a5, a5, 0x4
0x800010b0: fe d7 98 e3 bne	a5, a3, 0x800010a0
0x800010a0: 00 07 a7 03 lw	a4, 0x0(a5)
0x800010a4: fe 07 1a e3 bne	a4, zero, 0x80001098
0x800010a8: 00 c7 a0 23 sw	a2, 0x0(a5)
0x800010ac: 00 47 87 93 addi	a5, a5, 0x4
0x800010b0: fe d7 98 e3 bne	a5, a3, 0x800010a0
0x800010a0: 00 07 a7 03 lw	a4, 0x0(a5)
0x800010a4: fe 07 1a e3 bne	a4, zero, 0x80001098
0x800010a8: 00 c7 a0 23 sw	a2, 0x0(a5)
0x800010ac: 00 47 87 93 addi	a5, a5, 0x4
0x800010b0: fe d7 98 e3 bne	a5, a3, 0x800010a0
0x800010a0: 00 07 a7 03 lw	a4, 0x0(a5)
0x800010a4: fe 07 1a e3 bne	a4, zero, 0x80001098
0x800010a8: 00 c7 a0 23 sw	a2, 0x0(a5)
0x800010ac: 00 47 87 93 addi	a5, a5, 0x4
0x800010b0: fe d7 98 e3 bne	a5, a3, 0x800010a0
0x800010a0: 00 07 a7 03 lw	a4, 0x0(a5)
0x800010a4: fe 07 1a e3 bne	a4, zero, 0x80001098
0x800010a8: 00 c7 a0 23 sw	a2, 0x0(a5)
0x800010ac: 00 47 87 93 addi	a5, a5, 0x4
0x800010b0: fe d7 98 e3 bne	a5, a3, 0x800010a0
0x800010a0: 00 07 a7 03 lw	a4, 0x0(a5)
0x800010a4: fe 07 1a e3 bne	a4, zero, 0x80001098
0x800010a8: 00 c7 a0 23 sw	a2, 0x0(a5)
0x800010ac: 00 47 87 93 addi	a5, a5, 0x4
0x800010b0: fe d7 98 e3 bne	a5, a3, 0x800010a0
0x800010a0: 00 07 a7 03 lw	a4, 0x0(a5)
0x800010a4: fe 07 1a e3 bne	a4, zero, 0x80001098
0x800010a8: 00 c7 a0 23 sw	a2, 0x0(a5)
0x800010ac: 00 47 87 93 addi	a5, a5, 0x4
0x800010b0: fe d7 98 e3 bne	a5, a3, 0x800010a0
0x800010a0: 00 07 a7 03 lw	a4, 0x0(a5)
0x800010a4: fe 07 1a e3 bne	a4, zero, 0x80001098
0x800010a8: 00 c7 a0 23 sw	a2, 0x0(a5)
0x800010ac: 00 47 87 93 addi	a5, a5, 0x4
0x800010b0: fe d7 98 e3 bne	a5, a3, 0x800010a0
0x800010a0: 00 07 a7 03 lw	a4, 0x0(a5)
0x800010a4: fe 07 1a e3 bne	a4, zero, 0x80001098
0x800010a8: 00 c7 a0 23 sw	a2, 0x0(a5)
0x800010ac: 00 47 87 93 addi	a5, a5, 0x4
0x800010b0: fe d7 98 e3 bne	a5, a3, 0x800010a0
0x800010a0: 00 07 a7 03 lw	a4, 0x0(a5)
0x800010a4: fe 07 1a e3 bne	a4, zero, 0x80001098
0x800010a8: 00 c7 a0 23 sw	a2, 0x0(a5)
0x800010ac: 00 47 87 93 addi	a5, a5, 0x4
0x800010b0: fe d7 98 e3 bne	a5, a3, 0x800010a0
0x800010a0: 00 07 a7 03 lw	a4, 0x0(a5)
0x800010a4: fe 07 1a e3 bne	a4, zero, 0x80001098
0x800010a8: 00 c7 a0 23 sw	a2, 0x0(a5)
0x800010ac: 00 47 87 93 addi	a5, a5, 0x4
0x800010b0: fe d7 98 e3 bne	a5, a3, 0x800010a0
0x800010a0: 00 07 a7 03 lw	a4, 0x0(a5)
0x800010a4: fe 07 1a e3 bne	a4, zero, 0x80001098
0x800010a8: 00 c7 a0 23 sw	a2, 0x0(a5)
0x800010ac: 00 47 87 93 addi	a5, a5, 0x4
0x800010b0: fe d7 98 e3 bne	a5, a3, 0x800010a0
0x800010a0: 00 07 a7 03 lw	a4, 0x0(a5)
0x800010a4: fe 07 1a e3 bne	a4, zero, 0x80001098
0x800010a8: 00 c7 a0 23 sw	a2, 0x0(a5)
0x800010ac: 00 47 87 93 addi	a5, a5, 0x4
0x800010b0: fe d7 98 e3 bne	a5, a3, 0x800010a0
0x800010a0: 00 07 a7 03 lw	a4, 0x0(a5)
0x800010a4: fe 07 1a e3 bne	a4, zero, 0x80001098
0x800010a8: 00 c7 a0 23 sw	a2, 0x0(a5)
0x800010ac: 00 47 87 93 addi	a5, a5, 0x4
0x800010b0: fe d7 98 e3 bne	a5, a3, 0x800010a0
0x800010a0: 00 07 a7 03 lw	a4, 0x0(a5)
0x800010a4: fe 07 1a e3 bne	a4, zero, 0x80001098
0x800010a8: 00 c7 a0 23 sw	a2, 0x0(a5)
0x800010ac: 00 47 87 93 addi	a5, a5, 0x4
0x800010b0: fe d7 98 e3 bne	a5, a3, 0x800010a0
0x800010a0: 00 07 a7 03 lw	a4, 0x0(a5)
0x800010a4: fe 07 1a e3 bne	a4, zero, 0x80001098
0x800010a8: 00 c7 a0 23 sw	a2, 0x0(a5)
0x800010ac: 00 47 87 93 addi	a5, a5, 0x4
0x800010b0: fe d7 98 e3 bne	a5, a3, 0x800010a0
0x800010a0: 00 07 a7 03 lw	a4, 0x0(a5)
0x800010a4: fe 07 1a e3 bne	a4, zero, 0x80001098
0x800010a8: 00 c7 a0 23 sw	a2, 0x0(a5)
0x800010ac: 00 47 87 93 addi	a5, a5, 0x4
0x800010b0: fe d7 98 e3 bne	a5, a3, 0x800010a0
0x800010a0: 00 07 a7 03 lw	a4, 0x0(a5)
0x800010a4: fe 07 1a e3 bne	a4, zero, 0x80001098
0x800010a8: 00 c7 a0 23 sw	a2, 0x0(a5)
0x800010ac: 00 47 87 93 addi	a5, a5, 0x4
0x800010b0: fe d7 98 e3 bne	a5, a3, 0x800010a0
0x800010a0: 00 07 a7 03 lw	a4, 0x0(a5)
0x800010a4: fe 07 1a e3 bne	a4, zero, 0x80001098
0x800010a8: 00 c7 a0 23 sw	a2, 0x0(a5)
0x800010ac: 00 47 87 93 addi	a5, a5, 0x4
0x800010b0: fe d7 98 e3 bne	a5, a3, 0x800010a0
0x800010a0: 00 07 a7 03 lw	a4, 0x0(a5)
0x800010a4: fe 07 1a e3 bne	a4, zero, 0x80001098
0x800010a8: 00 c7 a0 23 sw	a2, 0x0(a5)
0x800010ac: 00 47 87 93 addi	a5, a5, 0x4
0x800010b0: fe d7 98 e3 bne	a5, a3, 0x800010a0
0x800010a0: 00 07 a7 03 lw	a4, 0x0(a5)
0x800010a4: fe 07 1a e3 bne	a4, zero, 0x80001098
0x800010a8: 00 c7 a0 23 sw	a2, 0x0(a5)
0x800010ac: 00 47 87 93 addi	a5, a5, 0x4
0x800010b0: fe d7 98 e3 bne	a5, a3, 0x800010a0
0x800010a0: 00 07 a7 03 lw	a4, 0x0(a5)
0x800010a4: fe 07 1a e3 bne	a4, zero, 0x80001098
0x800010a8: 00 c7 a0 23 sw	a2, 0x0(a5)
0x800010ac: 00 47 87 93 addi	a5, a5, 0x4
0x800010b0: fe d7 98 e3 bne	a5, a3, 0x800010a0
0x800010a0: 00 07 a7 03 lw	a4, 0x0(a5)
0x800010a4: fe 07 1a e3 bne	a4, zero, 0x80001098
0x800010a8: 00 c7 a0 23 sw	a2, 0x0(a5)
0x800010ac: 00 47 87 93 addi	a5, a5, 0x4
0x800010b0: fe d7 98 e3 bne	a5, a3, 0x800010a0
0x800010a0: 00 07 a7 03 lw	a4, 0x0(a5)
0x800010a4: fe 07 1a e3 bne	a4, zero, 0x80001098
0x800010a8: 00 c7 a0 23 sw	a2, 0x0(a5)
0x800010ac: 00 47 87 93 addi	a5, a5, 0x4
0x800010b0: fe d7 98 e3 bne	a5, a3, 0x800010a0
0x800010a0: 00 07 a7 03 lw	a4, 0x0(a5)
0x800010a4: fe 07 1a e3 bne	a4, zero, 0x80001098
0x800010a8: 00 c7 a0 23 sw	a2, 0x0(a5)
0x800010ac: 00 47 87 93 addi	a5, a5, 0x4
0x800010b0: fe d7 98 e3 bne	a5, a3, 0x800010a0
0x800010a0: 00 07 a7 03 lw	a4, 0x0(a5)
0x800010a4: fe 07 1a e3 bne	a4, zero, 0x80001098
0x800010a8: 00 c7 a0 23 sw	a2, 0x0(a5)
0x800010ac: 00 47 87 93 addi	a5, a5, 0x4
0x800010b0: fe d7 98 e3 bne	a5, a3, 0x800010a0
0x800010a0: 00 07 a7 03 lw	a4, 0x0(a5)
0x800010a4: fe 07 1a e3 bne	a4, zero, 0x80001098
0x800010a8: 00 c7 a0 23 sw	a2, 0x0(a5)
0x800010ac: 00 47 87 93 addi	a5, a5, 0x4
0x800010b0: fe d7 98 e3 bne	a5, a3, 0x800010a0
0x800010a0: 00 07 a7 03 lw	a4, 0x0(a5)
0x800010a4: fe 07 1a e3 bne	a4, zero, 0x80001098
0x800010a8: 00 c7 a0 23 sw	a2, 0x0(a5)
0x800010ac: 00 47 87 93 addi	a5, a5, 0x4
0x800010b0: fe d7 98 e3 bne	a5, a3, 0x800010a0
0x800010a0: 00 07 a7 03 lw	a4, 0x0(a5)
0x800010a4: fe 07 1a e3 bne	a4, zero, 0x80001098
0x800010a8: 00 c7 a0 23 sw	a2, 0x0(a5)
0x800010ac: 00 47 87 93 addi	a5, a5, 0x4
0x800010b0: fe d7 98 e3 bne	a5, a3, 0x800010a0
0x800010a0: 00 07 a7 03 lw	a4, 0x0(a5)
0x800010a4: fe 07 1a e3 bne	a4, zero, 0x80001098
0x800010a8: 00 c7 a0 23 sw	a2, 0x0(a5)
0x800010ac: 00 47 87 93 addi	a5, a5, 0x4
0x800010b0: fe d7 98 e3 bne	a5, a3, 0x800010a0
0x800010a0: 00 07 a7 03 lw	a4, 0x0(a5)
0x800010a4: fe 07 1a e3 bne	a4, zero, 0x80001098
0x800010a8: 00 c7 a0 23 sw	a2, 0x0(a5)
0x800010ac: 00 47 87 93 addi	a5, a5, 0x4
0x800010b0: fe d7 98 e3 bne	a5, a3, 0x800010a0
0x800010a0: 00 07 a7 03 lw	a4, 0x0(a5)
0x800010a4: fe 07 1a e3 bne	a4, zero, 0x80001098
0x800010a8: 00 c7 a0 23 sw	a2, 0x0(a5)
0x800010ac: 00 47 87 93 addi	a5, a5, 0x4
0x800010b0: fe d7 98 e3 bne	a5, a3, 0x800010a0
0x800010a0: 00 07 a7 03 lw	a4, 0x0(a5)
0x800010a4: fe 07 1a e3 bne	a4, zero, 0x80001098
0x800010a8: 00 c7 a0 23 sw	a2, 0x0(a5)
0x800010ac: 00 47 87 93 addi	a5, a5, 0x4
0x800010b0: fe d7 98 e3 bne	a5, a3, 0x800010a0
0x800010a0: 00 07 a7 03 lw	a4, 0x0(a5)
0x800010a4: fe 07 1a e3 bne	a4, zero, 0x80001098
0x800010a8: 00 c7 a0 23 sw	a2, 0x0(a5)
0x800010ac: 00 47 87 93 addi	a5, a5, 0x4
0x800010b0: fe d7 98 e3 bne	a5, a3, 0x800010a0
0x800010a0: 00 07 a7 03 lw	a4, 0x0(a5)
0x800010a4: fe 07 1a e3 bne	a4, zero, 0x80001098
0x800010a8: 00 c7 a0 23 sw	a2, 0x0(a5)
0x800010ac: 00 47 87 93 addi	a5, a5, 0x4
0x800010b0: fe d7 98 e3 bne	a5, a3, 0x800010a0
0x800010a0: 00 07 a7 03 lw	a4, 0x0(a5)
0x800010a4: fe 07 1a e3 bne	a4, zero, 0x80001098
0x800010a8: 00 c7 a0 23 sw	a2, 0x0(a5)
0x800010ac: 00 47 87 93 addi	a5, a5, 0x4
0x800010b0: fe d7 98 e3 bne	a5, a3, 0x800010a0
0x800010a0: 00 07 a7 03 lw	a4, 0x0(a5)
0x800010a4: fe 07 1a e3 bne	a4, zero, 0x80001098
0x800010a8: 00 c7 a0 23 sw	a2, 0x0(a5)
0x800010ac: 00 47 87 93 addi	a5, a5, 0x4
0x800010b0: fe d7 98 e3 bne	a5, a3, 0x800010a0
0x800010a0: 00 07 a7 03 lw	a4, 0x0(a5)
0x800010a4: fe 07 1a e3 bne	a4, zero, 0x80001098
0x800010a8: 00 c7 a0 23 sw	a2, 0x0(a5)
0x800010ac: 00 47 87 93 addi	a5, a5, 0x4
0x800010b0: fe d7 98 e3 bne	a5, a3, 0x800010a0
0x800010a0: 00 07 a7 03 lw	a4, 0x0(a5)
0x800010a4: fe 07 1a e3 bne	a4, zero, 0x80001098
0x800010a8: 00 c7 a0 23 sw	a2, 0x0(a5)
0x800010ac: 00 47 87 93 addi	a5, a5, 0x4
0x800010b0: fe d7 98 e3 bne	a5, a3, 0x800010a0
0x800010a0: 00 07 a7 03 lw	a4, 0x0(a5)
0x800010a4: fe 07 1a e3 bne	a4, zero, 0x80001098
0x800010a8: 00 c7 a0 23 sw	a2, 0x0(a5)
0x800010ac: 00 47 87 93 addi	a5, a5, 0x4
0x800010b0: fe d7 98 e3 bne	a5, a3, 0x800010a0
0x800010a0: 00 07 a7 03 lw	a4, 0x0(a5)
0x800010a4: fe 07 1a e3 bne	a4, zero, 0x80001098
0x800010a8: 00 c7 a0 23 sw	a2, 0x0(a5)
0x800010ac: 00 47 87 93 addi	a5, a5, 0x4
0x800010b0: fe d7 98 e3 bne	a5, a3, 0x800010a0
0x800010a0: 00 07 a7 03 lw	a4, 0x0(a5)
0x800010a4: fe 07 1a e3 bne	a4, zero, 0x80001098
0x800010a8: 00 c7 a0 23 sw	a2, 0x0(a5)
0x800010ac: 00 47 87 93 addi	a5, a5, 0x4
0x800010b0: fe d7 98 e3 bne	a5, a3, 0x800010a0
0x800010a0: 00 07 a7 03 lw	a4, 0x0(a5)
0x800010a4: fe 07 1a e3 bne	a4, zero, 0x80001098
0x800010a8: 00 c7 a0 23 sw	a2, 0x0(a5)
0x800010ac: 00 47 87 93 addi	a5, a5, 0x4
0x800010b0: fe d7 98 e3 bne	a5, a3, 0x800010a0
0x800010a0: 00 07 a7 03 lw	a4, 0x0(a5)
0x800010a4: fe 07 1a e3 bne	a4, zero, 0x80001098
0x800010a8: 00 c7 a0 23 sw	a2, 0x0(a5)
0x800010ac: 00 47 87 93 addi	a5, a5, 0x4
0x800010b0: fe d7 98 e3 bne	a5, a3, 0x800010a0
0x800010a0: 00 07 a7 03 lw	a4, 0x0(a5)
0x800010a4: fe 07 1a e3 bne	a4, zero, 0x80001098
0x800010a8: 00 c7 a0 23 sw	a2, 0x0(a5)
0x800010ac: 00 47 87 93 addi	a5, a5, 0x4
0x800010b0: fe d7 98 e3 bne	a5, a3, 0x800010a0
0x800010a0: 00 07 a7 03 lw	a4, 0x0(a5)
0x800010a4: fe 07 1a e3 bne	a4, zero, 0x80001098
0x800010a8: 00 c7 a0 23 sw	a2, 0x0(a5)
0x800010ac: 00 47 87 93 addi	a5, a5, 0x4
0x800010b0: fe d7 98 e3 bne	a5, a3, 0x800010a0
0x800010a0: 00 07 a7 03 lw	a4, 0x0(a5)
0x800010a4: fe 07 1a e3 bne	a4, zero, 0x80001098
0x800010a8: 00 c7 a0 23 sw	a2, 0x0(a5)
0x800010ac: 00 47 87 93 addi	a5, a5, 0x4
0x800010b0: fe d7 98 e3 bne	a5, a3, 0x800010a0
0x800010a0: 00 07 a7 03 lw	a4, 0x0(a5)
0x800010a4: fe 07 1a e3 bne	a4, zero, 0x80001098
0x800010a8: 00 c7 a0 23 sw	a2, 0x0(a5)
0x800010ac: 00 47 87 93 addi	a5, a5, 0x4
0x800010b0: fe d7 98 e3 bne	a5, a3, 0x800010a0
0x800010a0: 00 07 a7 03 lw	a4, 0x0(a5)
0x800010a4: fe 07 1a e3 bne	a4, zero, 0x80001098
0x800010a8: 00 c7 a0 23 sw	a2, 0x0(a5)
0x800010ac: 00 47 87 93 addi	a5, a5, 0x4
0x800010b0: fe d7 98 e3 bne	a5, a3, 0x800010a0
0x800010a0: 00 07 a7 03 lw	a4, 0x0(a5)
0x800010a4: fe 07 1a e3 bne	a4, zero, 0x80001098
0x800010a8: 00 c7 a0 23 sw	a2, 0x0(a5)
0x800010ac: 00 47 87 93 addi	a5, a5, 0x4
0x800010b0: fe d7 98 e3 bne	a5, a3, 0x800010a0
0x800010a0: 00 07 a7 03 lw	a4, 0x0(a5)
0x800010a4: fe 07 1a e3 bne	a4, zero, 0x80001098
0x800010a8: 00 c7 a0 23 sw	a2, 0x0(a5)
0x800010ac: 00 47 87 93 addi	a5, a5, 0x4
0x800010b0: fe d7 98 e3 bne	a5, a3, 0x800010a0
0x800010b4: 0c 00 00 ef jal	ra, 0x80001174
0x80001174: 00 00 80 67 jalr	zero, 0x0(ra)
0x800010b8: 05 00 00 ef jal	ra, 0x80001108
0x80001108: 00 00 80 67 jalr	zero, 0x0(ra)
0x800010bc: 1d c0 00 ef jal	ra, 0x80001298
0x80001298: 00 00 80 67 jalr	zero, 0x0(ra)
0x800010c0: 00 c1 20 83 lw	ra, 0xc(sp)
0x800010c4: 00 10 05 13 addi	a0, zero, 0x1
0x800010c8: 01 01 01 13 addi	sp, sp, 0x10
0x800010cc: 00 00 80 67 jalr	zero, 0x0(ra)
0x80000120: 00 00 05 17 auipc	a0, 0x0
0x80000124: 0c 05 05 13 addi	a0, a0, 0xc0
0x80000128: 2b 40 10 ef jal	ra, 0x800013dc
0x800013dc: 00 05 07 93 addi	a5, a0, 0x0
0x800013e0: 00 00 07 17 auipc	a4, 0x0
0x800013e4: 03 07 07 13 addi	a4, a4, 0x30
0x800013e8: 30 57 10 73 csrrw	zero, mtvec, a4
0x800013ec: 00 10 05 13 addi	a0, zero, 0x1
0x800013f0: 00 09 47 17 auipc	a4, 0x94
0x800013f4: ba f7 24 23 sw	a5, -0x458(a4)
0x800013f8: 00 00 80 67 jalr	zero, 0x0(ra)
0x8000012c: 19 00 00 ef jal	ra, 0x800002bc
0x800002bc: fe 01 01 13 addi	sp, sp, -0x20
0x800002c0: 00 00 25 17 auipc	a0, 0x2
0x800002c4: da 05 05 13 addi	a0, a0, -0x260
0x800002c8: 00 11 2e 23 sw	ra, 0x1c(sp)
0x800002cc: 69 80 10 ef jal	ra, 0x80001964
0x80001964: fb 01 01 13 addi	sp, sp, -0x50
0x80001968: 00 00 1e 37 lui	t3, 0x1
0x8000196c: ff ff f2 b7 lui	t0, 0xfffff
0x80001970: 02 91 22 23 sw	s1, 0x24(sp)
0x80001974: 02 11 26 23 sw	ra, 0x2c(sp)
0x80001978: 02 81 24 23 sw	s0, 0x28(sp)
0x8000197c: ff ff f3 37 lui	t1, 0xfffff
0x80001980: 00 51 01 33 add	sp, sp, t0
0x80001984: 01 0e 0e 93 addi	t4, t3, 0x10
0x80001988: 00 6e 8e b3 add	t4, t4, t1
0x8000198c: 01 01 03 13 addi	t1, sp, 0x10
0x80001990: 01 01 0f 13 addi	t5, sp, 0x10
0x80001994: 00 6e 83 33 add	t1, t4, t1
0x80001998: 02 4e 0e 93 addi	t4, t3, 0x24
0x8000199c: 00 61 26 23 sw	t1, 0xc(sp)
0x800019a0: 01 ee 8e b3 add	t4, t4, t5
0x800019a4: 00 be a0 23 sw	a1, 0x0(t4)
0x800019a8: 02 8e 05 93 addi	a1, t3, 0x28
0x800019ac: 01 e5 85 b3 add	a1, a1, t5
0x800019b0: 02 ce 0e 93 addi	t4, t3, 0x2c
0x800019b4: 00 c5 a0 23 sw	a2, 0x0(a1)
0x800019b8: 01 ee 8e b3 add	t4, t4, t5
0x800019bc: 03 4e 03 13 addi	t1, t3, 0x34
0x800019c0: 00 05 05 93 addi	a1, a0, 0x0
0x800019c4: 00 c1 25 03 lw	a0, 0xc(sp)
0x800019c8: 00 de a0 23 sw	a3, 0x0(t4)
0x800019cc: 00 0e 06 93 addi	a3, t3, 0x0
0x800019d0: 03 0e 0e 13 addi	t3, t3, 0x30
0x800019d4: 01 ee 0e 33 add	t3, t3, t5
0x800019d8: 00 ee 20 23 sw	a4, 0x0(t3)
0x800019dc: 00 06 87 13 addi	a4, a3, 0x0
0x800019e0: 03 46 86 93 addi	a3, a3, 0x34
0x800019e4: 01 e6 86 b3 add	a3, a3, t5
0x800019e8: 00 f6 a0 23 sw	a5, 0x0(a3)
0x800019ec: 00 07 07 93 addi	a5, a4, 0x0
0x800019f0: 03 87 07 13 addi	a4, a4, 0x38
0x800019f4: 01 e7 07 33 add	a4, a4, t5
0x800019f8: 03 c7 87 93 addi	a5, a5, 0x3c
0x800019fc: 01 07 20 23 sw	a6, 0x0(a4)
0x80001a00: 01 e7 87 b3 add	a5, a5, t5
0x80001a04: 01 17 a0 23 sw	a7, 0x0(a5)
0x80001a08: 00 c1 27 83 lw	a5, 0xc(sp)
0x80001a0c: 00 23 03 33 add	t1, t1, sp
0x80001a10: 00 03 06 13 addi	a2, t1, 0x0
0x80001a14: fe 67 ae 23 sw	t1, -0x4(a5)
0x80001a18: ca df f0 ef jal	ra, 0x800016c4
0x800016c4: 00 05 c7 83 lbu	a5, 0x0(a1)
0x800016c8: 00 05 0f 13 addi	t5, a0, 0x0
0x800016cc: 26 07 84 63 beq	a5, zero, 0x80001934
0x800016d0: fc 01 01 13 addi	sp, sp, -0x40
0x800016d4: 02 81 2e 23 sw	s0, 0x3c(sp)
0x800016d8: 02 91 2c 23 sw	s1, 0x38(sp)
0x800016dc: 03 21 2a 23 sw	s2, 0x34(sp)
0x800016e0: 03 31 28 23 sw	s3, 0x30(sp)
0x800016e4: 00 00 07 13 addi	a4, zero, 0x0
0x800016e8: 00 00 05 13 addi	a0, zero, 0x0
0x800016ec: 00 0f 06 93 addi	a3, t5, 0x0
0x800016f0: 02 50 03 93 addi	t2, zero, 0x25
0x800016f4: 03 00 04 93 addi	s1, zero, 0x30
0x800016f8: 00 90 02 93 addi	t0, zero, 0x9
0x800016fc: 06 40 04 13 addi	s0, zero, 0x64
0x80001700: 02 00 00 6f jal	zero, 0x80001720
0x80001720: 00 17 0e 13 addi	t3, a4, 0x1
0x80001724: 00 05 09 13 addi	s2, a0, 0x0
0x80001728: fc 77 9e e3 bne	a5, t2, 0x80001704
0x80001704: 00 0e 07 13 addi	a4, t3, 0x0
0x80001708: 00 f6 80 23 sb	a5, 0x0(a3)
0x8000170c: 00 e5 87 b3 add	a5, a1, a4
0x80001710: 00 07 c7 83 lbu	a5, 0x0(a5)
0x80001714: 00 15 05 13 addi	a0, a0, 0x1
0x80001718: 00 af 06 b3 add	a3, t5, a0
0x8000171c: 0c 07 84 63 beq	a5, zero, 0x800017e4
0x80001720: 00 17 0e 13 addi	t3, a4, 0x1
0x80001724: 00 05 09 13 addi	s2, a0, 0x0
0x80001728: fc 77 9e e3 bne	a5, t2, 0x80001704
0x80001704: 00 0e 07 13 addi	a4, t3, 0x0
0x80001708: 00 f6 80 23 sb	a5, 0x0(a3)
0x8000170c: 00 e5 87 b3 add	a5, a1, a4
0x80001710: 00 07 c7 83 lbu	a5, 0x0(a5)
0x80001714: 00 15 05 13 addi	a0, a0, 0x1
0x80001718: 00 af 06 b3 add	a3, t5, a0
0x8000171c: 0c 07 84 63 beq	a5, zero, 0x800017e4
0x80001720: 00 17 0e 13 addi	t3, a4, 0x1
0x80001724: 00 05 09 13 addi	s2, a0, 0x0
0x80001728: fc 77 9e e3 bne	a5, t2, 0x80001704
0x80001704: 00 0e 07 13 addi	a4, t3, 0x0
0x80001708: 00 f6 80 23 sb	a5, 0x0(a3)
0x8000170c: 00 e5 87 b3 add	a5, a1, a4
0x80001710: 00 07 c7 83 lbu	a5, 0x0(a5)
0x80001714: 00 15 05 13 addi	a0, a0, 0x1
0x80001718: 00 af 06 b3 add	a3, t5, a0
0x8000171c: 0c 07 84 63 beq	a5, zero, 0x800017e4
0x80001720: 00 17 0e 13 addi	t3, a4, 0x1
0x80001724: 00 05 09 13 addi	s2, a0, 0x0
0x80001728: fc 77 9e e3 bne	a5, t2, 0x80001704
0x80001704: 00 0e 07 13 addi	a4, t3, 0x0
0x80001708: 00 f6 80 23 sb	a5, 0x0(a3)
0x8000170c: 00 e5 87 b3 add	a5, a1, a4
0x80001710: 00 07 c7 83 lbu	a5, 0x0(a5)
0x80001714: 00 15 05 13 addi	a0, a0, 0x1
0x80001718: 00 af 06 b3 add	a3, t5, a0
0x8000171c: 0c 07 84 63 beq	a5, zero, 0x800017e4
0x80001720: 00 17 0e 13 addi	t3, a4, 0x1
0x80001724: 00 05 09 13 addi	s2, a0, 0x0
0x80001728: fc 77 9e e3 bne	a5, t2, 0x80001704
0x80001704: 00 0e 07 13 addi	a4, t3, 0x0
0x80001708: 00 f6 80 23 sb	a5, 0x0(a3)
0x8000170c: 00 e5 87 b3 add	a5, a1, a4
0x80001710: 00 07 c7 83 lbu	a5, 0x0(a5)
0x80001714: 00 15 05 13 addi	a0, a0, 0x1
0x80001718: 00 af 06 b3 add	a3, t5, a0
0x8000171c: 0c 07 84 63 beq	a5, zero, 0x800017e4
0x80001720: 00 17 0e 13 addi	t3, a4, 0x1
0x80001724: 00 05 09 13 addi	s2, a0, 0x0
0x80001728: fc 77 9e e3 bne	a5, t2, 0x80001704
0x80001704: 00 0e 07 13 addi	a4, t3, 0x0
0x80001708: 00 f6 80 23 sb	a5, 0x0(a3)
0x8000170c: 00 e5 87 b3 add	a5, a1, a4
0x80001710: 00 07 c7 83 lbu	a5, 0x0(a5)
0x80001714: 00 15 05 13 addi	a0, a0, 0x1
0x80001718: 00 af 06 b3 add	a3, t5, a0
0x8000171c: 0c 07 84 63 beq	a5, zero, 0x800017e4
0x80001720: 00 17 0e 13 addi	t3, a4, 0x1
0x80001724: 00 05 09 13 addi	s2, a0, 0x0
0x80001728: fc 77 9e e3 bne	a5, t2, 0x80001704
0x80001704: 00 0e 07 13 addi	a4, t3, 0x0
0x80001708: 00 f6 80 23 sb	a5, 0x0(a3)
0x8000170c: 00 e5 87 b3 add	a5, a1, a4
0x80001710: 00 07 c7 83 lbu	a5, 0x0(a5)
0x80001714: 00 15 05 13 addi	a0, a0, 0x1
0x80001718: 00 af 06 b3 add	a3, t5, a0
0x8000171c: 0c 07 84 63 beq	a5, zero, 0x800017e4
0x80001720: 00 17 0e 13 addi	t3, a4, 0x1
0x80001724: 00 05 09 13 addi	s2, a0, 0x0
0x80001728: fc 77 9e e3 bne	a5, t2, 0x80001704
0x80001704: 00 0e 07 13 addi	a4, t3, 0x0
0x80001708: 00 f6 80 23 sb	a5, 0x0(a3)
0x8000170c: 00 e5 87 b3 add	a5, a1, a4
0x80001710: 00 07 c7 83 lbu	a5, 0x0(a5)
0x80001714: 00 15 05 13 addi	a0, a0, 0x1
0x80001718: 00 af 06 b3 add	a3, t5, a0
0x8000171c: 0c 07 84 63 beq	a5, zero, 0x800017e4
0x80001720: 00 17 0e 13 addi	t3, a4, 0x1
0x80001724: 00 05 09 13 addi	s2, a0, 0x0
0x80001728: fc 77 9e e3 bne	a5, t2, 0x80001704
0x80001704: 00 0e 07 13 addi	a4, t3, 0x0
0x80001708: 00 f6 80 23 sb	a5, 0x0(a3)
0x8000170c: 00 e5 87 b3 add	a5, a1, a4
0x80001710: 00 07 c7 83 lbu	a5, 0x0(a5)
0x80001714: 00 15 05 13 addi	a0, a0, 0x1
0x80001718: 00 af 06 b3 add	a3, t5, a0
0x8000171c: 0c 07 84 63 beq	a5, zero, 0x800017e4
0x80001720: 00 17 0e 13 addi	t3, a4, 0x1
0x80001724: 00 05 09 13 addi	s2, a0, 0x0
0x80001728: fc 77 9e e3 bne	a5, t2, 0x80001704
0x80001704: 00 0e 07 13 addi	a4, t3, 0x0
0x80001708: 00 f6 80 23 sb	a5, 0x0(a3)
0x8000170c: 00 e5 87 b3 add	a5, a1, a4
0x80001710: 00 07 c7 83 lbu	a5, 0x0(a5)
0x80001714: 00 15 05 13 addi	a0, a0, 0x1
0x80001718: 00 af 06 b3 add	a3, t5, a0
0x8000171c: 0c 07 84 63 beq	a5, zero, 0x800017e4
0x80001720: 00 17 0e 13 addi	t3, a4, 0x1
0x80001724: 00 05 09 13 addi	s2, a0, 0x0
0x80001728: fc 77 9e e3 bne	a5, t2, 0x80001704
0x80001704: 00 0e 07 13 addi	a4, t3, 0x0
0x80001708: 00 f6 80 23 sb	a5, 0x0(a3)
0x8000170c: 00 e5 87 b3 add	a5, a1, a4
0x80001710: 00 07 c7 83 lbu	a5, 0x0(a5)
0x80001714: 00 15 05 13 addi	a0, a0, 0x1
0x80001718: 00 af 06 b3 add	a3, t5, a0
0x8000171c: 0c 07 84 63 beq	a5, zero, 0x800017e4
0x80001720: 00 17 0e 13 addi	t3, a4, 0x1
0x80001724: 00 05 09 13 addi	s2, a0, 0x0
0x80001728: fc 77 9e e3 bne	a5, t2, 0x80001704
0x80001704: 00 0e 07 13 addi	a4, t3, 0x0
0x80001708: 00 f6 80 23 sb	a5, 0x0(a3)
0x8000170c: 00 e5 87 b3 add	a5, a1, a4
0x80001710: 00 07 c7 83 lbu	a5, 0x0(a5)
0x80001714: 00 15 05 13 addi	a0, a0, 0x1
0x80001718: 00 af 06 b3 add	a3, t5, a0
0x8000171c: 0c 07 84 63 beq	a5, zero, 0x800017e4
0x80001720: 00 17 0e 13 addi	t3, a4, 0x1
0x80001724: 00 05 09 13 addi	s2, a0, 0x0
0x80001728: fc 77 9e e3 bne	a5, t2, 0x80001704
0x80001704: 00 0e 07 13 addi	a4, t3, 0x0
0x80001708: 00 f6 80 23 sb	a5, 0x0(a3)
0x8000170c: 00 e5 87 b3 add	a5, a1, a4
0x80001710: 00 07 c7 83 lbu	a5, 0x0(a5)
0x80001714: 00 15 05 13 addi	a0, a0, 0x1
0x80001718: 00 af 06 b3 add	a3, t5, a0
0x8000171c: 0c 07 84 63 beq	a5, zero, 0x800017e4
0x80001720: 00 17 0e 13 addi	t3, a4, 0x1
0x80001724: 00 05 09 13 addi	s2, a0, 0x0
0x80001728: fc 77 9e e3 bne	a5, t2, 0x80001704
0x80001704: 00 0e 07 13 addi	a4, t3, 0x0
0x80001708: 00 f6 80 23 sb	a5, 0x0(a3)
0x8000170c: 00 e5 87 b3 add	a5, a1, a4
0x80001710: 00 07 c7 83 lbu	a5, 0x0(a5)
0x80001714: 00 15 05 13 addi	a0, a0, 0x1
0x80001718: 00 af 06 b3 add	a3, t5, a0
0x8000171c: 0c 07 84 63 beq	a5, zero, 0x800017e4
0x80001720: 00 17 0e 13 addi	t3, a4, 0x1
0x80001724: 00 05 09 13 addi	s2, a0, 0x0
0x80001728: fc 77 9e e3 bne	a5, t2, 0x80001704
0x80001704: 00 0e 07 13 addi	a4, t3, 0x0
0x80001708: 00 f6 80 23 sb	a5, 0x0(a3)
0x8000170c: 00 e5 87 b3 add	a5, a1, a4
0x80001710: 00 07 c7 83 lbu	a5, 0x0(a5)
0x80001714: 00 15 05 13 addi	a0, a0, 0x1
0x80001718: 00 af 06 b3 add	a3, t5, a0
0x8000171c: 0c 07 84 63 beq	a5, zero, 0x800017e4
0x80001720: 00 17 0e 13 addi	t3, a4, 0x1
0x80001724: 00 05 09 13 addi	s2, a0, 0x0
0x80001728: fc 77 9e e3 bne	a5, t2, 0x80001704
0x80001704: 00 0e 07 13 addi	a4, t3, 0x0
0x80001708: 00 f6 80 23 sb	a5, 0x0(a3)
0x8000170c: 00 e5 87 b3 add	a5, a1, a4
0x80001710: 00 07 c7 83 lbu	a5, 0x0(a5)
0x80001714: 00 15 05 13 addi	a0, a0, 0x1
0x80001718: 00 af 06 b3 add	a3, t5, a0
0x8000171c: 0c 07 84 63 beq	a5, zero, 0x800017e4
0x80001720: 00 17 0e 13 addi	t3, a4, 0x1
0x80001724: 00 05 09 13 addi	s2, a0, 0x0
0x80001728: fc 77 9e e3 bne	a5, t2, 0x80001704
0x80001704: 00 0e 07 13 addi	a4, t3, 0x0
0x80001708: 00 f6 80 23 sb	a5, 0x0(a3)
0x8000170c: 00 e5 87 b3 add	a5, a1, a4
0x80001710: 00 07 c7 83 lbu	a5, 0x0(a5)
0x80001714: 00 15 05 13 addi	a0, a0, 0x1
0x80001718: 00 af 06 b3 add	a3, t5, a0
0x8000171c: 0c 07 84 63 beq	a5, zero, 0x800017e4
0x80001720: 00 17 0e 13 addi	t3, a4, 0x1
0x80001724: 00 05 09 13 addi	s2, a0, 0x0
0x80001728: fc 77 9e e3 bne	a5, t2, 0x80001704
0x80001704: 00 0e 07 13 addi	a4, t3, 0x0
0x80001708: 00 f6 80 23 sb	a5, 0x0(a3)
0x8000170c: 00 e5 87 b3 add	a5, a1, a4
0x80001710: 00 07 c7 83 lbu	a5, 0x0(a5)
0x80001714: 00 15 05 13 addi	a0, a0, 0x1
0x80001718: 00 af 06 b3 add	a3, t5, a0
0x8000171c: 0c 07 84 63 beq	a5, zero, 0x800017e4
0x80001720: 00 17 0e 13 addi	t3, a4, 0x1
0x80001724: 00 05 09 13 addi	s2, a0, 0x0
0x80001728: fc 77 9e e3 bne	a5, t2, 0x80001704
0x80001704: 00 0e 07 13 addi	a4, t3, 0x0
0x80001708: 00 f6 80 23 sb	a5, 0x0(a3)
0x8000170c: 00 e5 87 b3 add	a5, a1, a4
0x80001710: 00 07 c7 83 lbu	a5, 0x0(a5)
0x80001714: 00 15 05 13 addi	a0, a0, 0x1
0x80001718: 00 af 06 b3 add	a3, t5, a0
0x8000171c: 0c 07 84 63 beq	a5, zero, 0x800017e4
0x80001720: 00 17 0e 13 addi	t3, a4, 0x1
0x80001724: 00 05 09 13 addi	s2, a0, 0x0
0x80001728: fc 77 9e e3 bne	a5, t2, 0x80001704
0x80001704: 00 0e 07 13 addi	a4, t3, 0x0
0x80001708: 00 f6 80 23 sb	a5, 0x0(a3)
0x8000170c: 00 e5 87 b3 add	a5, a1, a4
0x80001710: 00 07 c7 83 lbu	a5, 0x0(a5)
0x80001714: 00 15 05 13 addi	a0, a0, 0x1
0x80001718: 00 af 06 b3 add	a3, t5, a0
0x8000171c: 0c 07 84 63 beq	a5, zero, 0x800017e4
0x80001720: 00 17 0e 13 addi	t3, a4, 0x1
0x80001724: 00 05 09 13 addi	s2, a0, 0x0
0x80001728: fc 77 9e e3 bne	a5, t2, 0x80001704
0x80001704: 00 0e 07 13 addi	a4, t3, 0x0
0x80001708: 00 f6 80 23 sb	a5, 0x0(a3)
0x8000170c: 00 e5 87 b3 add	a5, a1, a4
0x80001710: 00 07 c7 83 lbu	a5, 0x0(a5)
0x80001714: 00 15 05 13 addi	a0, a0, 0x1
0x80001718: 00 af 06 b3 add	a3, t5, a0
0x8000171c: 0c 07 84 63 beq	a5, zero, 0x800017e4
0x80001720: 00 17 0e 13 addi	t3, a4, 0x1
0x80001724: 00 05 09 13 addi	s2, a0, 0x0
0x80001728: fc 77 9e e3 bne	a5, t2, 0x80001704
0x80001704: 00 0e 07 13 addi	a4, t3, 0x0
0x80001708: 00 f6 80 23 sb	a5, 0x0(a3)
0x8000170c: 00 e5 87 b3 add	a5, a1, a4
0x80001710: 00 07 c7 83 lbu	a5, 0x0(a5)
0x80001714: 00 15 05 13 addi	a0, a0, 0x1
0x80001718: 00 af 06 b3 add	a3, t5, a0
0x8000171c: 0c 07 84 63 beq	a5, zero, 0x800017e4
0x80001720: 00 17 0e 13 addi	t3, a4, 0x1
0x80001724: 00 05 09 13 addi	s2, a0, 0x0
0x80001728: fc 77 9e e3 bne	a5, t2, 0x80001704
0x80001704: 00 0e 07 13 addi	a4, t3, 0x0
0x80001708: 00 f6 80 23 sb	a5, 0x0(a3)
0x8000170c: 00 e5 87 b3 add	a5, a1, a4
0x80001710: 00 07 c7 83 lbu	a5, 0x0(a5)
0x80001714: 00 15 05 13 addi	a0, a0, 0x1
0x80001718: 00 af 06 b3 add	a3, t5, a0
0x8000171c: 0c 07 84 63 beq	a5, zero, 0x800017e4
0x80001720: 00 17 0e 13 addi	t3, a4, 0x1
0x80001724: 00 05 09 13 addi	s2, a0, 0x0
0x80001728: fc 77 9e e3 bne	a5, t2, 0x80001704
0x80001704: 00 0e 07 13 addi	a4, t3, 0x0
0x80001708: 00 f6 80 23 sb	a5, 0x0(a3)
0x8000170c: 00 e5 87 b3 add	a5, a1, a4
0x80001710: 00 07 c7 83 lbu	a5, 0x0(a5)
0x80001714: 00 15 05 13 addi	a0, a0, 0x1
0x80001718: 00 af 06 b3 add	a3, t5, a0
0x8000171c: 0c 07 84 63 beq	a5, zero, 0x800017e4
0x80001720: 00 17 0e 13 addi	t3, a4, 0x1
0x80001724: 00 05 09 13 addi	s2, a0, 0x0
0x80001728: fc 77 9e e3 bne	a5, t2, 0x80001704
0x80001704: 00 0e 07 13 addi	a4, t3, 0x0
0x80001708: 00 f6 80 23 sb	a5, 0x0(a3)
0x8000170c: 00 e5 87 b3 add	a5, a1, a4
0x80001710: 00 07 c7 83 lbu	a5, 0x0(a5)
0x80001714: 00 15 05 13 addi	a0, a0, 0x1
0x80001718: 00 af 06 b3 add	a3, t5, a0
0x8000171c: 0c 07 84 63 beq	a5, zero, 0x800017e4
0x80001720: 00 17 0e 13 addi	t3, a4, 0x1
0x80001724: 00 05 09 13 addi	s2, a0, 0x0
0x80001728: fc 77 9e e3 bne	a5, t2, 0x80001704
0x80001704: 00 0e 07 13 addi	a4, t3, 0x0
0x80001708: 00 f6 80 23 sb	a5, 0x0(a3)
0x8000170c: 00 e5 87 b3 add	a5, a1, a4
0x80001710: 00 07 c7 83 lbu	a5, 0x0(a5)
0x80001714: 00 15 05 13 addi	a0, a0, 0x1
0x80001718: 00 af 06 b3 add	a3, t5, a0
0x8000171c: 0c 07 84 63 beq	a5, zero, 0x800017e4
0x800017e4: 00 06 80 23 sb	zero, 0x0(a3)
0x800017e8: 03 c1 24 03 lw	s0, 0x3c(sp)
0x800017ec: 03 81 24 83 lw	s1, 0x38(sp)
0x800017f0: 03 41 29 03 lw	s2, 0x34(sp)
0x800017f4: 03 01 29 83 lw	s3, 0x30(sp)
0x800017f8: 04 01 01 13 addi	sp, sp, 0x40
0x800017fc: 00 00 80 67 jalr	zero, 0x0(ra)
0x80001a1c: 00 c1 27 83 lw	a5, 0xc(sp)
0x80001a20: 00 05 04 93 addi	s1, a0, 0x0
0x80001a24: 00 07 c5 03 lbu	a0, 0x0(a5)
0x80001a28: 00 05 0c 63 beq	a0, zero, 0x80001a40
0x80001a2c: 00 17 84 13 addi	s0, a5, 0x1
0x80001a30: d7 8f f0 ef jal	ra, 0x80000fa8
0x80000fa8: a0 00 07 b7 lui	a5, 0xa0000
0x80000fac: 3e a7 8c 23 sb	a0, 0x3f8(a5)
0x80000fb0: 00 00 80 67 jalr	zero, 0x0(ra)
0x80001a34: 00 04 45 03 lbu	a0, 0x0(s0)
0x80001a38: 00 14 04 13 addi	s0, s0, 0x1
0x80001a3c: fe 05 1a e3 bne	a0, zero, 0x80001a30
0x80001a30: d7 8f f0 ef jal	ra, 0x80000fa8
0x80000fa8: a0 00 07 b7 lui	a5, 0xa0000
0x80000fac: 3e a7 8c 23 sb	a0, 0x3f8(a5)
0x80000fb0: 00 00 80 67 jalr	zero, 0x0(ra)
0x80001a34: 00 04 45 03 lbu	a0, 0x0(s0)
0x80001a38: 00 14 04 13 addi	s0, s0, 0x1
0x80001a3c: fe 05 1a e3 bne	a0, zero, 0x80001a30
0x80001a30: d7 8f f0 ef jal	ra, 0x80000fa8
0x80000fa8: a0 00 07 b7 lui	a5, 0xa0000
0x80000fac: 3e a7 8c 23 sb	a0, 0x3f8(a5)
0x80000fb0: 00 00 80 67 jalr	zero, 0x0(ra)
0x80001a34: 00 04 45 03 lbu	a0, 0x0(s0)
0x80001a38: 00 14 04 13 addi	s0, s0, 0x1
0x80001a3c: fe 05 1a e3 bne	a0, zero, 0x80001a30
0x80001a30: d7 8f f0 ef jal	ra, 0x80000fa8
0x80000fa8: a0 00 07 b7 lui	a5, 0xa0000
0x80000fac: 3e a7 8c 23 sb	a0, 0x3f8(a5)
0x80000fb0: 00 00 80 67 jalr	zero, 0x0(ra)
0x80001a34: 00 04 45 03 lbu	a0, 0x0(s0)
0x80001a38: 00 14 04 13 addi	s0, s0, 0x1
0x80001a3c: fe 05 1a e3 bne	a0, zero, 0x80001a30
0x80001a30: d7 8f f0 ef jal	ra, 0x80000fa8
0x80000fa8: a0 00 07 b7 lui	a5, 0xa0000
0x80000fac: 3e a7 8c 23 sb	a0, 0x3f8(a5)
0x80000fb0: 00 00 80 67 jalr	zero, 0x0(ra)
0x80001a34: 00 04 45 03 lbu	a0, 0x0(s0)
0x80001a38: 00 14 04 13 addi	s0, s0, 0x1
0x80001a3c: fe 05 1a e3 bne	a0, zero, 0x80001a30
0x80001a30: d7 8f f0 ef jal	ra, 0x80000fa8
0x80000fa8: a0 00 07 b7 lui	a5, 0xa0000
0x80000fac: 3e a7 8c 23 sb	a0, 0x3f8(a5)
0x80000fb0: 00 00 80 67 jalr	zero, 0x0(ra)
0x80001a34: 00 04 45 03 lbu	a0, 0x0(s0)
0x80001a38: 00 14 04 13 addi	s0, s0, 0x1
0x80001a3c: fe 05 1a e3 bne	a0, zero, 0x80001a30
0x80001a30: d7 8f f0 ef jal	ra, 0x80000fa8
0x80000fa8: a0 00 07 b7 lui	a5, 0xa0000
0x80000fac: 3e a7 8c 23 sb	a0, 0x3f8(a5)
0x80000fb0: 00 00 80 67 jalr	zero, 0x0(ra)
0x80001a34: 00 04 45 03 lbu	a0, 0x0(s0)
0x80001a38: 00 14 04 13 addi	s0, s0, 0x1
0x80001a3c: fe 05 1a e3 bne	a0, zero, 0x80001a30
0x80001a30: d7 8f f0 ef jal	ra, 0x80000fa8
0x80000fa8: a0 00 07 b7 lui	a5, 0xa0000
0x80000fac: 3e a7 8c 23 sb	a0, 0x3f8(a5)
0x80000fb0: 00 00 80 67 jalr	zero, 0x0(ra)
0x80001a34: 00 04 45 03 lbu	a0, 0x0(s0)
0x80001a38: 00 14 04 13 addi	s0, s0, 0x1
0x80001a3c: fe 05 1a e3 bne	a0, zero, 0x80001a30
0x80001a30: d7 8f f0 ef jal	ra, 0x80000fa8
0x80000fa8: a0 00 07 b7 lui	a5, 0xa0000
0x80000fac: 3e a7 8c 23 sb	a0, 0x3f8(a5)
0x80000fb0: 00 00 80 67 jalr	zero, 0x0(ra)
0x80001a34: 00 04 45 03 lbu	a0, 0x0(s0)
0x80001a38: 00 14 04 13 addi	s0, s0, 0x1
0x80001a3c: fe 05 1a e3 bne	a0, zero, 0x80001a30
0x80001a30: d7 8f f0 ef jal	ra, 0x80000fa8
0x80000fa8: a0 00 07 b7 lui	a5, 0xa0000
0x80000fac: 3e a7 8c 23 sb	a0, 0x3f8(a5)
0x80000fb0: 00 00 80 67 jalr	zero, 0x0(ra)
0x80001a34: 00 04 45 03 lbu	a0, 0x0(s0)
0x80001a38: 00 14 04 13 addi	s0, s0, 0x1
0x80001a3c: fe 05 1a e3 bne	a0, zero, 0x80001a30
0x80001a30: d7 8f f0 ef jal	ra, 0x80000fa8
0x80000fa8: a0 00 07 b7 lui	a5, 0xa0000
0x80000fac: 3e a7 8c 23 sb	a0, 0x3f8(a5)
0x80000fb0: 00 00 80 67 jalr	zero, 0x0(ra)
0x80001a34: 00 04 45 03 lbu	a0, 0x0(s0)
0x80001a38: 00 14 04 13 addi	s0, s0, 0x1
0x80001a3c: fe 05 1a e3 bne	a0, zero, 0x80001a30
0x80001a30: d7 8f f0 ef jal	ra, 0x80000fa8
0x80000fa8: a0 00 07 b7 lui	a5, 0xa0000
0x80000fac: 3e a7 8c 23 sb	a0, 0x3f8(a5)
0x80000fb0: 00 00 80 67 jalr	zero, 0x0(ra)
0x80001a34: 00 04 45 03 lbu	a0, 0x0(s0)
0x80001a38: 00 14 04 13 addi	s0, s0, 0x1
0x80001a3c: fe 05 1a e3 bne	a0, zero, 0x80001a30
0x80001a30: d7 8f f0 ef jal	ra, 0x80000fa8
0x80000fa8: a0 00 07 b7 lui	a5, 0xa0000
0x80000fac: 3e a7 8c 23 sb	a0, 0x3f8(a5)
0x80000fb0: 00 00 80 67 jalr	zero, 0x0(ra)
0x80001a34: 00 04 45 03 lbu	a0, 0x0(s0)
0x80001a38: 00 14 04 13 addi	s0, s0, 0x1
0x80001a3c: fe 05 1a e3 bne	a0, zero, 0x80001a30
0x80001a30: d7 8f f0 ef jal	ra, 0x80000fa8
0x80000fa8: a0 00 07 b7 lui	a5, 0xa0000
0x80000fac: 3e a7 8c 23 sb	a0, 0x3f8(a5)
0x80000fb0: 00 00 80 67 jalr	zero, 0x0(ra)
0x80001a34: 00 04 45 03 lbu	a0, 0x0(s0)
0x80001a38: 00 14 04 13 addi	s0, s0, 0x1
0x80001a3c: fe 05 1a e3 bne	a0, zero, 0x80001a30
0x80001a30: d7 8f f0 ef jal	ra, 0x80000fa8
0x80000fa8: a0 00 07 b7 lui	a5, 0xa0000
0x80000fac: 3e a7 8c 23 sb	a0, 0x3f8(a5)
0x80000fb0: 00 00 80 67 jalr	zero, 0x0(ra)
0x80001a34: 00 04 45 03 lbu	a0, 0x0(s0)
0x80001a38: 00 14 04 13 addi	s0, s0, 0x1
0x80001a3c: fe 05 1a e3 bne	a0, zero, 0x80001a30
0x80001a30: d7 8f f0 ef jal	ra, 0x80000fa8
0x80000fa8: a0 00 07 b7 lui	a5, 0xa0000
0x80000fac: 3e a7 8c 23 sb	a0, 0x3f8(a5)
0x80000fb0: 00 00 80 67 jalr	zero, 0x0(ra)
0x80001a34: 00 04 45 03 lbu	a0, 0x0(s0)
0x80001a38: 00 14 04 13 addi	s0, s0, 0x1
0x80001a3c: fe 05 1a e3 bne	a0, zero, 0x80001a30
0x80001a30: d7 8f f0 ef jal	ra, 0x80000fa8
0x80000fa8: a0 00 07 b7 lui	a5, 0xa0000
0x80000fac: 3e a7 8c 23 sb	a0, 0x3f8(a5)
0x80000fb0: 00 00 80 67 jalr	zero, 0x0(ra)
0x80001a34: 00 04 45 03 lbu	a0, 0x0(s0)
0x80001a38: 00 14 04 13 addi	s0, s0, 0x1
0x80001a3c: fe 05 1a e3 bne	a0, zero, 0x80001a30
0x80001a30: d7 8f f0 ef jal	ra, 0x80000fa8
0x80000fa8: a0 00 07 b7 lui	a5, 0xa0000
0x80000fac: 3e a7 8c 23 sb	a0, 0x3f8(a5)
0x80000fb0: 00 00 80 67 jalr	zero, 0x0(ra)
0x80001a34: 00 04 45 03 lbu	a0, 0x0(s0)
0x80001a38: 00 14 04 13 addi	s0, s0, 0x1
0x80001a3c: fe 05 1a e3 bne	a0, zero, 0x80001a30
0x80001a30: d7 8f f0 ef jal	ra, 0x80000fa8
0x80000fa8: a0 00 07 b7 lui	a5, 0xa0000
0x80000fac: 3e a7 8c 23 sb	a0, 0x3f8(a5)
0x80000fb0: 00 00 80 67 jalr	zero, 0x0(ra)
0x80001a34: 00 04 45 03 lbu	a0, 0x0(s0)
0x80001a38: 00 14 04 13 addi	s0, s0, 0x1
0x80001a3c: fe 05 1a e3 bne	a0, zero, 0x80001a30
0x80001a30: d7 8f f0 ef jal	ra, 0x80000fa8
0x80000fa8: a0 00 07 b7 lui	a5, 0xa0000
0x80000fac: 3e a7 8c 23 sb	a0, 0x3f8(a5)
0x80000fb0: 00 00 80 67 jalr	zero, 0x0(ra)
0x80001a34: 00 04 45 03 lbu	a0, 0x0(s0)
0x80001a38: 00 14 04 13 addi	s0, s0, 0x1
0x80001a3c: fe 05 1a e3 bne	a0, zero, 0x80001a30
0x80001a30: d7 8f f0 ef jal	ra, 0x80000fa8
0x80000fa8: a0 00 07 b7 lui	a5, 0xa0000
0x80000fac: 3e a7 8c 23 sb	a0, 0x3f8(a5)
0x80000fb0: 00 00 80 67 jalr	zero, 0x0(ra)
0x80001a34: 00 04 45 03 lbu	a0, 0x0(s0)
0x80001a38: 00 14 04 13 addi	s0, s0, 0x1
0x80001a3c: fe 05 1a e3 bne	a0, zero, 0x80001a30
0x80001a30: d7 8f f0 ef jal	ra, 0x80000fa8
0x80000fa8: a0 00 07 b7 lui	a5, 0xa0000
0x80000fac: 3e a7 8c 23 sb	a0, 0x3f8(a5)
0x80000fb0: 00 00 80 67 jalr	zero, 0x0(ra)
0x80001a34: 00 04 45 03 lbu	a0, 0x0(s0)
0x80001a38: 00 14 04 13 addi	s0, s0, 0x1
0x80001a3c: fe 05 1a e3 bne	a0, zero, 0x80001a30
0x80001a30: d7 8f f0 ef jal	ra, 0x80000fa8
0x80000fa8: a0 00 07 b7 lui	a5, 0xa0000
0x80000fac: 3e a7 8c 23 sb	a0, 0x3f8(a5)
0x80000fb0: 00 00 80 67 jalr	zero, 0x0(ra)
0x80001a34: 00 04 45 03 lbu	a0, 0x0(s0)
0x80001a38: 00 14 04 13 addi	s0, s0, 0x1
0x80001a3c: fe 05 1a e3 bne	a0, zero, 0x80001a30
0x80001a30: d7 8f f0 ef jal	ra, 0x80000fa8
0x80000fa8: a0 00 07 b7 lui	a5, 0xa0000
0x80000fac: 3e a7 8c 23 sb	a0, 0x3f8(a5)
0x80000fb0: 00 00 80 67 jalr	zero, 0x0(ra)
0x80001a34: 00 04 45 03 lbu	a0, 0x0(s0)
0x80001a38: 00 14 04 13 addi	s0, s0, 0x1
0x80001a3c: fe 05 1a e3 bne	a0, zero, 0x80001a30
0x80001a30: d7 8f f0 ef jal	ra, 0x80000fa8
0x80000fa8: a0 00 07 b7 lui	a5, 0xa0000
0x80000fac: 3e a7 8c 23 sb	a0, 0x3f8(a5)
0x80000fb0: 00 00 80 67 jalr	zero, 0x0(ra)
0x80001a34: 00 04 45 03 lbu	a0, 0x0(s0)
0x80001a38: 00 14 04 13 addi	s0, s0, 0x1
0x80001a3c: fe 05 1a e3 bne	a0, zero, 0x80001a30
0x80001a30: d7 8f f0 ef jal	ra, 0x80000fa8
0x80000fa8: a0 00 07 b7 lui	a5, 0xa0000
0x80000fac: 3e a7 8c 23 sb	a0, 0x3f8(a5)
0x80000fb0: 00 00 80 67 jalr	zero, 0x0(ra)
0x80001a34: 00 04 45 03 lbu	a0, 0x0(s0)
0x80001a38: 00 14 04 13 addi	s0, s0, 0x1
0x80001a3c: fe 05 1a e3 bne	a0, zero, 0x80001a30
0x80001a40: 00 00 12 b7 lui	t0, 0x1
0x80001a44: 00 51 01 33 add	sp, sp, t0
0x80001a48: 02 c1 20 83 lw	ra, 0x2c(sp)
0x80001a4c: 00 04 85 13 addi	a0, s1, 0x0
0x80001a50: 02 81 24 03 lw	s0, 0x28(sp)
0x80001a54: 02 41 24 83 lw	s1, 0x24(sp)
0x80001a58: 05 01 01 13 addi	sp, sp, 0x50
0x80001a5c: 00 00 80 67 jalr	zero, 0x0(ra)
0x800002d0: 00 00 25 17 auipc	a0, 0x2
0x800002d4: da c5 05 13 addi	a0, a0, -0x254
0x800002d8: 68 c0 10 ef jal	ra, 0x80001964
0x80001964: fb 01 01 13 addi	sp, sp, -0x50
0x80001968: 00 00 1e 37 lui	t3, 0x1
0x8000196c: ff ff f2 b7 lui	t0, 0xfffff
0x80001970: 02 91 22 23 sw	s1, 0x24(sp)
0x80001974: 02 11 26 23 sw	ra, 0x2c(sp)
0x80001978: 02 81 24 23 sw	s0, 0x28(sp)
0x8000197c: ff ff f3 37 lui	t1, 0xfffff
0x80001980: 00 51 01 33 add	sp, sp, t0
0x80001984: 01 0e 0e 93 addi	t4, t3, 0x10
0x80001988: 00 6e 8e b3 add	t4, t4, t1
0x8000198c: 01 01 03 13 addi	t1, sp, 0x10
0x80001990: 01 01 0f 13 addi	t5, sp, 0x10
0x80001994: 00 6e 83 33 add	t1, t4, t1
0x80001998: 02 4e 0e 93 addi	t4, t3, 0x24
0x8000199c: 00 61 26 23 sw	t1, 0xc(sp)
0x800019a0: 01 ee 8e b3 add	t4, t4, t5
0x800019a4: 00 be a0 23 sw	a1, 0x0(t4)
0x800019a8: 02 8e 05 93 addi	a1, t3, 0x28
0x800019ac: 01 e5 85 b3 add	a1, a1, t5
0x800019b0: 02 ce 0e 93 addi	t4, t3, 0x2c
0x800019b4: 00 c5 a0 23 sw	a2, 0x0(a1)
0x800019b8: 01 ee 8e b3 add	t4, t4, t5
0x800019bc: 03 4e 03 13 addi	t1, t3, 0x34
0x800019c0: 00 05 05 93 addi	a1, a0, 0x0
0x800019c4: 00 c1 25 03 lw	a0, 0xc(sp)
0x800019c8: 00 de a0 23 sw	a3, 0x0(t4)
0x800019cc: 00 0e 06 93 addi	a3, t3, 0x0
0x800019d0: 03 0e 0e 13 addi	t3, t3, 0x30
0x800019d4: 01 ee 0e 33 add	t3, t3, t5
0x800019d8: 00 ee 20 23 sw	a4, 0x0(t3)
0x800019dc: 00 06 87 13 addi	a4, a3, 0x0
0x800019e0: 03 46 86 93 addi	a3, a3, 0x34
0x800019e4: 01 e6 86 b3 add	a3, a3, t5
0x800019e8: 00 f6 a0 23 sw	a5, 0x0(a3)
0x800019ec: 00 07 07 93 addi	a5, a4, 0x0
0x800019f0: 03 87 07 13 addi	a4, a4, 0x38
0x800019f4: 01 e7 07 33 add	a4, a4, t5
0x800019f8: 03 c7 87 93 addi	a5, a5, 0x3c
0x800019fc: 01 07 20 23 sw	a6, 0x0(a4)
0x80001a00: 01 e7 87 b3 add	a5, a5, t5
0x80001a04: 01 17 a0 23 sw	a7, 0x0(a5)
0x80001a08: 00 c1 27 83 lw	a5, 0xc(sp)
0x80001a0c: 00 23 03 33 add	t1, t1, sp
0x80001a10: 00 03 06 13 addi	a2, t1, 0x0
0x80001a14: fe 67 ae 23 sw	t1, -0x4(a5)
0x80001a18: ca df f0 ef jal	ra, 0x800016c4
0x800016c4: 00 05 c7 83 lbu	a5, 0x0(a1)
0x800016c8: 00 05 0f 13 addi	t5, a0, 0x0
0x800016cc: 26 07 84 63 beq	a5, zero, 0x80001934
0x800016d0: fc 01 01 13 addi	sp, sp, -0x40
0x800016d4: 02 81 2e 23 sw	s0, 0x3c(sp)
0x800016d8: 02 91 2c 23 sw	s1, 0x38(sp)
0x800016dc: 03 21 2a 23 sw	s2, 0x34(sp)
0x800016e0: 03 31 28 23 sw	s3, 0x30(sp)
0x800016e4: 00 00 07 13 addi	a4, zero, 0x0
0x800016e8: 00 00 05 13 addi	a0, zero, 0x0
0x800016ec: 00 0f 06 93 addi	a3, t5, 0x0
0x800016f0: 02 50 03 93 addi	t2, zero, 0x25
0x800016f4: 03 00 04 93 addi	s1, zero, 0x30
0x800016f8: 00 90 02 93 addi	t0, zero, 0x9
0x800016fc: 06 40 04 13 addi	s0, zero, 0x64
0x80001700: 02 00 00 6f jal	zero, 0x80001720
0x80001720: 00 17 0e 13 addi	t3, a4, 0x1
0x80001724: 00 05 09 13 addi	s2, a0, 0x0
0x80001728: fc 77 9e e3 bne	a5, t2, 0x80001704
0x80001704: 00 0e 07 13 addi	a4, t3, 0x0
0x80001708: 00 f6 80 23 sb	a5, 0x0(a3)
0x8000170c: 00 e5 87 b3 add	a5, a1, a4
0x80001710: 00 07 c7 83 lbu	a5, 0x0(a5)
0x80001714: 00 15 05 13 addi	a0, a0, 0x1
0x80001718: 00 af 06 b3 add	a3, t5, a0
0x8000171c: 0c 07 84 63 beq	a5, zero, 0x800017e4
0x80001720: 00 17 0e 13 addi	t3, a4, 0x1
0x80001724: 00 05 09 13 addi	s2, a0, 0x0
0x80001728: fc 77 9e e3 bne	a5, t2, 0x80001704
0x80001704: 00 0e 07 13 addi	a4, t3, 0x0
0x80001708: 00 f6 80 23 sb	a5, 0x0(a3)
0x8000170c: 00 e5 87 b3 add	a5, a1, a4
0x80001710: 00 07 c7 83 lbu	a5, 0x0(a5)
0x80001714: 00 15 05 13 addi	a0, a0, 0x1
0x80001718: 00 af 06 b3 add	a3, t5, a0
0x8000171c: 0c 07 84 63 beq	a5, zero, 0x800017e4
0x80001720: 00 17 0e 13 addi	t3, a4, 0x1
0x80001724: 00 05 09 13 addi	s2, a0, 0x0
0x80001728: fc 77 9e e3 bne	a5, t2, 0x80001704
0x80001704: 00 0e 07 13 addi	a4, t3, 0x0
0x80001708: 00 f6 80 23 sb	a5, 0x0(a3)
0x8000170c: 00 e5 87 b3 add	a5, a1, a4
0x80001710: 00 07 c7 83 lbu	a5, 0x0(a5)
0x80001714: 00 15 05 13 addi	a0, a0, 0x1
0x80001718: 00 af 06 b3 add	a3, t5, a0
0x8000171c: 0c 07 84 63 beq	a5, zero, 0x800017e4
0x80001720: 00 17 0e 13 addi	t3, a4, 0x1
0x80001724: 00 05 09 13 addi	s2, a0, 0x0
0x80001728: fc 77 9e e3 bne	a5, t2, 0x80001704
0x80001704: 00 0e 07 13 addi	a4, t3, 0x0
0x80001708: 00 f6 80 23 sb	a5, 0x0(a3)
0x8000170c: 00 e5 87 b3 add	a5, a1, a4
0x80001710: 00 07 c7 83 lbu	a5, 0x0(a5)
0x80001714: 00 15 05 13 addi	a0, a0, 0x1
0x80001718: 00 af 06 b3 add	a3, t5, a0
0x8000171c: 0c 07 84 63 beq	a5, zero, 0x800017e4
0x80001720: 00 17 0e 13 addi	t3, a4, 0x1
0x80001724: 00 05 09 13 addi	s2, a0, 0x0
0x80001728: fc 77 9e e3 bne	a5, t2, 0x80001704
0x80001704: 00 0e 07 13 addi	a4, t3, 0x0
0x80001708: 00 f6 80 23 sb	a5, 0x0(a3)
0x8000170c: 00 e5 87 b3 add	a5, a1, a4
0x80001710: 00 07 c7 83 lbu	a5, 0x0(a5)
0x80001714: 00 15 05 13 addi	a0, a0, 0x1
0x80001718: 00 af 06 b3 add	a3, t5, a0
0x8000171c: 0c 07 84 63 beq	a5, zero, 0x800017e4
0x80001720: 00 17 0e 13 addi	t3, a4, 0x1
0x80001724: 00 05 09 13 addi	s2, a0, 0x0
0x80001728: fc 77 9e e3 bne	a5, t2, 0x80001704
0x80001704: 00 0e 07 13 addi	a4, t3, 0x0
0x80001708: 00 f6 80 23 sb	a5, 0x0(a3)
0x8000170c: 00 e5 87 b3 add	a5, a1, a4
0x80001710: 00 07 c7 83 lbu	a5, 0x0(a5)
0x80001714: 00 15 05 13 addi	a0, a0, 0x1
0x80001718: 00 af 06 b3 add	a3, t5, a0
0x8000171c: 0c 07 84 63 beq	a5, zero, 0x800017e4
0x80001720: 00 17 0e 13 addi	t3, a4, 0x1
0x80001724: 00 05 09 13 addi	s2, a0, 0x0
0x80001728: fc 77 9e e3 bne	a5, t2, 0x80001704
0x80001704: 00 0e 07 13 addi	a4, t3, 0x0
0x80001708: 00 f6 80 23 sb	a5, 0x0(a3)
0x8000170c: 00 e5 87 b3 add	a5, a1, a4
0x80001710: 00 07 c7 83 lbu	a5, 0x0(a5)
0x80001714: 00 15 05 13 addi	a0, a0, 0x1
0x80001718: 00 af 06 b3 add	a3, t5, a0
0x8000171c: 0c 07 84 63 beq	a5, zero, 0x800017e4
0x80001720: 00 17 0e 13 addi	t3, a4, 0x1
0x80001724: 00 05 09 13 addi	s2, a0, 0x0
0x80001728: fc 77 9e e3 bne	a5, t2, 0x80001704
0x80001704: 00 0e 07 13 addi	a4, t3, 0x0
0x80001708: 00 f6 80 23 sb	a5, 0x0(a3)
0x8000170c: 00 e5 87 b3 add	a5, a1, a4
0x80001710: 00 07 c7 83 lbu	a5, 0x0(a5)
0x80001714: 00 15 05 13 addi	a0, a0, 0x1
0x80001718: 00 af 06 b3 add	a3, t5, a0
0x8000171c: 0c 07 84 63 beq	a5, zero, 0x800017e4
0x80001720: 00 17 0e 13 addi	t3, a4, 0x1
0x80001724: 00 05 09 13 addi	s2, a0, 0x0
0x80001728: fc 77 9e e3 bne	a5, t2, 0x80001704
0x80001704: 00 0e 07 13 addi	a4, t3, 0x0
0x80001708: 00 f6 80 23 sb	a5, 0x0(a3)
0x8000170c: 00 e5 87 b3 add	a5, a1, a4
0x80001710: 00 07 c7 83 lbu	a5, 0x0(a5)
0x80001714: 00 15 05 13 addi	a0, a0, 0x1
0x80001718: 00 af 06 b3 add	a3, t5, a0
0x8000171c: 0c 07 84 63 beq	a5, zero, 0x800017e4
0x80001720: 00 17 0e 13 addi	t3, a4, 0x1
0x80001724: 00 05 09 13 addi	s2, a0, 0x0
0x80001728: fc 77 9e e3 bne	a5, t2, 0x80001704
0x80001704: 00 0e 07 13 addi	a4, t3, 0x0
0x80001708: 00 f6 80 23 sb	a5, 0x0(a3)
0x8000170c: 00 e5 87 b3 add	a5, a1, a4
0x80001710: 00 07 c7 83 lbu	a5, 0x0(a5)
0x80001714: 00 15 05 13 addi	a0, a0, 0x1
0x80001718: 00 af 06 b3 add	a3, t5, a0
0x8000171c: 0c 07 84 63 beq	a5, zero, 0x800017e4
0x80001720: 00 17 0e 13 addi	t3, a4, 0x1
0x80001724: 00 05 09 13 addi	s2, a0, 0x0
0x80001728: fc 77 9e e3 bne	a5, t2, 0x80001704
0x80001704: 00 0e 07 13 addi	a4, t3, 0x0
0x80001708: 00 f6 80 23 sb	a5, 0x0(a3)
0x8000170c: 00 e5 87 b3 add	a5, a1, a4
0x80001710: 00 07 c7 83 lbu	a5, 0x0(a5)
0x80001714: 00 15 05 13 addi	a0, a0, 0x1
0x80001718: 00 af 06 b3 add	a3, t5, a0
0x8000171c: 0c 07 84 63 beq	a5, zero, 0x800017e4
0x80001720: 00 17 0e 13 addi	t3, a4, 0x1
0x80001724: 00 05 09 13 addi	s2, a0, 0x0
0x80001728: fc 77 9e e3 bne	a5, t2, 0x80001704
0x80001704: 00 0e 07 13 addi	a4, t3, 0x0
0x80001708: 00 f6 80 23 sb	a5, 0x0(a3)
0x8000170c: 00 e5 87 b3 add	a5, a1, a4
0x80001710: 00 07 c7 83 lbu	a5, 0x0(a5)
0x80001714: 00 15 05 13 addi	a0, a0, 0x1
0x80001718: 00 af 06 b3 add	a3, t5, a0
0x8000171c: 0c 07 84 63 beq	a5, zero, 0x800017e4
0x80001720: 00 17 0e 13 addi	t3, a4, 0x1
0x80001724: 00 05 09 13 addi	s2, a0, 0x0
0x80001728: fc 77 9e e3 bne	a5, t2, 0x80001704
0x80001704: 00 0e 07 13 addi	a4, t3, 0x0
0x80001708: 00 f6 80 23 sb	a5, 0x0(a3)
0x8000170c: 00 e5 87 b3 add	a5, a1, a4
0x80001710: 00 07 c7 83 lbu	a5, 0x0(a5)
0x80001714: 00 15 05 13 addi	a0, a0, 0x1
0x80001718: 00 af 06 b3 add	a3, t5, a0
0x8000171c: 0c 07 84 63 beq	a5, zero, 0x800017e4
0x80001720: 00 17 0e 13 addi	t3, a4, 0x1
0x80001724: 00 05 09 13 addi	s2, a0, 0x0
0x80001728: fc 77 9e e3 bne	a5, t2, 0x80001704
0x80001704: 00 0e 07 13 addi	a4, t3, 0x0
0x80001708: 00 f6 80 23 sb	a5, 0x0(a3)
0x8000170c: 00 e5 87 b3 add	a5, a1, a4
0x80001710: 00 07 c7 83 lbu	a5, 0x0(a5)
0x80001714: 00 15 05 13 addi	a0, a0, 0x1
0x80001718: 00 af 06 b3 add	a3, t5, a0
0x8000171c: 0c 07 84 63 beq	a5, zero, 0x800017e4
0x80001720: 00 17 0e 13 addi	t3, a4, 0x1
0x80001724: 00 05 09 13 addi	s2, a0, 0x0
0x80001728: fc 77 9e e3 bne	a5, t2, 0x80001704
0x80001704: 00 0e 07 13 addi	a4, t3, 0x0
0x80001708: 00 f6 80 23 sb	a5, 0x0(a3)
0x8000170c: 00 e5 87 b3 add	a5, a1, a4
0x80001710: 00 07 c7 83 lbu	a5, 0x0(a5)
0x80001714: 00 15 05 13 addi	a0, a0, 0x1
0x80001718: 00 af 06 b3 add	a3, t5, a0
0x8000171c: 0c 07 84 63 beq	a5, zero, 0x800017e4
0x80001720: 00 17 0e 13 addi	t3, a4, 0x1
0x80001724: 00 05 09 13 addi	s2, a0, 0x0
0x80001728: fc 77 9e e3 bne	a5, t2, 0x80001704
0x80001704: 00 0e 07 13 addi	a4, t3, 0x0
0x80001708: 00 f6 80 23 sb	a5, 0x0(a3)
0x8000170c: 00 e5 87 b3 add	a5, a1, a4
0x80001710: 00 07 c7 83 lbu	a5, 0x0(a5)
0x80001714: 00 15 05 13 addi	a0, a0, 0x1
0x80001718: 00 af 06 b3 add	a3, t5, a0
0x8000171c: 0c 07 84 63 beq	a5, zero, 0x800017e4
0x80001720: 00 17 0e 13 addi	t3, a4, 0x1
0x80001724: 00 05 09 13 addi	s2, a0, 0x0
0x80001728: fc 77 9e e3 bne	a5, t2, 0x80001704
0x80001704: 00 0e 07 13 addi	a4, t3, 0x0
0x80001708: 00 f6 80 23 sb	a5, 0x0(a3)
0x8000170c: 00 e5 87 b3 add	a5, a1, a4
0x80001710: 00 07 c7 83 lbu	a5, 0x0(a5)
0x80001714: 00 15 05 13 addi	a0, a0, 0x1
0x80001718: 00 af 06 b3 add	a3, t5, a0
0x8000171c: 0c 07 84 63 beq	a5, zero, 0x800017e4
0x80001720: 00 17 0e 13 addi	t3, a4, 0x1
0x80001724: 00 05 09 13 addi	s2, a0, 0x0
0x80001728: fc 77 9e e3 bne	a5, t2, 0x80001704
0x80001704: 00 0e 07 13 addi	a4, t3, 0x0
0x80001708: 00 f6 80 23 sb	a5, 0x0(a3)
0x8000170c: 00 e5 87 b3 add	a5, a1, a4
0x80001710: 00 07 c7 83 lbu	a5, 0x0(a5)
0x80001714: 00 15 05 13 addi	a0, a0, 0x1
0x80001718: 00 af 06 b3 add	a3, t5, a0
0x8000171c: 0c 07 84 63 beq	a5, zero, 0x800017e4
0x80001720: 00 17 0e 13 addi	t3, a4, 0x1
0x80001724: 00 05 09 13 addi	s2, a0, 0x0
0x80001728: fc 77 9e e3 bne	a5, t2, 0x80001704
0x80001704: 00 0e 07 13 addi	a4, t3, 0x0
0x80001708: 00 f6 80 23 sb	a5, 0x0(a3)
0x8000170c: 00 e5 87 b3 add	a5, a1, a4
0x80001710: 00 07 c7 83 lbu	a5, 0x0(a5)
0x80001714: 00 15 05 13 addi	a0, a0, 0x1
0x80001718: 00 af 06 b3 add	a3, t5, a0
0x8000171c: 0c 07 84 63 beq	a5, zero, 0x800017e4
0x80001720: 00 17 0e 13 addi	t3, a4, 0x1
0x80001724: 00 05 09 13 addi	s2, a0, 0x0
0x80001728: fc 77 9e e3 bne	a5, t2, 0x80001704
0x80001704: 00 0e 07 13 addi	a4, t3, 0x0
0x80001708: 00 f6 80 23 sb	a5, 0x0(a3)
0x8000170c: 00 e5 87 b3 add	a5, a1, a4
0x80001710: 00 07 c7 83 lbu	a5, 0x0(a5)
0x80001714: 00 15 05 13 addi	a0, a0, 0x1
0x80001718: 00 af 06 b3 add	a3, t5, a0
0x8000171c: 0c 07 84 63 beq	a5, zero, 0x800017e4
0x80001720: 00 17 0e 13 addi	t3, a4, 0x1
0x80001724: 00 05 09 13 addi	s2, a0, 0x0
0x80001728: fc 77 9e e3 bne	a5, t2, 0x80001704
0x80001704: 00 0e 07 13 addi	a4, t3, 0x0
0x80001708: 00 f6 80 23 sb	a5, 0x0(a3)
0x8000170c: 00 e5 87 b3 add	a5, a1, a4
0x80001710: 00 07 c7 83 lbu	a5, 0x0(a5)
0x80001714: 00 15 05 13 addi	a0, a0, 0x1
0x80001718: 00 af 06 b3 add	a3, t5, a0
0x8000171c: 0c 07 84 63 beq	a5, zero, 0x800017e4
0x80001720: 00 17 0e 13 addi	t3, a4, 0x1
0x80001724: 00 05 09 13 addi	s2, a0, 0x0
0x80001728: fc 77 9e e3 bne	a5, t2, 0x80001704
0x80001704: 00 0e 07 13 addi	a4, t3, 0x0
0x80001708: 00 f6 80 23 sb	a5, 0x0(a3)
0x8000170c: 00 e5 87 b3 add	a5, a1, a4
0x80001710: 00 07 c7 83 lbu	a5, 0x0(a5)
0x80001714: 00 15 05 13 addi	a0, a0, 0x1
0x80001718: 00 af 06 b3 add	a3, t5, a0
0x8000171c: 0c 07 84 63 beq	a5, zero, 0x800017e4
0x80001720: 00 17 0e 13 addi	t3, a4, 0x1
0x80001724: 00 05 09 13 addi	s2, a0, 0x0
0x80001728: fc 77 9e e3 bne	a5, t2, 0x80001704
0x80001704: 00 0e 07 13 addi	a4, t3, 0x0
0x80001708: 00 f6 80 23 sb	a5, 0x0(a3)
0x8000170c: 00 e5 87 b3 add	a5, a1, a4
0x80001710: 00 07 c7 83 lbu	a5, 0x0(a5)
0x80001714: 00 15 05 13 addi	a0, a0, 0x1
0x80001718: 00 af 06 b3 add	a3, t5, a0
0x8000171c: 0c 07 84 63 beq	a5, zero, 0x800017e4
0x80001720: 00 17 0e 13 addi	t3, a4, 0x1
0x80001724: 00 05 09 13 addi	s2, a0, 0x0
0x80001728: fc 77 9e e3 bne	a5, t2, 0x80001704
0x80001704: 00 0e 07 13 addi	a4, t3, 0x0
0x80001708: 00 f6 80 23 sb	a5, 0x0(a3)
0x8000170c: 00 e5 87 b3 add	a5, a1, a4
0x80001710: 00 07 c7 83 lbu	a5, 0x0(a5)
0x80001714: 00 15 05 13 addi	a0, a0, 0x1
0x80001718: 00 af 06 b3 add	a3, t5, a0
0x8000171c: 0c 07 84 63 beq	a5, zero, 0x800017e4
0x80001720: 00 17 0e 13 addi	t3, a4, 0x1
0x80001724: 00 05 09 13 addi	s2, a0, 0x0
0x80001728: fc 77 9e e3 bne	a5, t2, 0x80001704
0x80001704: 00 0e 07 13 addi	a4, t3, 0x0
0x80001708: 00 f6 80 23 sb	a5, 0x0(a3)
0x8000170c: 00 e5 87 b3 add	a5, a1, a4
0x80001710: 00 07 c7 83 lbu	a5, 0x0(a5)
0x80001714: 00 15 05 13 addi	a0, a0, 0x1
0x80001718: 00 af 06 b3 add	a3, t5, a0
0x8000171c: 0c 07 84 63 beq	a5, zero, 0x800017e4
0x80001720: 00 17 0e 13 addi	t3, a4, 0x1
0x80001724: 00 05 09 13 addi	s2, a0, 0x0
0x80001728: fc 77 9e e3 bne	a5, t2, 0x80001704
0x80001704: 00 0e 07 13 addi	a4, t3, 0x0
0x80001708: 00 f6 80 23 sb	a5, 0x0(a3)
0x8000170c: 00 e5 87 b3 add	a5, a1, a4
0x80001710: 00 07 c7 83 lbu	a5, 0x0(a5)
0x80001714: 00 15 05 13 addi	a0, a0, 0x1
0x80001718: 00 af 06 b3 add	a3, t5, a0
0x8000171c: 0c 07 84 63 beq	a5, zero, 0x800017e4
0x80001720: 00 17 0e 13 addi	t3, a4, 0x1
0x80001724: 00 05 09 13 addi	s2, a0, 0x0
0x80001728: fc 77 9e e3 bne	a5, t2, 0x80001704
0x80001704: 00 0e 07 13 addi	a4, t3, 0x0
0x80001708: 00 f6 80 23 sb	a5, 0x0(a3)
0x8000170c: 00 e5 87 b3 add	a5, a1, a4
0x80001710: 00 07 c7 83 lbu	a5, 0x0(a5)
0x80001714: 00 15 05 13 addi	a0, a0, 0x1
0x80001718: 00 af 06 b3 add	a3, t5, a0
0x8000171c: 0c 07 84 63 beq	a5, zero, 0x800017e4
0x80001720: 00 17 0e 13 addi	t3, a4, 0x1
0x80001724: 00 05 09 13 addi	s2, a0, 0x0
0x80001728: fc 77 9e e3 bne	a5, t2, 0x80001704
0x80001704: 00 0e 07 13 addi	a4, t3, 0x0
0x80001708: 00 f6 80 23 sb	a5, 0x0(a3)
0x8000170c: 00 e5 87 b3 add	a5, a1, a4
0x80001710: 00 07 c7 83 lbu	a5, 0x0(a5)
0x80001714: 00 15 05 13 addi	a0, a0, 0x1
0x80001718: 00 af 06 b3 add	a3, t5, a0
0x8000171c: 0c 07 84 63 beq	a5, zero, 0x800017e4
0x80001720: 00 17 0e 13 addi	t3, a4, 0x1
0x80001724: 00 05 09 13 addi	s2, a0, 0x0
0x80001728: fc 77 9e e3 bne	a5, t2, 0x80001704
0x80001704: 00 0e 07 13 addi	a4, t3, 0x0
0x80001708: 00 f6 80 23 sb	a5, 0x0(a3)
0x8000170c: 00 e5 87 b3 add	a5, a1, a4
0x80001710: 00 07 c7 83 lbu	a5, 0x0(a5)
0x80001714: 00 15 05 13 addi	a0, a0, 0x1
0x80001718: 00 af 06 b3 add	a3, t5, a0
0x8000171c: 0c 07 84 63 beq	a5, zero, 0x800017e4
0x80001720: 00 17 0e 13 addi	t3, a4, 0x1
0x80001724: 00 05 09 13 addi	s2, a0, 0x0
0x80001728: fc 77 9e e3 bne	a5, t2, 0x80001704
0x80001704: 00 0e 07 13 addi	a4, t3, 0x0
0x80001708: 00 f6 80 23 sb	a5, 0x0(a3)
0x8000170c: 00 e5 87 b3 add	a5, a1, a4
0x80001710: 00 07 c7 83 lbu	a5, 0x0(a5)
0x80001714: 00 15 05 13 addi	a0, a0, 0x1
0x80001718: 00 af 06 b3 add	a3, t5, a0
0x8000171c: 0c 07 84 63 beq	a5, zero, 0x800017e4
0x80001720: 00 17 0e 13 addi	t3, a4, 0x1
0x80001724: 00 05 09 13 addi	s2, a0, 0x0
0x80001728: fc 77 9e e3 bne	a5, t2, 0x80001704
0x80001704: 00 0e 07 13 addi	a4, t3, 0x0
0x80001708: 00 f6 80 23 sb	a5, 0x0(a3)
0x8000170c: 00 e5 87 b3 add	a5, a1, a4
0x80001710: 00 07 c7 83 lbu	a5, 0x0(a5)
0x80001714: 00 15 05 13 addi	a0, a0, 0x1
0x80001718: 00 af 06 b3 add	a3, t5, a0
0x8000171c: 0c 07 84 63 beq	a5, zero, 0x800017e4
0x80001720: 00 17 0e 13 addi	t3, a4, 0x1
0x80001724: 00 05 09 13 addi	s2, a0, 0x0
0x80001728: fc 77 9e e3 bne	a5, t2, 0x80001704
0x80001704: 00 0e 07 13 addi	a4, t3, 0x0
0x80001708: 00 f6 80 23 sb	a5, 0x0(a3)
0x8000170c: 00 e5 87 b3 add	a5, a1, a4
0x80001710: 00 07 c7 83 lbu	a5, 0x0(a5)
0x80001714: 00 15 05 13 addi	a0, a0, 0x1
0x80001718: 00 af 06 b3 add	a3, t5, a0
0x8000171c: 0c 07 84 63 beq	a5, zero, 0x800017e4
0x80001720: 00 17 0e 13 addi	t3, a4, 0x1
0x80001724: 00 05 09 13 addi	s2, a0, 0x0
0x80001728: fc 77 9e e3 bne	a5, t2, 0x80001704
0x80001704: 00 0e 07 13 addi	a4, t3, 0x0
0x80001708: 00 f6 80 23 sb	a5, 0x0(a3)
0x8000170c: 00 e5 87 b3 add	a5, a1, a4
0x80001710: 00 07 c7 83 lbu	a5, 0x0(a5)
0x80001714: 00 15 05 13 addi	a0, a0, 0x1
0x80001718: 00 af 06 b3 add	a3, t5, a0
0x8000171c: 0c 07 84 63 beq	a5, zero, 0x800017e4
0x80001720: 00 17 0e 13 addi	t3, a4, 0x1
0x80001724: 00 05 09 13 addi	s2, a0, 0x0
0x80001728: fc 77 9e e3 bne	a5, t2, 0x80001704
0x80001704: 00 0e 07 13 addi	a4, t3, 0x0
0x80001708: 00 f6 80 23 sb	a5, 0x0(a3)
0x8000170c: 00 e5 87 b3 add	a5, a1, a4
0x80001710: 00 07 c7 83 lbu	a5, 0x0(a5)
0x80001714: 00 15 05 13 addi	a0, a0, 0x1
0x80001718: 00 af 06 b3 add	a3, t5, a0
0x8000171c: 0c 07 84 63 beq	a5, zero, 0x800017e4
0x80001720: 00 17 0e 13 addi	t3, a4, 0x1
0x80001724: 00 05 09 13 addi	s2, a0, 0x0
0x80001728: fc 77 9e e3 bne	a5, t2, 0x80001704
0x80001704: 00 0e 07 13 addi	a4, t3, 0x0
0x80001708: 00 f6 80 23 sb	a5, 0x0(a3)
0x8000170c: 00 e5 87 b3 add	a5, a1, a4
0x80001710: 00 07 c7 83 lbu	a5, 0x0(a5)
0x80001714: 00 15 05 13 addi	a0, a0, 0x1
0x80001718: 00 af 06 b3 add	a3, t5, a0
0x8000171c: 0c 07 84 63 beq	a5, zero, 0x800017e4
0x800017e4: 00 06 80 23 sb	zero, 0x0(a3)
0x800017e8: 03 c1 24 03 lw	s0, 0x3c(sp)
0x800017ec: 03 81 24 83 lw	s1, 0x38(sp)
0x800017f0: 03 41 29 03 lw	s2, 0x34(sp)
0x800017f4: 03 01 29 83 lw	s3, 0x30(sp)
0x800017f8: 04 01 01 13 addi	sp, sp, 0x40
0x800017fc: 00 00 80 67 jalr	zero, 0x0(ra)
0x80001a1c: 00 c1 27 83 lw	a5, 0xc(sp)
0x80001a20: 00 05 04 93 addi	s1, a0, 0x0
0x80001a24: 00 07 c5 03 lbu	a0, 0x0(a5)
0x80001a28: 00 05 0c 63 beq	a0, zero, 0x80001a40
0x80001a2c: 00 17 84 13 addi	s0, a5, 0x1
0x80001a30: d7 8f f0 ef jal	ra, 0x80000fa8
0x80000fa8: a0 00 07 b7 lui	a5, 0xa0000
0x80000fac: 3e a7 8c 23 sb	a0, 0x3f8(a5)
0x80000fb0: 00 00 80 67 jalr	zero, 0x0(ra)
0x80001a34: 00 04 45 03 lbu	a0, 0x0(s0)
0x80001a38: 00 14 04 13 addi	s0, s0, 0x1
0x80001a3c: fe 05 1a e3 bne	a0, zero, 0x80001a30
0x80001a30: d7 8f f0 ef jal	ra, 0x80000fa8
0x80000fa8: a0 00 07 b7 lui	a5, 0xa0000
0x80000fac: 3e a7 8c 23 sb	a0, 0x3f8(a5)
0x80000fb0: 00 00 80 67 jalr	zero, 0x0(ra)
0x80001a34: 00 04 45 03 lbu	a0, 0x0(s0)
0x80001a38: 00 14 04 13 addi	s0, s0, 0x1
0x80001a3c: fe 05 1a e3 bne	a0, zero, 0x80001a30
0x80001a30: d7 8f f0 ef jal	ra, 0x80000fa8
0x80000fa8: a0 00 07 b7 lui	a5, 0xa0000
0x80000fac: 3e a7 8c 23 sb	a0, 0x3f8(a5)
0x80000fb0: 00 00 80 67 jalr	zero, 0x0(ra)
0x80001a34: 00 04 45 03 lbu	a0, 0x0(s0)
0x80001a38: 00 14 04 13 addi	s0, s0, 0x1
0x80001a3c: fe 05 1a e3 bne	a0, zero, 0x80001a30
0x80001a30: d7 8f f0 ef jal	ra, 0x80000fa8
0x80000fa8: a0 00 07 b7 lui	a5, 0xa0000
0x80000fac: 3e a7 8c 23 sb	a0, 0x3f8(a5)
0x80000fb0: 00 00 80 67 jalr	zero, 0x0(ra)
0x80001a34: 00 04 45 03 lbu	a0, 0x0(s0)
0x80001a38: 00 14 04 13 addi	s0, s0, 0x1
0x80001a3c: fe 05 1a e3 bne	a0, zero, 0x80001a30
0x80001a30: d7 8f f0 ef jal	ra, 0x80000fa8
0x80000fa8: a0 00 07 b7 lui	a5, 0xa0000
0x80000fac: 3e a7 8c 23 sb	a0, 0x3f8(a5)
0x80000fb0: 00 00 80 67 jalr	zero, 0x0(ra)
0x80001a34: 00 04 45 03 lbu	a0, 0x0(s0)
0x80001a38: 00 14 04 13 addi	s0, s0, 0x1
0x80001a3c: fe 05 1a e3 bne	a0, zero, 0x80001a30
0x80001a30: d7 8f f0 ef jal	ra, 0x80000fa8
0x80000fa8: a0 00 07 b7 lui	a5, 0xa0000
0x80000fac: 3e a7 8c 23 sb	a0, 0x3f8(a5)
0x80000fb0: 00 00 80 67 jalr	zero, 0x0(ra)
0x80001a34: 00 04 45 03 lbu	a0, 0x0(s0)
0x80001a38: 00 14 04 13 addi	s0, s0, 0x1
0x80001a3c: fe 05 1a e3 bne	a0, zero, 0x80001a30
0x80001a30: d7 8f f0 ef jal	ra, 0x80000fa8
0x80000fa8: a0 00 07 b7 lui	a5, 0xa0000
0x80000fac: 3e a7 8c 23 sb	a0, 0x3f8(a5)
0x80000fb0: 00 00 80 67 jalr	zero, 0x0(ra)
0x80001a34: 00 04 45 03 lbu	a0, 0x0(s0)
0x80001a38: 00 14 04 13 addi	s0, s0, 0x1
0x80001a3c: fe 05 1a e3 bne	a0, zero, 0x80001a30
0x80001a30: d7 8f f0 ef jal	ra, 0x80000fa8
0x80000fa8: a0 00 07 b7 lui	a5, 0xa0000
0x80000fac: 3e a7 8c 23 sb	a0, 0x3f8(a5)
0x80000fb0: 00 00 80 67 jalr	zero, 0x0(ra)
0x80001a34: 00 04 45 03 lbu	a0, 0x0(s0)
0x80001a38: 00 14 04 13 addi	s0, s0, 0x1
0x80001a3c: fe 05 1a e3 bne	a0, zero, 0x80001a30
0x80001a30: d7 8f f0 ef jal	ra, 0x80000fa8
0x80000fa8: a0 00 07 b7 lui	a5, 0xa0000
0x80000fac: 3e a7 8c 23 sb	a0, 0x3f8(a5)
0x80000fb0: 00 00 80 67 jalr	zero, 0x0(ra)
0x80001a34: 00 04 45 03 lbu	a0, 0x0(s0)
0x80001a38: 00 14 04 13 addi	s0, s0, 0x1
0x80001a3c: fe 05 1a e3 bne	a0, zero, 0x80001a30
0x80001a30: d7 8f f0 ef jal	ra, 0x80000fa8
0x80000fa8: a0 00 07 b7 lui	a5, 0xa0000
0x80000fac: 3e a7 8c 23 sb	a0, 0x3f8(a5)
0x80000fb0: 00 00 80 67 jalr	zero, 0x0(ra)
0x80001a34: 00 04 45 03 lbu	a0, 0x0(s0)
0x80001a38: 00 14 04 13 addi	s0, s0, 0x1
0x80001a3c: fe 05 1a e3 bne	a0, zero, 0x80001a30
0x80001a30: d7 8f f0 ef jal	ra, 0x80000fa8
0x80000fa8: a0 00 07 b7 lui	a5, 0xa0000
0x80000fac: 3e a7 8c 23 sb	a0, 0x3f8(a5)
0x80000fb0: 00 00 80 67 jalr	zero, 0x0(ra)
0x80001a34: 00 04 45 03 lbu	a0, 0x0(s0)
0x80001a38: 00 14 04 13 addi	s0, s0, 0x1
0x80001a3c: fe 05 1a e3 bne	a0, zero, 0x80001a30
0x80001a30: d7 8f f0 ef jal	ra, 0x80000fa8
0x80000fa8: a0 00 07 b7 lui	a5, 0xa0000
0x80000fac: 3e a7 8c 23 sb	a0, 0x3f8(a5)
0x80000fb0: 00 00 80 67 jalr	zero, 0x0(ra)
0x80001a34: 00 04 45 03 lbu	a0, 0x0(s0)
0x80001a38: 00 14 04 13 addi	s0, s0, 0x1
0x80001a3c: fe 05 1a e3 bne	a0, zero, 0x80001a30
0x80001a30: d7 8f f0 ef jal	ra, 0x80000fa8
0x80000fa8: a0 00 07 b7 lui	a5, 0xa0000
0x80000fac: 3e a7 8c 23 sb	a0, 0x3f8(a5)
0x80000fb0: 00 00 80 67 jalr	zero, 0x0(ra)
0x80001a34: 00 04 45 03 lbu	a0, 0x0(s0)
0x80001a38: 00 14 04 13 addi	s0, s0, 0x1
0x80001a3c: fe 05 1a e3 bne	a0, zero, 0x80001a30
0x80001a30: d7 8f f0 ef jal	ra, 0x80000fa8
0x80000fa8: a0 00 07 b7 lui	a5, 0xa0000
0x80000fac: 3e a7 8c 23 sb	a0, 0x3f8(a5)
0x80000fb0: 00 00 80 67 jalr	zero, 0x0(ra)
0x80001a34: 00 04 45 03 lbu	a0, 0x0(s0)
0x80001a38: 00 14 04 13 addi	s0, s0, 0x1
0x80001a3c: fe 05 1a e3 bne	a0, zero, 0x80001a30
0x80001a30: d7 8f f0 ef jal	ra, 0x80000fa8
0x80000fa8: a0 00 07 b7 lui	a5, 0xa0000
0x80000fac: 3e a7 8c 23 sb	a0, 0x3f8(a5)
0x80000fb0: 00 00 80 67 jalr	zero, 0x0(ra)
0x80001a34: 00 04 45 03 lbu	a0, 0x0(s0)
0x80001a38: 00 14 04 13 addi	s0, s0, 0x1
0x80001a3c: fe 05 1a e3 bne	a0, zero, 0x80001a30
0x80001a30: d7 8f f0 ef jal	ra, 0x80000fa8
0x80000fa8: a0 00 07 b7 lui	a5, 0xa0000
0x80000fac: 3e a7 8c 23 sb	a0, 0x3f8(a5)
0x80000fb0: 00 00 80 67 jalr	zero, 0x0(ra)
0x80001a34: 00 04 45 03 lbu	a0, 0x0(s0)
0x80001a38: 00 14 04 13 addi	s0, s0, 0x1
0x80001a3c: fe 05 1a e3 bne	a0, zero, 0x80001a30
0x80001a30: d7 8f f0 ef jal	ra, 0x80000fa8
0x80000fa8: a0 00 07 b7 lui	a5, 0xa0000
0x80000fac: 3e a7 8c 23 sb	a0, 0x3f8(a5)
0x80000fb0: 00 00 80 67 jalr	zero, 0x0(ra)
0x80001a34: 00 04 45 03 lbu	a0, 0x0(s0)
0x80001a38: 00 14 04 13 addi	s0, s0, 0x1
0x80001a3c: fe 05 1a e3 bne	a0, zero, 0x80001a30
0x80001a30: d7 8f f0 ef jal	ra, 0x80000fa8
0x80000fa8: a0 00 07 b7 lui	a5, 0xa0000
0x80000fac: 3e a7 8c 23 sb	a0, 0x3f8(a5)
0x80000fb0: 00 00 80 67 jalr	zero, 0x0(ra)
0x80001a34: 00 04 45 03 lbu	a0, 0x0(s0)
0x80001a38: 00 14 04 13 addi	s0, s0, 0x1
0x80001a3c: fe 05 1a e3 bne	a0, zero, 0x80001a30
0x80001a30: d7 8f f0 ef jal	ra, 0x80000fa8
0x80000fa8: a0 00 07 b7 lui	a5, 0xa0000
0x80000fac: 3e a7 8c 23 sb	a0, 0x3f8(a5)
0x80000fb0: 00 00 80 67 jalr	zero, 0x0(ra)
0x80001a34: 00 04 45 03 lbu	a0, 0x0(s0)
0x80001a38: 00 14 04 13 addi	s0, s0, 0x1
0x80001a3c: fe 05 1a e3 bne	a0, zero, 0x80001a30
0x80001a30: d7 8f f0 ef jal	ra, 0x80000fa8
0x80000fa8: a0 00 07 b7 lui	a5, 0xa0000
0x80000fac: 3e a7 8c 23 sb	a0, 0x3f8(a5)
0x80000fb0: 00 00 80 67 jalr	zero, 0x0(ra)
0x80001a34: 00 04 45 03 lbu	a0, 0x0(s0)
0x80001a38: 00 14 04 13 addi	s0, s0, 0x1
0x80001a3c: fe 05 1a e3 bne	a0, zero, 0x80001a30
0x80001a30: d7 8f f0 ef jal	ra, 0x80000fa8
0x80000fa8: a0 00 07 b7 lui	a5, 0xa0000
0x80000fac: 3e a7 8c 23 sb	a0, 0x3f8(a5)
0x80000fb0: 00 00 80 67 jalr	zero, 0x0(ra)
0x80001a34: 00 04 45 03 lbu	a0, 0x0(s0)
0x80001a38: 00 14 04 13 addi	s0, s0, 0x1
0x80001a3c: fe 05 1a e3 bne	a0, zero, 0x80001a30
0x80001a30: d7 8f f0 ef jal	ra, 0x80000fa8
0x80000fa8: a0 00 07 b7 lui	a5, 0xa0000
0x80000fac: 3e a7 8c 23 sb	a0, 0x3f8(a5)
0x80000fb0: 00 00 80 67 jalr	zero, 0x0(ra)
0x80001a34: 00 04 45 03 lbu	a0, 0x0(s0)
0x80001a38: 00 14 04 13 addi	s0, s0, 0x1
0x80001a3c: fe 05 1a e3 bne	a0, zero, 0x80001a30
0x80001a30: d7 8f f0 ef jal	ra, 0x80000fa8
0x80000fa8: a0 00 07 b7 lui	a5, 0xa0000
0x80000fac: 3e a7 8c 23 sb	a0, 0x3f8(a5)
0x80000fb0: 00 00 80 67 jalr	zero, 0x0(ra)
0x80001a34: 00 04 45 03 lbu	a0, 0x0(s0)
0x80001a38: 00 14 04 13 addi	s0, s0, 0x1
0x80001a3c: fe 05 1a e3 bne	a0, zero, 0x80001a30
0x80001a30: d7 8f f0 ef jal	ra, 0x80000fa8
0x80000fa8: a0 00 07 b7 lui	a5, 0xa0000
0x80000fac: 3e a7 8c 23 sb	a0, 0x3f8(a5)
0x80000fb0: 00 00 80 67 jalr	zero, 0x0(ra)
0x80001a34: 00 04 45 03 lbu	a0, 0x0(s0)
0x80001a38: 00 14 04 13 addi	s0, s0, 0x1
0x80001a3c: fe 05 1a e3 bne	a0, zero, 0x80001a30
0x80001a30: d7 8f f0 ef jal	ra, 0x80000fa8
0x80000fa8: a0 00 07 b7 lui	a5, 0xa0000
0x80000fac: 3e a7 8c 23 sb	a0, 0x3f8(a5)
0x80000fb0: 00 00 80 67 jalr	zero, 0x0(ra)
0x80001a34: 00 04 45 03 lbu	a0, 0x0(s0)
0x80001a38: 00 14 04 13 addi	s0, s0, 0x1
0x80001a3c: fe 05 1a e3 bne	a0, zero, 0x80001a30
0x80001a30: d7 8f f0 ef jal	ra, 0x80000fa8
0x80000fa8: a0 00 07 b7 lui	a5, 0xa0000
0x80000fac: 3e a7 8c 23 sb	a0, 0x3f8(a5)
0x80000fb0: 00 00 80 67 jalr	zero, 0x0(ra)
0x80001a34: 00 04 45 03 lbu	a0, 0x0(s0)
0x80001a38: 00 14 04 13 addi	s0, s0, 0x1
0x80001a3c: fe 05 1a e3 bne	a0, zero, 0x80001a30
0x80001a30: d7 8f f0 ef jal	ra, 0x80000fa8
0x80000fa8: a0 00 07 b7 lui	a5, 0xa0000
0x80000fac: 3e a7 8c 23 sb	a0, 0x3f8(a5)
0x80000fb0: 00 00 80 67 jalr	zero, 0x0(ra)
0x80001a34: 00 04 45 03 lbu	a0, 0x0(s0)
0x80001a38: 00 14 04 13 addi	s0, s0, 0x1
0x80001a3c: fe 05 1a e3 bne	a0, zero, 0x80001a30
0x80001a30: d7 8f f0 ef jal	ra, 0x80000fa8
0x80000fa8: a0 00 07 b7 lui	a5, 0xa0000
0x80000fac: 3e a7 8c 23 sb	a0, 0x3f8(a5)
0x80000fb0: 00 00 80 67 jalr	zero, 0x0(ra)
0x80001a34: 00 04 45 03 lbu	a0, 0x0(s0)
0x80001a38: 00 14 04 13 addi	s0, s0, 0x1
0x80001a3c: fe 05 1a e3 bne	a0, zero, 0x80001a30
0x80001a30: d7 8f f0 ef jal	ra, 0x80000fa8
0x80000fa8: a0 00 07 b7 lui	a5, 0xa0000
0x80000fac: 3e a7 8c 23 sb	a0, 0x3f8(a5)
0x80000fb0: 00 00 80 67 jalr	zero, 0x0(ra)
0x80001a34: 00 04 45 03 lbu	a0, 0x0(s0)
0x80001a38: 00 14 04 13 addi	s0, s0, 0x1
0x80001a3c: fe 05 1a e3 bne	a0, zero, 0x80001a30
0x80001a30: d7 8f f0 ef jal	ra, 0x80000fa8
0x80000fa8: a0 00 07 b7 lui	a5, 0xa0000
0x80000fac: 3e a7 8c 23 sb	a0, 0x3f8(a5)
0x80000fb0: 00 00 80 67 jalr	zero, 0x0(ra)
0x80001a34: 00 04 45 03 lbu	a0, 0x0(s0)
0x80001a38: 00 14 04 13 addi	s0, s0, 0x1
0x80001a3c: fe 05 1a e3 bne	a0, zero, 0x80001a30
0x80001a30: d7 8f f0 ef jal	ra, 0x80000fa8
0x80000fa8: a0 00 07 b7 lui	a5, 0xa0000
0x80000fac: 3e a7 8c 23 sb	a0, 0x3f8(a5)
0x80000fb0: 00 00 80 67 jalr	zero, 0x0(ra)
0x80001a34: 00 04 45 03 lbu	a0, 0x0(s0)
0x80001a38: 00 14 04 13 addi	s0, s0, 0x1
0x80001a3c: fe 05 1a e3 bne	a0, zero, 0x80001a30
0x80001a30: d7 8f f0 ef jal	ra, 0x80000fa8
0x80000fa8: a0 00 07 b7 lui	a5, 0xa0000
0x80000fac: 3e a7 8c 23 sb	a0, 0x3f8(a5)
0x80000fb0: 00 00 80 67 jalr	zero, 0x0(ra)
0x80001a34: 00 04 45 03 lbu	a0, 0x0(s0)
0x80001a38: 00 14 04 13 addi	s0, s0, 0x1
0x80001a3c: fe 05 1a e3 bne	a0, zero, 0x80001a30
0x80001a30: d7 8f f0 ef jal	ra, 0x80000fa8
0x80000fa8: a0 00 07 b7 lui	a5, 0xa0000
0x80000fac: 3e a7 8c 23 sb	a0, 0x3f8(a5)
0x80000fb0: 00 00 80 67 jalr	zero, 0x0(ra)
0x80001a34: 00 04 45 03 lbu	a0, 0x0(s0)
0x80001a38: 00 14 04 13 addi	s0, s0, 0x1
0x80001a3c: fe 05 1a e3 bne	a0, zero, 0x80001a30
0x80001a30: d7 8f f0 ef jal	ra, 0x80000fa8
0x80000fa8: a0 00 07 b7 lui	a5, 0xa0000
0x80000fac: 3e a7 8c 23 sb	a0, 0x3f8(a5)
0x80000fb0: 00 00 80 67 jalr	zero, 0x0(ra)
0x80001a34: 00 04 45 03 lbu	a0, 0x0(s0)
0x80001a38: 00 14 04 13 addi	s0, s0, 0x1
0x80001a3c: fe 05 1a e3 bne	a0, zero, 0x80001a30
0x80001a30: d7 8f f0 ef jal	ra, 0x80000fa8
0x80000fa8: a0 00 07 b7 lui	a5, 0xa0000
0x80000fac: 3e a7 8c 23 sb	a0, 0x3f8(a5)
0x80000fb0: 00 00 80 67 jalr	zero, 0x0(ra)
0x80001a34: 00 04 45 03 lbu	a0, 0x0(s0)
0x80001a38: 00 14 04 13 addi	s0, s0, 0x1
0x80001a3c: fe 05 1a e3 bne	a0, zero, 0x80001a30
0x80001a40: 00 00 12 b7 lui	t0, 0x1
0x80001a44: 00 51 01 33 add	sp, sp, t0
0x80001a48: 02 c1 20 83 lw	ra, 0x2c(sp)
0x80001a4c: 00 04 85 13 addi	a0, s1, 0x0
0x80001a50: 02 81 24 03 lw	s0, 0x28(sp)
0x80001a54: 02 41 24 83 lw	s1, 0x24(sp)
0x80001a58: 05 01 01 13 addi	sp, sp, 0x50
0x80001a5c: 00 00 80 67 jalr	zero, 0x0(ra)
0x800002dc: 00 70 05 13 addi	a0, zero, 0x7
0x800002e0: 00 c1 05 93 addi	a1, sp, 0xc
0x800002e4: 5e d0 00 ef jal	ra, 0x800010d0
0x800010d0: 00 25 15 13 slli	a0, a0, 0x2
0x800010d4: 00 01 07 97 auipc	a5, 0x10
0x800010d8: a8 c7 87 93 addi	a5, a5, -0x574
0x800010dc: 00 a7 87 b3 add	a5, a5, a0
0x800010e0: 00 07 a7 83 lw	a5, 0x0(a5)
0x800010e4: 00 05 85 13 addi	a0, a1, 0x0
0x800010e8: 00 07 80 67 jalr	zero, 0x0(a5)
0x80000ff0: 00 10 07 93 addi	a5, zero, 0x1
0x80000ff4: 00 f5 00 23 sb	a5, 0x0(a0)
0x80000ff8: 00 00 80 67 jalr	zero, 0x0(ra)
0x800002e8: 00 10 05 13 addi	a0, zero, 0x1
0x800002ec: 11 c0 10 ef jal	ra, 0x80001408
0x80001408: 00 00 80 67 jalr	zero, 0x0(ra)
0x800002f0: 10 c0 10 ef jal	ra, 0x800013fc
0x800013fc: ff f0 08 93 addi	a7, zero, -0x1
0x80001400: 00 00 00 73 ecall
0x80001410: f7 41 01 13 addi	sp, sp, -0x8c
0x80001414: 00 11 22 23 sw	ra, 0x4(sp)
0x80001418: 00 31 26 23 sw	gp, 0xc(sp)
0x8000141c: 00 41 28 23 sw	tp, 0x10(sp)
0x80001420: 00 51 2a 23 sw	t0, 0x14(sp)
0x80001424: 00 61 2c 23 sw	t1, 0x18(sp)
0x80001428: 00 71 2e 23 sw	t2, 0x1c(sp)
0x8000142c: 02 81 20 23 sw	s0, 0x20(sp)
0x80001430: 02 91 22 23 sw	s1, 0x24(sp)
0x80001434: 02 a1 24 23 sw	a0, 0x28(sp)
0x80001438: 02 b1 26 23 sw	a1, 0x2c(sp)
0x8000143c: 02 c1 28 23 sw	a2, 0x30(sp)
0x80001440: 02 d1 2a 23 sw	a3, 0x34(sp)
0x80001444: 02 e1 2c 23 sw	a4, 0x38(sp)
0x80001448: 02 f1 2e 23 sw	a5, 0x3c(sp)
0x8000144c: 05 01 20 23 sw	a6, 0x40(sp)
0x80001450: 05 11 22 23 sw	a7, 0x44(sp)
0x80001454: 05 21 24 23 sw	s2, 0x48(sp)
0x80001458: 05 31 26 23 sw	s3, 0x4c(sp)
0x8000145c: 05 41 28 23 sw	s4, 0x50(sp)
0x80001460: 05 51 2a 23 sw	s5, 0x54(sp)
0x80001464: 05 61 2c 23 sw	s6, 0x58(sp)
0x80001468: 05 71 2e 23 sw	s7, 0x5c(sp)
0x8000146c: 07 81 20 23 sw	s8, 0x60(sp)
0x80001470: 07 91 22 23 sw	s9, 0x64(sp)
0x80001474: 07 a1 24 23 sw	s10, 0x68(sp)
0x80001478: 07 b1 26 23 sw	s11, 0x6c(sp)
0x8000147c: 07 c1 28 23 sw	t3, 0x70(sp)
0x80001480: 07 d1 2a 23 sw	t4, 0x74(sp)
0x80001484: 07 e1 2c 23 sw	t5, 0x78(sp)
0x80001488: 07 f1 2e 23 sw	t6, 0x7c(sp)
0x8000148c: 34 20 22 f3 csrrs	t0, mcause, zero
0x80001490: 30 00 23 73 csrrs	t1, mstatus, zero
0x80001494: 34 10 23 f3 csrrs	t2, mepc, zero
0x80001498: 08 51 20 23 sw	t0, 0x80(sp)
0x8000149c: 08 61 22 23 sw	t1, 0x84(sp)
0x800014a0: 08 71 24 23 sw	t2, 0x88(sp)
0x800014a4: 00 02 05 37 lui	a0, 0x20
0x800014a8: 00 a3 63 33 or	t1, t1, a0
0x800014ac: 30 03 10 73 csrrw	zero, mstatus, t1
0x800014b0: 00 01 05 13 addi	a0, sp, 0x0
0x800014b4: e8 5f f0 ef jal	ra, 0x80001338
0x80001338: 00 09 47 97 auipc	a5, 0x94
0x8000133c: c6 07 a7 83 lw	a5, -0x3a0(a5)
0x80001340: 00 05 05 93 addi	a1, a0, 0x0
0x80001344: 06 07 8a 63 beq	a5, zero, 0x800013b8
0x80001348: 08 05 26 03 lw	a2, 0x80(a0)
0x8000134c: fd 01 01 13 addi	sp, sp, -0x30
0x80001350: 02 11 26 23 sw	ra, 0x2c(sp)
0x80001354: 00 01 2a 23 sw	zero, 0x14(sp)
0x80001358: 00 01 2c 23 sw	zero, 0x18(sp)
0x8000135c: 00 01 2e 23 sw	zero, 0x1c(sp)
0x80001360: 00 b0 06 93 addi	a3, zero, 0xb
0x80001364: 00 40 07 13 addi	a4, zero, 0x4
0x80001368: 02 d6 0c 63 beq	a2, a3, 0x800013a0
0x800013a0: 04 45 26 03 lw	a2, 0x44(a0)
0x800013a4: ff f0 06 93 addi	a3, zero, -0x1
0x800013a8: 00 10 07 13 addi	a4, zero, 0x1
0x800013ac: fc d6 00 e3 beq	a2, a3, 0x8000136c
0x8000136c: 00 e1 20 23 sw	a4, 0x0(sp)
0x80001370: 01 41 27 03 lw	a4, 0x14(sp)
0x80001374: 00 01 05 13 addi	a0, sp, 0x0
0x80001378: 00 e1 22 23 sw	a4, 0x4(sp)
0x8000137c: 01 81 27 03 lw	a4, 0x18(sp)
0x80001380: 00 e1 24 23 sw	a4, 0x8(sp)
0x80001384: 01 c1 27 03 lw	a4, 0x1c(sp)
0x80001388: 00 e1 26 23 sw	a4, 0xc(sp)
0x8000138c: 00 07 80 e7 jalr	ra, 0x0(a5)
0x800001e0: 00 05 27 83 lw	a5, 0x0(a0)
0x800001e4: ff 01 01 13 addi	sp, sp, -0x10
0x800001e8: 00 81 24 23 sw	s0, 0x8(sp)
0x800001ec: 00 11 26 23 sw	ra, 0xc(sp)
0x800001f0: 00 50 07 13 addi	a4, zero, 0x5
0x800001f4: 00 05 84 13 addi	s0, a1, 0x0
0x800001f8: 04 e7 86 63 beq	a5, a4, 0x80000244
0x800001fc: 00 60 07 13 addi	a4, zero, 0x6
0x80000200: 02 e7 84 63 beq	a5, a4, 0x80000228
0x80000204: 00 10 07 13 addi	a4, zero, 0x1
0x80000208: 04 e7 9c 63 bne	a5, a4, 0x80000260
0x8000020c: 07 90 05 13 addi	a0, zero, 0x79
0x80000210: 59 90 00 ef jal	ra, 0x80000fa8
0x80000fa8: a0 00 07 b7 lui	a5, 0xa0000
0x80000fac: 3e a7 8c 23 sb	a0, 0x3f8(a5)
0x80000fb0: 00 00 80 67 jalr	zero, 0x0(ra)
0x80000214: 00 c1 20 83 lw	ra, 0xc(sp)
0x80000218: 00 04 05 13 addi	a0, s0, 0x0
0x8000021c: 00 81 24 03 lw	s0, 0x8(sp)
0x80000220: 01 01 01 13 addi	sp, sp, 0x10
0x80000224: 00 00 80 67 jalr	zero, 0x0(ra)
0x80001390: 02 05 06 63 beq	a0, zero, 0x800013bc
0x80001394: 02 c1 20 83 lw	ra, 0x2c(sp)
0x80001398: 03 01 01 13 addi	sp, sp, 0x30
0x8000139c: 00 00 80 67 jalr	zero, 0x0(ra)
0x800014b8: 08 41 23 03 lw	t1, 0x84(sp)
0x800014bc: 08 81 23 83 lw	t2, 0x88(sp)
0x800014c0: 30 03 10 73 csrrw	zero, mstatus, t1
0x800014c4: 34 13 90 73 csrrw	zero, mepc, t2
0x800014c8: 00 41 20 83 lw	ra, 0x4(sp)
0x800014cc: 00 c1 21 83 lw	gp, 0xc(sp)
0x800014d0: 01 01 22 03 lw	tp, 0x10(sp)
0x800014d4: 01 41 22 83 lw	t0, 0x14(sp)
0x800014d8: 01 81 23 03 lw	t1, 0x18(sp)
0x800014dc: 01 c1 23 83 lw	t2, 0x1c(sp)
0x800014e0: 02 01 24 03 lw	s0, 0x20(sp)
0x800014e4: 02 41 24 83 lw	s1, 0x24(sp)
0x800014e8: 02 81 25 03 lw	a0, 0x28(sp)
0x800014ec: 02 c1 25 83 lw	a1, 0x2c(sp)
0x800014f0: 03 01 26 03 lw	a2, 0x30(sp)
0x800014f4: 03 41 26 83 lw	a3, 0x34(sp)
0x800014f8: 03 81 27 03 lw	a4, 0x38(sp)
0x800014fc: 03 c1 27 83 lw	a5, 0x3c(sp)
0x80001500: 04 01 28 03 lw	a6, 0x40(sp)
0x80001504: 04 41 28 83 lw	a7, 0x44(sp)
0x80001508: 04 81 29 03 lw	s2, 0x48(sp)
0x8000150c: 04 c1 29 83 lw	s3, 0x4c(sp)
0x80001510: 05 01 2a 03 lw	s4, 0x50(sp)
0x80001514: 05 41 2a 83 lw	s5, 0x54(sp)
0x80001518: 05 81 2b 03 lw	s6, 0x58(sp)
0x8000151c: 05 c1 2b 83 lw	s7, 0x5c(sp)
0x80001520: 06 01 2c 03 lw	s8, 0x60(sp)
0x80001524: 06 41 2c 83 lw	s9, 0x64(sp)
0x80001528: 06 81 2d 03 lw	s10, 0x68(sp)
0x8000152c: 06 c1 2d 83 lw	s11, 0x6c(sp)
0x80001530: 07 01 2e 03 lw	t3, 0x70(sp)
0x80001534: 07 41 2e 83 lw	t4, 0x74(sp)
0x80001538: 07 81 2f 03 lw	t5, 0x78(sp)
0x8000153c: 07 c1 2f 83 lw	t6, 0x7c(sp)
0x80001540: 08 c1 01 13 addi	sp, sp, 0x8c
0x80001544: 30 20 00 73 mret
0x80001400: 00 00 00 73 ecall
0x80001410: f7 41 01 13 addi	sp, sp, -0x8c
0x80001414: 00 11 22 23 sw	ra, 0x4(sp)
0x80001418: 00 31 26 23 sw	gp, 0xc(sp)
0x8000141c: 00 41 28 23 sw	tp, 0x10(sp)
0x80001420: 00 51 2a 23 sw	t0, 0x14(sp)
0x80001424: 00 61 2c 23 sw	t1, 0x18(sp)
0x80001428: 00 71 2e 23 sw	t2, 0x1c(sp)
0x8000142c: 02 81 20 23 sw	s0, 0x20(sp)
0x80001430: 02 91 22 23 sw	s1, 0x24(sp)
0x80001434: 02 a1 24 23 sw	a0, 0x28(sp)
0x80001438: 02 b1 26 23 sw	a1, 0x2c(sp)
0x8000143c: 02 c1 28 23 sw	a2, 0x30(sp)
0x80001440: 02 d1 2a 23 sw	a3, 0x34(sp)
0x80001444: 02 e1 2c 23 sw	a4, 0x38(sp)
0x80001448: 02 f1 2e 23 sw	a5, 0x3c(sp)
0x8000144c: 05 01 20 23 sw	a6, 0x40(sp)
0x80001450: 05 11 22 23 sw	a7, 0x44(sp)
0x80001454: 05 21 24 23 sw	s2, 0x48(sp)
0x80001458: 05 31 26 23 sw	s3, 0x4c(sp)
0x8000145c: 05 41 28 23 sw	s4, 0x50(sp)
0x80001460: 05 51 2a 23 sw	s5, 0x54(sp)
0x80001464: 05 61 2c 23 sw	s6, 0x58(sp)
0x80001468: 05 71 2e 23 sw	s7, 0x5c(sp)
0x8000146c: 07 81 20 23 sw	s8, 0x60(sp)
0x80001470: 07 91 22 23 sw	s9, 0x64(sp)
0x80001474: 07 a1 24 23 sw	s10, 0x68(sp)
0x80001478: 07 b1 26 23 sw	s11, 0x6c(sp)
0x8000147c: 07 c1 28 23 sw	t3, 0x70(sp)
0x80001480: 07 d1 2a 23 sw	t4, 0x74(sp)
0x80001484: 07 e1 2c 23 sw	t5, 0x78(sp)
0x80001488: 07 f1 2e 23 sw	t6, 0x7c(sp)
0x8000148c: 34 20 22 f3 csrrs	t0, mcause, zero
0x80001490: 30 00 23 73 csrrs	t1, mstatus, zero
0x80001494: 34 10 23 f3 csrrs	t2, mepc, zero
0x80001498: 08 51 20 23 sw	t0, 0x80(sp)
0x8000149c: 08 61 22 23 sw	t1, 0x84(sp)
0x800014a0: 08 71 24 23 sw	t2, 0x88(sp)
0x800014a4: 00 02 05 37 lui	a0, 0x20
0x800014a8: 00 a3 63 33 or	t1, t1, a0
0x800014ac: 30 03 10 73 csrrw	zero, mstatus, t1
0x800014b0: 00 01 05 13 addi	a0, sp, 0x0
0x800014b4: e8 5f f0 ef jal	ra, 0x80001338
0x80001338: 00 09 47 97 auipc	a5, 0x94
0x8000133c: c6 07 a7 83 lw	a5, -0x3a0(a5)
0x80001340: 00 05 05 93 addi	a1, a0, 0x0
0x80001344: 06 07 8a 63 beq	a5, zero, 0x800013b8
0x80001348: 08 05 26 03 lw	a2, 0x80(a0)
0x8000134c: fd 01 01 13 addi	sp, sp, -0x30
0x80001350: 02 11 26 23 sw	ra, 0x2c(sp)
0x80001354: 00 01 2a 23 sw	zero, 0x14(sp)
0x80001358: 00 01 2c 23 sw	zero, 0x18(sp)
0x8000135c: 00 01 2e 23 sw	zero, 0x1c(sp)
0x80001360: 00 b0 06 93 addi	a3, zero, 0xb
0x80001364: 00 40 07 13 addi	a4, zero, 0x4
0x80001368: 02 d6 0c 63 beq	a2, a3, 0x800013a0
0x800013a0: 04 45 26 03 lw	a2, 0x44(a0)
0x800013a4: ff f0 06 93 addi	a3, zero, -0x1
0x800013a8: 00 10 07 13 addi	a4, zero, 0x1
0x800013ac: fc d6 00 e3 beq	a2, a3, 0x8000136c
0x8000136c: 00 e1 20 23 sw	a4, 0x0(sp)
0x80001370: 01 41 27 03 lw	a4, 0x14(sp)
0x80001374: 00 01 05 13 addi	a0, sp, 0x0
0x80001378: 00 e1 22 23 sw	a4, 0x4(sp)
0x8000137c: 01 81 27 03 lw	a4, 0x18(sp)
0x80001380: 00 e1 24 23 sw	a4, 0x8(sp)
0x80001384: 01 c1 27 03 lw	a4, 0x1c(sp)
0x80001388: 00 e1 26 23 sw	a4, 0xc(sp)
0x8000138c: 00 07 80 e7 jalr	ra, 0x0(a5)
0x800001e0: 00 05 27 83 lw	a5, 0x0(a0)
0x800001e4: ff 01 01 13 addi	sp, sp, -0x10
0x800001e8: 00 81 24 23 sw	s0, 0x8(sp)
0x800001ec: 00 11 26 23 sw	ra, 0xc(sp)
0x800001f0: 00 50 07 13 addi	a4, zero, 0x5
0x800001f4: 00 05 84 13 addi	s0, a1, 0x0
0x800001f8: 04 e7 86 63 beq	a5, a4, 0x80000244
0x800001fc: 00 60 07 13 addi	a4, zero, 0x6
0x80000200: 02 e7 84 63 beq	a5, a4, 0x80000228
0x80000204: 00 10 07 13 addi	a4, zero, 0x1
0x80000208: 04 e7 9c 63 bne	a5, a4, 0x80000260
0x8000020c: 07 90 05 13 addi	a0, zero, 0x79
0x80000210: 59 90 00 ef jal	ra, 0x80000fa8
0x80000fa8: a0 00 07 b7 lui	a5, 0xa0000
0x80000fac: 3e a7 8c 23 sb	a0, 0x3f8(a5)
0x80000fb0: 00 00 80 67 jalr	zero, 0x0(ra)
0x80000214: 00 c1 20 83 lw	ra, 0xc(sp)
0x80000218: 00 04 05 13 addi	a0, s0, 0x0
0x8000021c: 00 81 24 03 lw	s0, 0x8(sp)
0x80000220: 01 01 01 13 addi	sp, sp, 0x10
0x80000224: 00 00 80 67 jalr	zero, 0x0(ra)
0x80001390: 02 05 06 63 beq	a0, zero, 0x800013bc
0x80001394: 02 c1 20 83 lw	ra, 0x2c(sp)
0x80001398: 03 01 01 13 addi	sp, sp, 0x30
0x8000139c: 00 00 80 67 jalr	zero, 0x0(ra)
0x800014b8: 08 41 23 03 lw	t1, 0x84(sp)
0x800014bc: 08 81 23 83 lw	t2, 0x88(sp)
0x800014c0: 30 03 10 73 csrrw	zero, mstatus, t1
0x800014c4: 34 13 90 73 csrrw	zero, mepc, t2
0x800014c8: 00 41 20 83 lw	ra, 0x4(sp)
0x800014cc: 00 c1 21 83 lw	gp, 0xc(sp)
0x800014d0: 01 01 22 03 lw	tp, 0x10(sp)
0x800014d4: 01 41 22 83 lw	t0, 0x14(sp)
0x800014d8: 01 81 23 03 lw	t1, 0x18(sp)
0x800014dc: 01 c1 23 83 lw	t2, 0x1c(sp)
0x800014e0: 02 01 24 03 lw	s0, 0x20(sp)
0x800014e4: 02 41 24 83 lw	s1, 0x24(sp)
0x800014e8: 02 81 25 03 lw	a0, 0x28(sp)
0x800014ec: 02 c1 25 83 lw	a1, 0x2c(sp)
0x800014f0: 03 01 26 03 lw	a2, 0x30(sp)
0x800014f4: 03 41 26 83 lw	a3, 0x34(sp)
0x800014f8: 03 81 27 03 lw	a4, 0x38(sp)
0x800014fc: 03 c1 27 83 lw	a5, 0x3c(sp)
0x80001500: 04 01 28 03 lw	a6, 0x40(sp)
0x80001504: 04 41 28 83 lw	a7, 0x44(sp)
0x80001508: 04 81 29 03 lw	s2, 0x48(sp)
0x8000150c: 04 c1 29 83 lw	s3, 0x4c(sp)
0x80001510: 05 01 2a 03 lw	s4, 0x50(sp)
0x80001514: 05 41 2a 83 lw	s5, 0x54(sp)
0x80001518: 05 81 2b 03 lw	s6, 0x58(sp)
0x8000151c: 05 c1 2b 83 lw	s7, 0x5c(sp)
0x80001520: 06 01 2c 03 lw	s8, 0x60(sp)
0x80001524: 06 41 2c 83 lw	s9, 0x64(sp)
0x80001528: 06 81 2d 03 lw	s10, 0x68(sp)
0x8000152c: 06 c1 2d 83 lw	s11, 0x6c(sp)
0x80001530: 07 01 2e 03 lw	t3, 0x70(sp)
0x80001534: 07 41 2e 83 lw	t4, 0x74(sp)
0x80001538: 07 81 2f 03 lw	t5, 0x78(sp)
0x8000153c: 07 c1 2f 83 lw	t6, 0x7c(sp)
0x80001540: 08 c1 01 13 addi	sp, sp, 0x8c
0x80001544: 30 20 00 73 mret
0x80001400: 00 00 00 73 ecall
0x80001410: f7 41 01 13 addi	sp, sp, -0x8c
0x80001414: 00 11 22 23 sw	ra, 0x4(sp)
0x80001418: 00 31 26 23 sw	gp, 0xc(sp)
0x8000141c: 00 41 28 23 sw	tp, 0x10(sp)
0x80001420: 00 51 2a 23 sw	t0, 0x14(sp)
0x80001424: 00 61 2c 23 sw	t1, 0x18(sp)
0x80001428: 00 71 2e 23 sw	t2, 0x1c(sp)
0x8000142c: 02 81 20 23 sw	s0, 0x20(sp)
0x80001430: 02 91 22 23 sw	s1, 0x24(sp)
0x80001434: 02 a1 24 23 sw	a0, 0x28(sp)
0x80001438: 02 b1 26 23 sw	a1, 0x2c(sp)
0x8000143c: 02 c1 28 23 sw	a2, 0x30(sp)
0x80001440: 02 d1 2a 23 sw	a3, 0x34(sp)
0x80001444: 02 e1 2c 23 sw	a4, 0x38(sp)
0x80001448: 02 f1 2e 23 sw	a5, 0x3c(sp)
0x8000144c: 05 01 20 23 sw	a6, 0x40(sp)
0x80001450: 05 11 22 23 sw	a7, 0x44(sp)
0x80001454: 05 21 24 23 sw	s2, 0x48(sp)
0x80001458: 05 31 26 23 sw	s3, 0x4c(sp)
0x8000145c: 05 41 28 23 sw	s4, 0x50(sp)
0x80001460: 05 51 2a 23 sw	s5, 0x54(sp)
0x80001464: 05 61 2c 23 sw	s6, 0x58(sp)
0x80001468: 05 71 2e 23 sw	s7, 0x5c(sp)
0x8000146c: 07 81 20 23 sw	s8, 0x60(sp)
0x80001470: 07 91 22 23 sw	s9, 0x64(sp)
0x80001474: 07 a1 24 23 sw	s10, 0x68(sp)
0x80001478: 07 b1 26 23 sw	s11, 0x6c(sp)
0x8000147c: 07 c1 28 23 sw	t3, 0x70(sp)
0x80001480: 07 d1 2a 23 sw	t4, 0x74(sp)
0x80001484: 07 e1 2c 23 sw	t5, 0x78(sp)
0x80001488: 07 f1 2e 23 sw	t6, 0x7c(sp)
0x8000148c: 34 20 22 f3 csrrs	t0, mcause, zero
0x80001490: 30 00 23 73 csrrs	t1, mstatus, zero
0x80001494: 34 10 23 f3 csrrs	t2, mepc, zero
0x80001498: 08 51 20 23 sw	t0, 0x80(sp)
0x8000149c: 08 61 22 23 sw	t1, 0x84(sp)
0x800014a0: 08 71 24 23 sw	t2, 0x88(sp)
0x800014a4: 00 02 05 37 lui	a0, 0x20
0x800014a8: 00 a3 63 33 or	t1, t1, a0
0x800014ac: 30 03 10 73 csrrw	zero, mstatus, t1
0x800014b0: 00 01 05 13 addi	a0, sp, 0x0
0x800014b4: e8 5f f0 ef jal	ra, 0x80001338
0x80001338: 00 09 47 97 auipc	a5, 0x94
0x8000133c: c6 07 a7 83 lw	a5, -0x3a0(a5)
0x80001340: 00 05 05 93 addi	a1, a0, 0x0
0x80001344: 06 07 8a 63 beq	a5, zero, 0x800013b8
0x80001348: 08 05 26 03 lw	a2, 0x80(a0)
0x8000134c: fd 01 01 13 addi	sp, sp, -0x30
0x80001350: 02 11 26 23 sw	ra, 0x2c(sp)
0x80001354: 00 01 2a 23 sw	zero, 0x14(sp)
0x80001358: 00 01 2c 23 sw	zero, 0x18(sp)
0x8000135c: 00 01 2e 23 sw	zero, 0x1c(sp)
0x80001360: 00 b0 06 93 addi	a3, zero, 0xb
0x80001364: 00 40 07 13 addi	a4, zero, 0x4
0x80001368: 02 d6 0c 63 beq	a2, a3, 0x800013a0
0x800013a0: 04 45 26 03 lw	a2, 0x44(a0)
0x800013a4: ff f0 06 93 addi	a3, zero, -0x1
0x800013a8: 00 10 07 13 addi	a4, zero, 0x1
0x800013ac: fc d6 00 e3 beq	a2, a3, 0x8000136c
0x8000136c: 00 e1 20 23 sw	a4, 0x0(sp)
0x80001370: 01 41 27 03 lw	a4, 0x14(sp)
0x80001374: 00 01 05 13 addi	a0, sp, 0x0
0x80001378: 00 e1 22 23 sw	a4, 0x4(sp)
0x8000137c: 01 81 27 03 lw	a4, 0x18(sp)
0x80001380: 00 e1 24 23 sw	a4, 0x8(sp)
0x80001384: 01 c1 27 03 lw	a4, 0x1c(sp)
0x80001388: 00 e1 26 23 sw	a4, 0xc(sp)
0x8000138c: 00 07 80 e7 jalr	ra, 0x0(a5)
0x800001e0: 00 05 27 83 lw	a5, 0x0(a0)
0x800001e4: ff 01 01 13 addi	sp, sp, -0x10
0x800001e8: 00 81 24 23 sw	s0, 0x8(sp)
0x800001ec: 00 11 26 23 sw	ra, 0xc(sp)
0x800001f0: 00 50 07 13 addi	a4, zero, 0x5
0x800001f4: 00 05 84 13 addi	s0, a1, 0x0
0x800001f8: 04 e7 86 63 beq	a5, a4, 0x80000244
0x800001fc: 00 60 07 13 addi	a4, zero, 0x6
0x80000200: 02 e7 84 63 beq	a5, a4, 0x80000228
0x80000204: 00 10 07 13 addi	a4, zero, 0x1
0x80000208: 04 e7 9c 63 bne	a5, a4, 0x80000260
0x8000020c: 07 90 05 13 addi	a0, zero, 0x79
0x80000210: 59 90 00 ef jal	ra, 0x80000fa8
0x80000fa8: a0 00 07 b7 lui	a5, 0xa0000
0x80000fac: 3e a7 8c 23 sb	a0, 0x3f8(a5)
0x80000fb0: 00 00 80 67 jalr	zero, 0x0(ra)
0x80000214: 00 c1 20 83 lw	ra, 0xc(sp)
0x80000218: 00 04 05 13 addi	a0, s0, 0x0
0x8000021c: 00 81 24 03 lw	s0, 0x8(sp)
0x80000220: 01 01 01 13 addi	sp, sp, 0x10
0x80000224: 00 00 80 67 jalr	zero, 0x0(ra)
0x80001390: 02 05 06 63 beq	a0, zero, 0x800013bc
0x80001394: 02 c1 20 83 lw	ra, 0x2c(sp)
0x80001398: 03 01 01 13 addi	sp, sp, 0x30
0x8000139c: 00 00 80 67 jalr	zero, 0x0(ra)
0x800014b8: 08 41 23 03 lw	t1, 0x84(sp)
0x800014bc: 08 81 23 83 lw	t2, 0x88(sp)
0x800014c0: 30 03 10 73 csrrw	zero, mstatus, t1
0x800014c4: 34 13 90 73 csrrw	zero, mepc, t2
0x800014c8: 00 41 20 83 lw	ra, 0x4(sp)
0x800014cc: 00 c1 21 83 lw	gp, 0xc(sp)
0x800014d0: 01 01 22 03 lw	tp, 0x10(sp)
0x800014d4: 01 41 22 83 lw	t0, 0x14(sp)
0x800014d8: 01 81 23 03 lw	t1, 0x18(sp)
0x800014dc: 01 c1 23 83 lw	t2, 0x1c(sp)
0x800014e0: 02 01 24 03 lw	s0, 0x20(sp)
0x800014e4: 02 41 24 83 lw	s1, 0x24(sp)
0x800014e8: 02 81 25 03 lw	a0, 0x28(sp)
0x800014ec: 02 c1 25 83 lw	a1, 0x2c(sp)
0x800014f0: 03 01 26 03 lw	a2, 0x30(sp)
0x800014f4: 03 41 26 83 lw	a3, 0x34(sp)
0x800014f8: 03 81 27 03 lw	a4, 0x38(sp)
0x800014fc: 03 c1 27 83 lw	a5, 0x3c(sp)
0x80001500: 04 01 28 03 lw	a6, 0x40(sp)
0x80001504: 04 41 28 83 lw	a7, 0x44(sp)
0x80001508: 04 81 29 03 lw	s2, 0x48(sp)
0x8000150c: 04 c1 29 83 lw	s3, 0x4c(sp)
0x80001510: 05 01 2a 03 lw	s4, 0x50(sp)
0x80001514: 05 41 2a 83 lw	s5, 0x54(sp)
0x80001518: 05 81 2b 03 lw	s6, 0x58(sp)
0x8000151c: 05 c1 2b 83 lw	s7, 0x5c(sp)
0x80001520: 06 01 2c 03 lw	s8, 0x60(sp)
0x80001524: 06 41 2c 83 lw	s9, 0x64(sp)
0x80001528: 06 81 2d 03 lw	s10, 0x68(sp)
0x8000152c: 06 c1 2d 83 lw	s11, 0x6c(sp)
0x80001530: 07 01 2e 03 lw	t3, 0x70(sp)
0x80001534: 07 41 2e 83 lw	t4, 0x74(sp)
0x80001538: 07 81 2f 03 lw	t5, 0x78(sp)
0x8000153c: 07 c1 2f 83 lw	t6, 0x7c(sp)
0x80001540: 08 c1 01 13 addi	sp, sp, 0x8c
0x80001544: 30 20 00 73 mret
0x80001400: 00 00 00 73 ecall
0x80001410: f7 41 01 13 addi	sp, sp, -0x8c
0x80001414: 00 11 22 23 sw	ra, 0x4(sp)
0x80001418: 00 31 26 23 sw	gp, 0xc(sp)
0x8000141c: 00 41 28 23 sw	tp, 0x10(sp)
0x80001420: 00 51 2a 23 sw	t0, 0x14(sp)
0x80001424: 00 61 2c 23 sw	t1, 0x18(sp)
0x80001428: 00 71 2e 23 sw	t2, 0x1c(sp)
0x8000142c: 02 81 20 23 sw	s0, 0x20(sp)
0x80001430: 02 91 22 23 sw	s1, 0x24(sp)
0x80001434: 02 a1 24 23 sw	a0, 0x28(sp)
0x80001438: 02 b1 26 23 sw	a1, 0x2c(sp)
0x8000143c: 02 c1 28 23 sw	a2, 0x30(sp)
0x80001440: 02 d1 2a 23 sw	a3, 0x34(sp)
0x80001444: 02 e1 2c 23 sw	a4, 0x38(sp)
0x80001448: 02 f1 2e 23 sw	a5, 0x3c(sp)
0x8000144c: 05 01 20 23 sw	a6, 0x40(sp)
0x80001450: 05 11 22 23 sw	a7, 0x44(sp)
0x80001454: 05 21 24 23 sw	s2, 0x48(sp)
0x80001458: 05 31 26 23 sw	s3, 0x4c(sp)
0x8000145c: 05 41 28 23 sw	s4, 0x50(sp)
0x80001460: 05 51 2a 23 sw	s5, 0x54(sp)
0x80001464: 05 61 2c 23 sw	s6, 0x58(sp)
0x80001468: 05 71 2e 23 sw	s7, 0x5c(sp)
0x8000146c: 07 81 20 23 sw	s8, 0x60(sp)
0x80001470: 07 91 22 23 sw	s9, 0x64(sp)
0x80001474: 07 a1 24 23 sw	s10, 0x68(sp)
0x80001478: 07 b1 26 23 sw	s11, 0x6c(sp)
0x8000147c: 07 c1 28 23 sw	t3, 0x70(sp)
0x80001480: 07 d1 2a 23 sw	t4, 0x74(sp)
0x80001484: 07 e1 2c 23 sw	t5, 0x78(sp)
0x80001488: 07 f1 2e 23 sw	t6, 0x7c(sp)
0x8000148c: 34 20 22 f3 csrrs	t0, mcause, zero
0x80001490: 30 00 23 73 csrrs	t1, mstatus, zero
0x80001494: 34 10 23 f3 csrrs	t2, mepc, zero
0x80001498: 08 51 20 23 sw	t0, 0x80(sp)
0x8000149c: 08 61 22 23 sw	t1, 0x84(sp)
0x800014a0: 08 71 24 23 sw	t2, 0x88(sp)
0x800014a4: 00 02 05 37 lui	a0, 0x20
0x800014a8: 00 a3 63 33 or	t1, t1, a0
0x800014ac: 30 03 10 73 csrrw	zero, mstatus, t1
0x800014b0: 00 01 05 13 addi	a0, sp, 0x0
0x800014b4: e8 5f f0 ef jal	ra, 0x80001338
0x80001338: 00 09 47 97 auipc	a5, 0x94
0x8000133c: c6 07 a7 83 lw	a5, -0x3a0(a5)
0x80001340: 00 05 05 93 addi	a1, a0, 0x0
0x80001344: 06 07 8a 63 beq	a5, zero, 0x800013b8
0x80001348: 08 05 26 03 lw	a2, 0x80(a0)
0x8000134c: fd 01 01 13 addi	sp, sp, -0x30
0x80001350: 02 11 26 23 sw	ra, 0x2c(sp)
0x80001354: 00 01 2a 23 sw	zero, 0x14(sp)
0x80001358: 00 01 2c 23 sw	zero, 0x18(sp)
0x8000135c: 00 01 2e 23 sw	zero, 0x1c(sp)
0x80001360: 00 b0 06 93 addi	a3, zero, 0xb
0x80001364: 00 40 07 13 addi	a4, zero, 0x4
0x80001368: 02 d6 0c 63 beq	a2, a3, 0x800013a0
0x800013a0: 04 45 26 03 lw	a2, 0x44(a0)
0x800013a4: ff f0 06 93 addi	a3, zero, -0x1
0x800013a8: 00 10 07 13 addi	a4, zero, 0x1
0x800013ac: fc d6 00 e3 beq	a2, a3, 0x8000136c
0x8000136c: 00 e1 20 23 sw	a4, 0x0(sp)
0x80001370: 01 41 27 03 lw	a4, 0x14(sp)
0x80001374: 00 01 05 13 addi	a0, sp, 0x0
0x80001378: 00 e1 22 23 sw	a4, 0x4(sp)
0x8000137c: 01 81 27 03 lw	a4, 0x18(sp)
0x80001380: 00 e1 24 23 sw	a4, 0x8(sp)
0x80001384: 01 c1 27 03 lw	a4, 0x1c(sp)
0x80001388: 00 e1 26 23 sw	a4, 0xc(sp)
0x8000138c: 00 07 80 e7 jalr	ra, 0x0(a5)
0x800001e0: 00 05 27 83 lw	a5, 0x0(a0)
0x800001e4: ff 01 01 13 addi	sp, sp, -0x10
0x800001e8: 00 81 24 23 sw	s0, 0x8(sp)
0x800001ec: 00 11 26 23 sw	ra, 0xc(sp)
0x800001f0: 00 50 07 13 addi	a4, zero, 0x5
0x800001f4: 00 05 84 13 addi	s0, a1, 0x0
0x800001f8: 04 e7 86 63 beq	a5, a4, 0x80000244
0x800001fc: 00 60 07 13 addi	a4, zero, 0x6
0x80000200: 02 e7 84 63 beq	a5, a4, 0x80000228
0x80000204: 00 10 07 13 addi	a4, zero, 0x1
0x80000208: 04 e7 9c 63 bne	a5, a4, 0x80000260
0x8000020c: 07 90 05 13 addi	a0, zero, 0x79
0x80000210: 59 90 00 ef jal	ra, 0x80000fa8
0x80000fa8: a0 00 07 b7 lui	a5, 0xa0000
0x80000fac: 3e a7 8c 23 sb	a0, 0x3f8(a5)
0x80000fb0: 00 00 80 67 jalr	zero, 0x0(ra)
0x80000214: 00 c1 20 83 lw	ra, 0xc(sp)
0x80000218: 00 04 05 13 addi	a0, s0, 0x0
0x8000021c: 00 81 24 03 lw	s0, 0x8(sp)
0x80000220: 01 01 01 13 addi	sp, sp, 0x10
0x80000224: 00 00 80 67 jalr	zero, 0x0(ra)
0x80001390: 02 05 06 63 beq	a0, zero, 0x800013bc
0x80001394: 02 c1 20 83 lw	ra, 0x2c(sp)
0x80001398: 03 01 01 13 addi	sp, sp, 0x30
0x8000139c: 00 00 80 67 jalr	zero, 0x0(ra)
0x800014b8: 08 41 23 03 lw	t1, 0x84(sp)
0x800014bc: 08 81 23 83 lw	t2, 0x88(sp)
0x800014c0: 30 03 10 73 csrrw	zero, mstatus, t1
0x800014c4: 34 13 90 73 csrrw	zero, mepc, t2
0x800014c8: 00 41 20 83 lw	ra, 0x4(sp)
0x800014cc: 00 c1 21 83 lw	gp, 0xc(sp)
0x800014d0: 01 01 22 03 lw	tp, 0x10(sp)
0x800014d4: 01 41 22 83 lw	t0, 0x14(sp)
0x800014d8: 01 81 23 03 lw	t1, 0x18(sp)
0x800014dc: 01 c1 23 83 lw	t2, 0x1c(sp)
0x800014e0: 02 01 24 03 lw	s0, 0x20(sp)
0x800014e4: 02 41 24 83 lw	s1, 0x24(sp)
0x800014e8: 02 81 25 03 lw	a0, 0x28(sp)
0x800014ec: 02 c1 25 83 lw	a1, 0x2c(sp)
0x800014f0: 03 01 26 03 lw	a2, 0x30(sp)
0x800014f4: 03 41 26 83 lw	a3, 0x34(sp)
0x800014f8: 03 81 27 03 lw	a4, 0x38(sp)
0x800014fc: 03 c1 27 83 lw	a5, 0x3c(sp)
0x80001500: 04 01 28 03 lw	a6, 0x40(sp)
0x80001504: 04 41 28 83 lw	a7, 0x44(sp)
0x80001508: 04 81 29 03 lw	s2, 0x48(sp)
0x8000150c: 04 c1 29 83 lw	s3, 0x4c(sp)
0x80001510: 05 01 2a 03 lw	s4, 0x50(sp)
0x80001514: 05 41 2a 83 lw	s5, 0x54(sp)
0x80001518: 05 81 2b 03 lw	s6, 0x58(sp)
0x8000151c: 05 c1 2b 83 lw	s7, 0x5c(sp)
0x80001520: 06 01 2c 03 lw	s8, 0x60(sp)
0x80001524: 06 41 2c 83 lw	s9, 0x64(sp)
0x80001528: 06 81 2d 03 lw	s10, 0x68(sp)
0x8000152c: 06 c1 2d 83 lw	s11, 0x6c(sp)
0x80001530: 07 01 2e 03 lw	t3, 0x70(sp)
0x80001534: 07 41 2e 83 lw	t4, 0x74(sp)
0x80001538: 07 81 2f 03 lw	t5, 0x78(sp)
0x8000153c: 07 c1 2f 83 lw	t6, 0x7c(sp)
0x80001540: 08 c1 01 13 addi	sp, sp, 0x8c
0x80001544: 30 20 00 73 mret
0x80001400: 00 00 00 73 ecall
0x80001410: f7 41 01 13 addi	sp, sp, -0x8c
0x80001414: 00 11 22 23 sw	ra, 0x4(sp)
0x80001418: 00 31 26 23 sw	gp, 0xc(sp)
0x8000141c: 00 41 28 23 sw	tp, 0x10(sp)
0x80001420: 00 51 2a 23 sw	t0, 0x14(sp)
0x80001424: 00 61 2c 23 sw	t1, 0x18(sp)
0x80001428: 00 71 2e 23 sw	t2, 0x1c(sp)
0x8000142c: 02 81 20 23 sw	s0, 0x20(sp)
0x80001430: 02 91 22 23 sw	s1, 0x24(sp)
0x80001434: 02 a1 24 23 sw	a0, 0x28(sp)
0x80001438: 02 b1 26 23 sw	a1, 0x2c(sp)
0x8000143c: 02 c1 28 23 sw	a2, 0x30(sp)
0x80001440: 02 d1 2a 23 sw	a3, 0x34(sp)
0x80001444: 02 e1 2c 23 sw	a4, 0x38(sp)
0x80001448: 02 f1 2e 23 sw	a5, 0x3c(sp)
0x8000144c: 05 01 20 23 sw	a6, 0x40(sp)
0x80001450: 05 11 22 23 sw	a7, 0x44(sp)
0x80001454: 05 21 24 23 sw	s2, 0x48(sp)
0x80001458: 05 31 26 23 sw	s3, 0x4c(sp)
0x8000145c: 05 41 28 23 sw	s4, 0x50(sp)
0x80001460: 05 51 2a 23 sw	s5, 0x54(sp)
0x80001464: 05 61 2c 23 sw	s6, 0x58(sp)
0x80001468: 05 71 2e 23 sw	s7, 0x5c(sp)
0x8000146c: 07 81 20 23 sw	s8, 0x60(sp)
0x80001470: 07 91 22 23 sw	s9, 0x64(sp)
0x80001474: 07 a1 24 23 sw	s10, 0x68(sp)
0x80001478: 07 b1 26 23 sw	s11, 0x6c(sp)
0x8000147c: 07 c1 28 23 sw	t3, 0x70(sp)
0x80001480: 07 d1 2a 23 sw	t4, 0x74(sp)
0x80001484: 07 e1 2c 23 sw	t5, 0x78(sp)
0x80001488: 07 f1 2e 23 sw	t6, 0x7c(sp)
0x8000148c: 34 20 22 f3 csrrs	t0, mcause, zero
0x80001490: 30 00 23 73 csrrs	t1, mstatus, zero
0x80001494: 34 10 23 f3 csrrs	t2, mepc, zero
0x80001498: 08 51 20 23 sw	t0, 0x80(sp)
0x8000149c: 08 61 22 23 sw	t1, 0x84(sp)
0x800014a0: 08 71 24 23 sw	t2, 0x88(sp)
0x800014a4: 00 02 05 37 lui	a0, 0x20
0x800014a8: 00 a3 63 33 or	t1, t1, a0
0x800014ac: 30 03 10 73 csrrw	zero, mstatus, t1
0x800014b0: 00 01 05 13 addi	a0, sp, 0x0
0x800014b4: e8 5f f0 ef jal	ra, 0x80001338
0x80001338: 00 09 47 97 auipc	a5, 0x94
0x8000133c: c6 07 a7 83 lw	a5, -0x3a0(a5)
0x80001340: 00 05 05 93 addi	a1, a0, 0x0
0x80001344: 06 07 8a 63 beq	a5, zero, 0x800013b8
0x80001348: 08 05 26 03 lw	a2, 0x80(a0)
0x8000134c: fd 01 01 13 addi	sp, sp, -0x30
0x80001350: 02 11 26 23 sw	ra, 0x2c(sp)
0x80001354: 00 01 2a 23 sw	zero, 0x14(sp)
0x80001358: 00 01 2c 23 sw	zero, 0x18(sp)
0x8000135c: 00 01 2e 23 sw	zero, 0x1c(sp)
0x80001360: 00 b0 06 93 addi	a3, zero, 0xb
0x80001364: 00 40 07 13 addi	a4, zero, 0x4
0x80001368: 02 d6 0c 63 beq	a2, a3, 0x800013a0
0x800013a0: 04 45 26 03 lw	a2, 0x44(a0)
0x800013a4: ff f0 06 93 addi	a3, zero, -0x1
0x800013a8: 00 10 07 13 addi	a4, zero, 0x1
0x800013ac: fc d6 00 e3 beq	a2, a3, 0x8000136c
0x8000136c: 00 e1 20 23 sw	a4, 0x0(sp)
0x80001370: 01 41 27 03 lw	a4, 0x14(sp)
0x80001374: 00 01 05 13 addi	a0, sp, 0x0
0x80001378: 00 e1 22 23 sw	a4, 0x4(sp)
0x8000137c: 01 81 27 03 lw	a4, 0x18(sp)
0x80001380: 00 e1 24 23 sw	a4, 0x8(sp)
0x80001384: 01 c1 27 03 lw	a4, 0x1c(sp)
0x80001388: 00 e1 26 23 sw	a4, 0xc(sp)
0x8000138c: 00 07 80 e7 jalr	ra, 0x0(a5)
0x800001e0: 00 05 27 83 lw	a5, 0x0(a0)
0x800001e4: ff 01 01 13 addi	sp, sp, -0x10
0x800001e8: 00 81 24 23 sw	s0, 0x8(sp)
0x800001ec: 00 11 26 23 sw	ra, 0xc(sp)
0x800001f0: 00 50 07 13 addi	a4, zero, 0x5
0x800001f4: 00 05 84 13 addi	s0, a1, 0x0
0x800001f8: 04 e7 86 63 beq	a5, a4, 0x80000244
0x800001fc: 00 60 07 13 addi	a4, zero, 0x6
0x80000200: 02 e7 84 63 beq	a5, a4, 0x80000228
0x80000204: 00 10 07 13 addi	a4, zero, 0x1
0x80000208: 04 e7 9c 63 bne	a5, a4, 0x80000260
0x8000020c: 07 90 05 13 addi	a0, zero, 0x79
0x80000210: 59 90 00 ef jal	ra, 0x80000fa8
0x80000fa8: a0 00 07 b7 lui	a5, 0xa0000
0x80000fac: 3e a7 8c 23 sb	a0, 0x3f8(a5)
0x80000fb0: 00 00 80 67 jalr	zero, 0x0(ra)
0x80000214: 00 c1 20 83 lw	ra, 0xc(sp)
0x80000218: 00 04 05 13 addi	a0, s0, 0x0
0x8000021c: 00 81 24 03 lw	s0, 0x8(sp)
0x80000220: 01 01 01 13 addi	sp, sp, 0x10
0x80000224: 00 00 80 67 jalr	zero, 0x0(ra)
0x80001390: 02 05 06 63 beq	a0, zero, 0x800013bc
0x80001394: 02 c1 20 83 lw	ra, 0x2c(sp)
0x80001398: 03 01 01 13 addi	sp, sp, 0x30
0x8000139c: 00 00 80 67 jalr	zero, 0x0(ra)
0x800014b8: 08 41 23 03 lw	t1, 0x84(sp)
0x800014bc: 08 81 23 83 lw	t2, 0x88(sp)
0x800014c0: 30 03 10 73 csrrw	zero, mstatus, t1
0x800014c4: 34 13 90 73 csrrw	zero, mepc, t2
0x800014c8: 00 41 20 83 lw	ra, 0x4(sp)
0x800014cc: 00 c1 21 83 lw	gp, 0xc(sp)
0x800014d0: 01 01 22 03 lw	tp, 0x10(sp)
0x800014d4: 01 41 22 83 lw	t0, 0x14(sp)
0x800014d8: 01 81 23 03 lw	t1, 0x18(sp)
0x800014dc: 01 c1 23 83 lw	t2, 0x1c(sp)
0x800014e0: 02 01 24 03 lw	s0, 0x20(sp)
0x800014e4: 02 41 24 83 lw	s1, 0x24(sp)
0x800014e8: 02 81 25 03 lw	a0, 0x28(sp)
0x800014ec: 02 c1 25 83 lw	a1, 0x2c(sp)
0x800014f0: 03 01 26 03 lw	a2, 0x30(sp)
0x800014f4: 03 41 26 83 lw	a3, 0x34(sp)
0x800014f8: 03 81 27 03 lw	a4, 0x38(sp)
0x800014fc: 03 c1 27 83 lw	a5, 0x3c(sp)
0x80001500: 04 01 28 03 lw	a6, 0x40(sp)
0x80001504: 04 41 28 83 lw	a7, 0x44(sp)
0x80001508: 04 81 29 03 lw	s2, 0x48(sp)
0x8000150c: 04 c1 29 83 lw	s3, 0x4c(sp)
0x80001510: 05 01 2a 03 lw	s4, 0x50(sp)
0x80001514: 05 41 2a 83 lw	s5, 0x54(sp)
0x80001518: 05 81 2b 03 lw	s6, 0x58(sp)
0x8000151c: 05 c1 2b 83 lw	s7, 0x5c(sp)
0x80001520: 06 01 2c 03 lw	s8, 0x60(sp)
0x80001524: 06 41 2c 83 lw	s9, 0x64(sp)
0x80001528: 06 81 2d 03 lw	s10, 0x68(sp)
0x8000152c: 06 c1 2d 83 lw	s11, 0x6c(sp)
0x80001530: 07 01 2e 03 lw	t3, 0x70(sp)
0x80001534: 07 41 2e 83 lw	t4, 0x74(sp)
0x80001538: 07 81 2f 03 lw	t5, 0x78(sp)
0x8000153c: 07 c1 2f 83 lw	t6, 0x7c(sp)
0x80001540: 08 c1 01 13 addi	sp, sp, 0x8c
0x80001544: 30 20 00 73 mret
0x80001400: 00 00 00 73 ecall
0x80001410: f7 41 01 13 addi	sp, sp, -0x8c
0x80001414: 00 11 22 23 sw	ra, 0x4(sp)
0x80001418: 00 31 26 23 sw	gp, 0xc(sp)
0x8000141c: 00 41 28 23 sw	tp, 0x10(sp)
0x80001420: 00 51 2a 23 sw	t0, 0x14(sp)
0x80001424: 00 61 2c 23 sw	t1, 0x18(sp)
0x80001428: 00 71 2e 23 sw	t2, 0x1c(sp)
0x8000142c: 02 81 20 23 sw	s0, 0x20(sp)
0x80001430: 02 91 22 23 sw	s1, 0x24(sp)
0x80001434: 02 a1 24 23 sw	a0, 0x28(sp)
0x80001438: 02 b1 26 23 sw	a1, 0x2c(sp)
0x8000143c: 02 c1 28 23 sw	a2, 0x30(sp)
0x80001440: 02 d1 2a 23 sw	a3, 0x34(sp)
0x80001444: 02 e1 2c 23 sw	a4, 0x38(sp)
0x80001448: 02 f1 2e 23 sw	a5, 0x3c(sp)
0x8000144c: 05 01 20 23 sw	a6, 0x40(sp)
0x80001450: 05 11 22 23 sw	a7, 0x44(sp)
0x80001454: 05 21 24 23 sw	s2, 0x48(sp)
0x80001458: 05 31 26 23 sw	s3, 0x4c(sp)
0x8000145c: 05 41 28 23 sw	s4, 0x50(sp)
0x80001460: 05 51 2a 23 sw	s5, 0x54(sp)
0x80001464: 05 61 2c 23 sw	s6, 0x58(sp)
0x80001468: 05 71 2e 23 sw	s7, 0x5c(sp)
0x8000146c: 07 81 20 23 sw	s8, 0x60(sp)
0x80001470: 07 91 22 23 sw	s9, 0x64(sp)
0x80001474: 07 a1 24 23 sw	s10, 0x68(sp)
0x80001478: 07 b1 26 23 sw	s11, 0x6c(sp)
0x8000147c: 07 c1 28 23 sw	t3, 0x70(sp)
0x80001480: 07 d1 2a 23 sw	t4, 0x74(sp)
0x80001484: 07 e1 2c 23 sw	t5, 0x78(sp)
0x80001488: 07 f1 2e 23 sw	t6, 0x7c(sp)
0x8000148c: 34 20 22 f3 csrrs	t0, mcause, zero
0x80001490: 30 00 23 73 csrrs	t1, mstatus, zero
0x80001494: 34 10 23 f3 csrrs	t2, mepc, zero
0x80001498: 08 51 20 23 sw	t0, 0x80(sp)
0x8000149c: 08 61 22 23 sw	t1, 0x84(sp)
0x800014a0: 08 71 24 23 sw	t2, 0x88(sp)
0x800014a4: 00 02 05 37 lui	a0, 0x20
0x800014a8: 00 a3 63 33 or	t1, t1, a0
0x800014ac: 30 03 10 73 csrrw	zero, mstatus, t1
0x800014b0: 00 01 05 13 addi	a0, sp, 0x0
0x800014b4: e8 5f f0 ef jal	ra, 0x80001338
0x80001338: 00 09 47 97 auipc	a5, 0x94
0x8000133c: c6 07 a7 83 lw	a5, -0x3a0(a5)
0x80001340: 00 05 05 93 addi	a1, a0, 0x0
0x80001344: 06 07 8a 63 beq	a5, zero, 0x800013b8
0x80001348: 08 05 26 03 lw	a2, 0x80(a0)
0x8000134c: fd 01 01 13 addi	sp, sp, -0x30
0x80001350: 02 11 26 23 sw	ra, 0x2c(sp)
0x80001354: 00 01 2a 23 sw	zero, 0x14(sp)
0x80001358: 00 01 2c 23 sw	zero, 0x18(sp)
0x8000135c: 00 01 2e 23 sw	zero, 0x1c(sp)
0x80001360: 00 b0 06 93 addi	a3, zero, 0xb
0x80001364: 00 40 07 13 addi	a4, zero, 0x4
0x80001368: 02 d6 0c 63 beq	a2, a3, 0x800013a0
0x800013a0: 04 45 26 03 lw	a2, 0x44(a0)
0x800013a4: ff f0 06 93 addi	a3, zero, -0x1
0x800013a8: 00 10 07 13 addi	a4, zero, 0x1
0x800013ac: fc d6 00 e3 beq	a2, a3, 0x8000136c
0x8000136c: 00 e1 20 23 sw	a4, 0x0(sp)
0x80001370: 01 41 27 03 lw	a4, 0x14(sp)
0x80001374: 00 01 05 13 addi	a0, sp, 0x0
0x80001378: 00 e1 22 23 sw	a4, 0x4(sp)
0x8000137c: 01 81 27 03 lw	a4, 0x18(sp)
0x80001380: 00 e1 24 23 sw	a4, 0x8(sp)
0x80001384: 01 c1 27 03 lw	a4, 0x1c(sp)
0x80001388: 00 e1 26 23 sw	a4, 0xc(sp)
0x8000138c: 00 07 80 e7 jalr	ra, 0x0(a5)
0x800001e0: 00 05 27 83 lw	a5, 0x0(a0)
0x800001e4: ff 01 01 13 addi	sp, sp, -0x10
0x800001e8: 00 81 24 23 sw	s0, 0x8(sp)
0x800001ec: 00 11 26 23 sw	ra, 0xc(sp)
0x800001f0: 00 50 07 13 addi	a4, zero, 0x5
0x800001f4: 00 05 84 13 addi	s0, a1, 0x0
0x800001f8: 04 e7 86 63 beq	a5, a4, 0x80000244
0x800001fc: 00 60 07 13 addi	a4, zero, 0x6
0x80000200: 02 e7 84 63 beq	a5, a4, 0x80000228
0x80000204: 00 10 07 13 addi	a4, zero, 0x1
0x80000208: 04 e7 9c 63 bne	a5, a4, 0x80000260
0x8000020c: 07 90 05 13 addi	a0, zero, 0x79
0x80000210: 59 90 00 ef jal	ra, 0x80000fa8
0x80000fa8: a0 00 07 b7 lui	a5, 0xa0000
0x80000fac: 3e a7 8c 23 sb	a0, 0x3f8(a5)
0x80000fb0: 00 00 80 67 jalr	zero, 0x0(ra)
0x80000214: 00 c1 20 83 lw	ra, 0xc(sp)
0x80000218: 00 04 05 13 addi	a0, s0, 0x0
0x8000021c: 00 81 24 03 lw	s0, 0x8(sp)
0x80000220: 01 01 01 13 addi	sp, sp, 0x10
0x80000224: 00 00 80 67 jalr	zero, 0x0(ra)
0x80001390: 02 05 06 63 beq	a0, zero, 0x800013bc
0x80001394: 02 c1 20 83 lw	ra, 0x2c(sp)
0x80001398: 03 01 01 13 addi	sp, sp, 0x30
0x8000139c: 00 00 80 67 jalr	zero, 0x0(ra)
0x800014b8: 08 41 23 03 lw	t1, 0x84(sp)
0x800014bc: 08 81 23 83 lw	t2, 0x88(sp)
0x800014c0: 30 03 10 73 csrrw	zero, mstatus, t1
0x800014c4: 34 13 90 73 csrrw	zero, mepc, t2
0x800014c8: 00 41 20 83 lw	ra, 0x4(sp)
0x800014cc: 00 c1 21 83 lw	gp, 0xc(sp)
0x800014d0: 01 01 22 03 lw	tp, 0x10(sp)
0x800014d4: 01 41 22 83 lw	t0, 0x14(sp)
0x800014d8: 01 81 23 03 lw	t1, 0x18(sp)
0x800014dc: 01 c1 23 83 lw	t2, 0x1c(sp)
0x800014e0: 02 01 24 03 lw	s0, 0x20(sp)
0x800014e4: 02 41 24 83 lw	s1, 0x24(sp)
0x800014e8: 02 81 25 03 lw	a0, 0x28(sp)
0x800014ec: 02 c1 25 83 lw	a1, 0x2c(sp)
0x800014f0: 03 01 26 03 lw	a2, 0x30(sp)
0x800014f4: 03 41 26 83 lw	a3, 0x34(sp)
0x800014f8: 03 81 27 03 lw	a4, 0x38(sp)
0x800014fc: 03 c1 27 83 lw	a5, 0x3c(sp)
0x80001500: 04 01 28 03 lw	a6, 0x40(sp)
0x80001504: 04 41 28 83 lw	a7, 0x44(sp)
0x80001508: 04 81 29 03 lw	s2, 0x48(sp)
0x8000150c: 04 c1 29 83 lw	s3, 0x4c(sp)
0x80001510: 05 01 2a 03 lw	s4, 0x50(sp)
0x80001514: 05 41 2a 83 lw	s5, 0x54(sp)
0x80001518: 05 81 2b 03 lw	s6, 0x58(sp)
0x8000151c: 05 c1 2b 83 lw	s7, 0x5c(sp)
0x80001520: 06 01 2c 03 lw	s8, 0x60(sp)
0x80001524: 06 41 2c 83 lw	s9, 0x64(sp)
0x80001528: 06 81 2d 03 lw	s10, 0x68(sp)
0x8000152c: 06 c1 2d 83 lw	s11, 0x6c(sp)
0x80001530: 07 01 2e 03 lw	t3, 0x70(sp)
0x80001534: 07 41 2e 83 lw	t4, 0x74(sp)
0x80001538: 07 81 2f 03 lw	t5, 0x78(sp)
0x8000153c: 07 c1 2f 83 lw	t6, 0x7c(sp)
0x80001540: 08 c1 01 13 addi	sp, sp, 0x8c
0x80001544: 30 20 00 73 mret
0x80001400: 00 00 00 73 ecall
0x80001410: f7 41 01 13 addi	sp, sp, -0x8c
0x80001414: 00 11 22 23 sw	ra, 0x4(sp)
0x80001418: 00 31 26 23 sw	gp, 0xc(sp)
0x8000141c: 00 41 28 23 sw	tp, 0x10(sp)
0x80001420: 00 51 2a 23 sw	t0, 0x14(sp)
0x80001424: 00 61 2c 23 sw	t1, 0x18(sp)
0x80001428: 00 71 2e 23 sw	t2, 0x1c(sp)
0x8000142c: 02 81 20 23 sw	s0, 0x20(sp)
0x80001430: 02 91 22 23 sw	s1, 0x24(sp)
0x80001434: 02 a1 24 23 sw	a0, 0x28(sp)
0x80001438: 02 b1 26 23 sw	a1, 0x2c(sp)
0x8000143c: 02 c1 28 23 sw	a2, 0x30(sp)
0x80001440: 02 d1 2a 23 sw	a3, 0x34(sp)
0x80001444: 02 e1 2c 23 sw	a4, 0x38(sp)
0x80001448: 02 f1 2e 23 sw	a5, 0x3c(sp)
0x8000144c: 05 01 20 23 sw	a6, 0x40(sp)
0x80001450: 05 11 22 23 sw	a7, 0x44(sp)
0x80001454: 05 21 24 23 sw	s2, 0x48(sp)
0x80001458: 05 31 26 23 sw	s3, 0x4c(sp)
0x8000145c: 05 41 28 23 sw	s4, 0x50(sp)
0x80001460: 05 51 2a 23 sw	s5, 0x54(sp)
0x80001464: 05 61 2c 23 sw	s6, 0x58(sp)
0x80001468: 05 71 2e 23 sw	s7, 0x5c(sp)
0x8000146c: 07 81 20 23 sw	s8, 0x60(sp)
0x80001470: 07 91 22 23 sw	s9, 0x64(sp)
0x80001474: 07 a1 24 23 sw	s10, 0x68(sp)
0x80001478: 07 b1 26 23 sw	s11, 0x6c(sp)
0x8000147c: 07 c1 28 23 sw	t3, 0x70(sp)
0x80001480: 07 d1 2a 23 sw	t4, 0x74(sp)
0x80001484: 07 e1 2c 23 sw	t5, 0x78(sp)
0x80001488: 07 f1 2e 23 sw	t6, 0x7c(sp)
0x8000148c: 34 20 22 f3 csrrs	t0, mcause, zero
0x80001490: 30 00 23 73 csrrs	t1, mstatus, zero
0x80001494: 34 10 23 f3 csrrs	t2, mepc, zero
0x80001498: 08 51 20 23 sw	t0, 0x80(sp)
0x8000149c: 08 61 22 23 sw	t1, 0x84(sp)
0x800014a0: 08 71 24 23 sw	t2, 0x88(sp)
0x800014a4: 00 02 05 37 lui	a0, 0x20
0x800014a8: 00 a3 63 33 or	t1, t1, a0
0x800014ac: 30 03 10 73 csrrw	zero, mstatus, t1
0x800014b0: 00 01 05 13 addi	a0, sp, 0x0
0x800014b4: e8 5f f0 ef jal	ra, 0x80001338
0x80001338: 00 09 47 97 auipc	a5, 0x94
0x8000133c: c6 07 a7 83 lw	a5, -0x3a0(a5)
0x80001340: 00 05 05 93 addi	a1, a0, 0x0
0x80001344: 06 07 8a 63 beq	a5, zero, 0x800013b8
0x80001348: 08 05 26 03 lw	a2, 0x80(a0)
0x8000134c: fd 01 01 13 addi	sp, sp, -0x30
0x80001350: 02 11 26 23 sw	ra, 0x2c(sp)
0x80001354: 00 01 2a 23 sw	zero, 0x14(sp)
0x80001358: 00 01 2c 23 sw	zero, 0x18(sp)
0x8000135c: 00 01 2e 23 sw	zero, 0x1c(sp)
0x80001360: 00 b0 06 93 addi	a3, zero, 0xb
0x80001364: 00 40 07 13 addi	a4, zero, 0x4
0x80001368: 02 d6 0c 63 beq	a2, a3, 0x800013a0
0x800013a0: 04 45 26 03 lw	a2, 0x44(a0)
0x800013a4: ff f0 06 93 addi	a3, zero, -0x1
0x800013a8: 00 10 07 13 addi	a4, zero, 0x1
0x800013ac: fc d6 00 e3 beq	a2, a3, 0x8000136c
0x8000136c: 00 e1 20 23 sw	a4, 0x0(sp)
0x80001370: 01 41 27 03 lw	a4, 0x14(sp)
0x80001374: 00 01 05 13 addi	a0, sp, 0x0
0x80001378: 00 e1 22 23 sw	a4, 0x4(sp)
0x8000137c: 01 81 27 03 lw	a4, 0x18(sp)
0x80001380: 00 e1 24 23 sw	a4, 0x8(sp)
0x80001384: 01 c1 27 03 lw	a4, 0x1c(sp)
0x80001388: 00 e1 26 23 sw	a4, 0xc(sp)
0x8000138c: 00 07 80 e7 jalr	ra, 0x0(a5)
0x800001e0: 00 05 27 83 lw	a5, 0x0(a0)
0x800001e4: ff 01 01 13 addi	sp, sp, -0x10
0x800001e8: 00 81 24 23 sw	s0, 0x8(sp)
0x800001ec: 00 11 26 23 sw	ra, 0xc(sp)
0x800001f0: 00 50 07 13 addi	a4, zero, 0x5
0x800001f4: 00 05 84 13 addi	s0, a1, 0x0
0x800001f8: 04 e7 86 63 beq	a5, a4, 0x80000244
0x800001fc: 00 60 07 13 addi	a4, zero, 0x6
0x80000200: 02 e7 84 63 beq	a5, a4, 0x80000228
0x80000204: 00 10 07 13 addi	a4, zero, 0x1
0x80000208: 04 e7 9c 63 bne	a5, a4, 0x80000260
0x8000020c: 07 90 05 13 addi	a0, zero, 0x79
0x80000210: 59 90 00 ef jal	ra, 0x80000fa8
0x80000fa8: a0 00 07 b7 lui	a5, 0xa0000
0x80000fac: 3e a7 8c 23 sb	a0, 0x3f8(a5)
0x80000fb0: 00 00 80 67 jalr	zero, 0x0(ra)
0x80000214: 00 c1 20 83 lw	ra, 0xc(sp)
0x80000218: 00 04 05 13 addi	a0, s0, 0x0
0x8000021c: 00 81 24 03 lw	s0, 0x8(sp)
0x80000220: 01 01 01 13 addi	sp, sp, 0x10
0x80000224: 00 00 80 67 jalr	zero, 0x0(ra)
0x80001390: 02 05 06 63 beq	a0, zero, 0x800013bc
0x80001394: 02 c1 20 83 lw	ra, 0x2c(sp)
0x80001398: 03 01 01 13 addi	sp, sp, 0x30
0x8000139c: 00 00 80 67 jalr	zero, 0x0(ra)
0x800014b8: 08 41 23 03 lw	t1, 0x84(sp)
0x800014bc: 08 81 23 83 lw	t2, 0x88(sp)
0x800014c0: 30 03 10 73 csrrw	zero, mstatus, t1
0x800014c4: 34 13 90 73 csrrw	zero, mepc, t2
0x800014c8: 00 41 20 83 lw	ra, 0x4(sp)
0x800014cc: 00 c1 21 83 lw	gp, 0xc(sp)
0x800014d0: 01 01 22 03 lw	tp, 0x10(sp)
0x800014d4: 01 41 22 83 lw	t0, 0x14(sp)
0x800014d8: 01 81 23 03 lw	t1, 0x18(sp)
0x800014dc: 01 c1 23 83 lw	t2, 0x1c(sp)
0x800014e0: 02 01 24 03 lw	s0, 0x20(sp)
0x800014e4: 02 41 24 83 lw	s1, 0x24(sp)
0x800014e8: 02 81 25 03 lw	a0, 0x28(sp)
0x800014ec: 02 c1 25 83 lw	a1, 0x2c(sp)
0x800014f0: 03 01 26 03 lw	a2, 0x30(sp)
0x800014f4: 03 41 26 83 lw	a3, 0x34(sp)
0x800014f8: 03 81 27 03 lw	a4, 0x38(sp)
0x800014fc: 03 c1 27 83 lw	a5, 0x3c(sp)
0x80001500: 04 01 28 03 lw	a6, 0x40(sp)
0x80001504: 04 41 28 83 lw	a7, 0x44(sp)
0x80001508: 04 81 29 03 lw	s2, 0x48(sp)
0x8000150c: 04 c1 29 83 lw	s3, 0x4c(sp)
0x80001510: 05 01 2a 03 lw	s4, 0x50(sp)
0x80001514: 05 41 2a 83 lw	s5, 0x54(sp)
0x80001518: 05 81 2b 03 lw	s6, 0x58(sp)
0x8000151c: 05 c1 2b 83 lw	s7, 0x5c(sp)
0x80001520: 06 01 2c 03 lw	s8, 0x60(sp)
0x80001524: 06 41 2c 83 lw	s9, 0x64(sp)
0x80001528: 06 81 2d 03 lw	s10, 0x68(sp)
0x8000152c: 06 c1 2d 83 lw	s11, 0x6c(sp)
0x80001530: 07 01 2e 03 lw	t3, 0x70(sp)
0x80001534: 07 41 2e 83 lw	t4, 0x74(sp)
0x80001538: 07 81 2f 03 lw	t5, 0x78(sp)
0x8000153c: 07 c1 2f 83 lw	t6, 0x7c(sp)
0x80001540: 08 c1 01 13 addi	sp, sp, 0x8c
0x80001544: 30 20 00 73 mret
0x80001400: 00 00 00 73 ecall
0x80001410: f7 41 01 13 addi	sp, sp, -0x8c
0x80001414: 00 11 22 23 sw	ra, 0x4(sp)
0x80001418: 00 31 26 23 sw	gp, 0xc(sp)
0x8000141c: 00 41 28 23 sw	tp, 0x10(sp)
0x80001420: 00 51 2a 23 sw	t0, 0x14(sp)
0x80001424: 00 61 2c 23 sw	t1, 0x18(sp)
0x80001428: 00 71 2e 23 sw	t2, 0x1c(sp)
0x8000142c: 02 81 20 23 sw	s0, 0x20(sp)
0x80001430: 02 91 22 23 sw	s1, 0x24(sp)
0x80001434: 02 a1 24 23 sw	a0, 0x28(sp)
0x80001438: 02 b1 26 23 sw	a1, 0x2c(sp)
0x8000143c: 02 c1 28 23 sw	a2, 0x30(sp)
0x80001440: 02 d1 2a 23 sw	a3, 0x34(sp)
0x80001444: 02 e1 2c 23 sw	a4, 0x38(sp)
0x80001448: 02 f1 2e 23 sw	a5, 0x3c(sp)
0x8000144c: 05 01 20 23 sw	a6, 0x40(sp)
0x80001450: 05 11 22 23 sw	a7, 0x44(sp)
0x80001454: 05 21 24 23 sw	s2, 0x48(sp)
0x80001458: 05 31 26 23 sw	s3, 0x4c(sp)
0x8000145c: 05 41 28 23 sw	s4, 0x50(sp)
0x80001460: 05 51 2a 23 sw	s5, 0x54(sp)
0x80001464: 05 61 2c 23 sw	s6, 0x58(sp)
0x80001468: 05 71 2e 23 sw	s7, 0x5c(sp)
0x8000146c: 07 81 20 23 sw	s8, 0x60(sp)
0x80001470: 07 91 22 23 sw	s9, 0x64(sp)
0x80001474: 07 a1 24 23 sw	s10, 0x68(sp)
0x80001478: 07 b1 26 23 sw	s11, 0x6c(sp)
0x8000147c: 07 c1 28 23 sw	t3, 0x70(sp)
0x80001480: 07 d1 2a 23 sw	t4, 0x74(sp)
0x80001484: 07 e1 2c 23 sw	t5, 0x78(sp)
0x80001488: 07 f1 2e 23 sw	t6, 0x7c(sp)
0x8000148c: 34 20 22 f3 csrrs	t0, mcause, zero
0x80001490: 30 00 23 73 csrrs	t1, mstatus, zero
0x80001494: 34 10 23 f3 csrrs	t2, mepc, zero
0x80001498: 08 51 20 23 sw	t0, 0x80(sp)
0x8000149c: 08 61 22 23 sw	t1, 0x84(sp)
0x800014a0: 08 71 24 23 sw	t2, 0x88(sp)
0x800014a4: 00 02 05 37 lui	a0, 0x20
0x800014a8: 00 a3 63 33 or	t1, t1, a0
0x800014ac: 30 03 10 73 csrrw	zero, mstatus, t1
0x800014b0: 00 01 05 13 addi	a0, sp, 0x0
0x800014b4: e8 5f f0 ef jal	ra, 0x80001338
0x80001338: 00 09 47 97 auipc	a5, 0x94
0x8000133c: c6 07 a7 83 lw	a5, -0x3a0(a5)
0x80001340: 00 05 05 93 addi	a1, a0, 0x0
0x80001344: 06 07 8a 63 beq	a5, zero, 0x800013b8
0x80001348: 08 05 26 03 lw	a2, 0x80(a0)
0x8000134c: fd 01 01 13 addi	sp, sp, -0x30
0x80001350: 02 11 26 23 sw	ra, 0x2c(sp)
0x80001354: 00 01 2a 23 sw	zero, 0x14(sp)
0x80001358: 00 01 2c 23 sw	zero, 0x18(sp)
0x8000135c: 00 01 2e 23 sw	zero, 0x1c(sp)
0x80001360: 00 b0 06 93 addi	a3, zero, 0xb
0x80001364: 00 40 07 13 addi	a4, zero, 0x4
0x80001368: 02 d6 0c 63 beq	a2, a3, 0x800013a0
0x800013a0: 04 45 26 03 lw	a2, 0x44(a0)
0x800013a4: ff f0 06 93 addi	a3, zero, -0x1
0x800013a8: 00 10 07 13 addi	a4, zero, 0x1
0x800013ac: fc d6 00 e3 beq	a2, a3, 0x8000136c
0x8000136c: 00 e1 20 23 sw	a4, 0x0(sp)
0x80001370: 01 41 27 03 lw	a4, 0x14(sp)
0x80001374: 00 01 05 13 addi	a0, sp, 0x0
0x80001378: 00 e1 22 23 sw	a4, 0x4(sp)
0x8000137c: 01 81 27 03 lw	a4, 0x18(sp)
0x80001380: 00 e1 24 23 sw	a4, 0x8(sp)
0x80001384: 01 c1 27 03 lw	a4, 0x1c(sp)
0x80001388: 00 e1 26 23 sw	a4, 0xc(sp)
0x8000138c: 00 07 80 e7 jalr	ra, 0x0(a5)
0x800001e0: 00 05 27 83 lw	a5, 0x0(a0)
0x800001e4: ff 01 01 13 addi	sp, sp, -0x10
0x800001e8: 00 81 24 23 sw	s0, 0x8(sp)
0x800001ec: 00 11 26 23 sw	ra, 0xc(sp)
0x800001f0: 00 50 07 13 addi	a4, zero, 0x5
0x800001f4: 00 05 84 13 addi	s0, a1, 0x0
0x800001f8: 04 e7 86 63 beq	a5, a4, 0x80000244
0x800001fc: 00 60 07 13 addi	a4, zero, 0x6
0x80000200: 02 e7 84 63 beq	a5, a4, 0x80000228
0x80000204: 00 10 07 13 addi	a4, zero, 0x1
0x80000208: 04 e7 9c 63 bne	a5, a4, 0x80000260
0x8000020c: 07 90 05 13 addi	a0, zero, 0x79
0x80000210: 59 90 00 ef jal	ra, 0x80000fa8
0x80000fa8: a0 00 07 b7 lui	a5, 0xa0000
0x80000fac: 3e a7 8c 23 sb	a0, 0x3f8(a5)
0x80000fb0: 00 00 80 67 jalr	zero, 0x0(ra)
0x80000214: 00 c1 20 83 lw	ra, 0xc(sp)
0x80000218: 00 04 05 13 addi	a0, s0, 0x0
0x8000021c: 00 81 24 03 lw	s0, 0x8(sp)
0x80000220: 01 01 01 13 addi	sp, sp, 0x10
0x80000224: 00 00 80 67 jalr	zero, 0x0(ra)
0x80001390: 02 05 06 63 beq	a0, zero, 0x800013bc
0x80001394: 02 c1 20 83 lw	ra, 0x2c(sp)
0x80001398: 03 01 01 13 addi	sp, sp, 0x30
0x8000139c: 00 00 80 67 jalr	zero, 0x0(ra)
0x800014b8: 08 41 23 03 lw	t1, 0x84(sp)
0x800014bc: 08 81 23 83 lw	t2, 0x88(sp)
0x800014c0: 30 03 10 73 csrrw	zero, mstatus, t1
0x800014c4: 34 13 90 73 csrrw	zero, mepc, t2
0x800014c8: 00 41 20 83 lw	ra, 0x4(sp)
0x800014cc: 00 c1 21 83 lw	gp, 0xc(sp)
0x800014d0: 01 01 22 03 lw	tp, 0x10(sp)
0x800014d4: 01 41 22 83 lw	t0, 0x14(sp)
0x800014d8: 01 81 23 03 lw	t1, 0x18(sp)
0x800014dc: 01 c1 23 83 lw	t2, 0x1c(sp)
0x800014e0: 02 01 24 03 lw	s0, 0x20(sp)
0x800014e4: 02 41 24 83 lw	s1, 0x24(sp)
0x800014e8: 02 81 25 03 lw	a0, 0x28(sp)
0x800014ec: 02 c1 25 83 lw	a1, 0x2c(sp)
0x800014f0: 03 01 26 03 lw	a2, 0x30(sp)
0x800014f4: 03 41 26 83 lw	a3, 0x34(sp)
0x800014f8: 03 81 27 03 lw	a4, 0x38(sp)
0x800014fc: 03 c1 27 83 lw	a5, 0x3c(sp)
0x80001500: 04 01 28 03 lw	a6, 0x40(sp)
0x80001504: 04 41 28 83 lw	a7, 0x44(sp)
0x80001508: 04 81 29 03 lw	s2, 0x48(sp)
0x8000150c: 04 c1 29 83 lw	s3, 0x4c(sp)
0x80001510: 05 01 2a 03 lw	s4, 0x50(sp)
0x80001514: 05 41 2a 83 lw	s5, 0x54(sp)
0x80001518: 05 81 2b 03 lw	s6, 0x58(sp)
0x8000151c: 05 c1 2b 83 lw	s7, 0x5c(sp)
0x80001520: 06 01 2c 03 lw	s8, 0x60(sp)
0x80001524: 06 41 2c 83 lw	s9, 0x64(sp)
0x80001528: 06 81 2d 03 lw	s10, 0x68(sp)
0x8000152c: 06 c1 2d 83 lw	s11, 0x6c(sp)
0x80001530: 07 01 2e 03 lw	t3, 0x70(sp)
0x80001534: 07 41 2e 83 lw	t4, 0x74(sp)
0x80001538: 07 81 2f 03 lw	t5, 0x78(sp)
0x8000153c: 07 c1 2f 83 lw	t6, 0x7c(sp)
0x80001540: 08 c1 01 13 addi	sp, sp, 0x8c
0x80001544: 30 20 00 73 mret
0x80001400: 00 00 00 73 ecall
0x80001410: f7 41 01 13 addi	sp, sp, -0x8c
0x80001414: 00 11 22 23 sw	ra, 0x4(sp)
0x80001418: 00 31 26 23 sw	gp, 0xc(sp)
0x8000141c: 00 41 28 23 sw	tp, 0x10(sp)
0x80001420: 00 51 2a 23 sw	t0, 0x14(sp)
0x80001424: 00 61 2c 23 sw	t1, 0x18(sp)
0x80001428: 00 71 2e 23 sw	t2, 0x1c(sp)
0x8000142c: 02 81 20 23 sw	s0, 0x20(sp)
0x80001430: 02 91 22 23 sw	s1, 0x24(sp)
0x80001434: 02 a1 24 23 sw	a0, 0x28(sp)
0x80001438: 02 b1 26 23 sw	a1, 0x2c(sp)
0x8000143c: 02 c1 28 23 sw	a2, 0x30(sp)
0x80001440: 02 d1 2a 23 sw	a3, 0x34(sp)
0x80001444: 02 e1 2c 23 sw	a4, 0x38(sp)
0x80001448: 02 f1 2e 23 sw	a5, 0x3c(sp)
0x8000144c: 05 01 20 23 sw	a6, 0x40(sp)
0x80001450: 05 11 22 23 sw	a7, 0x44(sp)
0x80001454: 05 21 24 23 sw	s2, 0x48(sp)
0x80001458: 05 31 26 23 sw	s3, 0x4c(sp)
0x8000145c: 05 41 28 23 sw	s4, 0x50(sp)
0x80001460: 05 51 2a 23 sw	s5, 0x54(sp)
0x80001464: 05 61 2c 23 sw	s6, 0x58(sp)
0x80001468: 05 71 2e 23 sw	s7, 0x5c(sp)
0x8000146c: 07 81 20 23 sw	s8, 0x60(sp)
0x80001470: 07 91 22 23 sw	s9, 0x64(sp)
0x80001474: 07 a1 24 23 sw	s10, 0x68(sp)
0x80001478: 07 b1 26 23 sw	s11, 0x6c(sp)
0x8000147c: 07 c1 28 23 sw	t3, 0x70(sp)
0x80001480: 07 d1 2a 23 sw	t4, 0x74(sp)
0x80001484: 07 e1 2c 23 sw	t5, 0x78(sp)
0x80001488: 07 f1 2e 23 sw	t6, 0x7c(sp)
0x8000148c: 34 20 22 f3 csrrs	t0, mcause, zero
0x80001490: 30 00 23 73 csrrs	t1, mstatus, zero
0x80001494: 34 10 23 f3 csrrs	t2, mepc, zero
0x80001498: 08 51 20 23 sw	t0, 0x80(sp)
0x8000149c: 08 61 22 23 sw	t1, 0x84(sp)
0x800014a0: 08 71 24 23 sw	t2, 0x88(sp)
0x800014a4: 00 02 05 37 lui	a0, 0x20
0x800014a8: 00 a3 63 33 or	t1, t1, a0
0x800014ac: 30 03 10 73 csrrw	zero, mstatus, t1
0x800014b0: 00 01 05 13 addi	a0, sp, 0x0
0x800014b4: e8 5f f0 ef jal	ra, 0x80001338
0x80001338: 00 09 47 97 auipc	a5, 0x94
0x8000133c: c6 07 a7 83 lw	a5, -0x3a0(a5)
0x80001340: 00 05 05 93 addi	a1, a0, 0x0
0x80001344: 06 07 8a 63 beq	a5, zero, 0x800013b8
0x80001348: 08 05 26 03 lw	a2, 0x80(a0)
0x8000134c: fd 01 01 13 addi	sp, sp, -0x30
0x80001350: 02 11 26 23 sw	ra, 0x2c(sp)
0x80001354: 00 01 2a 23 sw	zero, 0x14(sp)
0x80001358: 00 01 2c 23 sw	zero, 0x18(sp)
0x8000135c: 00 01 2e 23 sw	zero, 0x1c(sp)
0x80001360: 00 b0 06 93 addi	a3, zero, 0xb
0x80001364: 00 40 07 13 addi	a4, zero, 0x4
0x80001368: 02 d6 0c 63 beq	a2, a3, 0x800013a0
0x800013a0: 04 45 26 03 lw	a2, 0x44(a0)
0x800013a4: ff f0 06 93 addi	a3, zero, -0x1
0x800013a8: 00 10 07 13 addi	a4, zero, 0x1
0x800013ac: fc d6 00 e3 beq	a2, a3, 0x8000136c
0x8000136c: 00 e1 20 23 sw	a4, 0x0(sp)
0x80001370: 01 41 27 03 lw	a4, 0x14(sp)
0x80001374: 00 01 05 13 addi	a0, sp, 0x0
0x80001378: 00 e1 22 23 sw	a4, 0x4(sp)
0x8000137c: 01 81 27 03 lw	a4, 0x18(sp)
0x80001380: 00 e1 24 23 sw	a4, 0x8(sp)
0x80001384: 01 c1 27 03 lw	a4, 0x1c(sp)
0x80001388: 00 e1 26 23 sw	a4, 0xc(sp)
0x8000138c: 00 07 80 e7 jalr	ra, 0x0(a5)
0x800001e0: 00 05 27 83 lw	a5, 0x0(a0)
0x800001e4: ff 01 01 13 addi	sp, sp, -0x10
0x800001e8: 00 81 24 23 sw	s0, 0x8(sp)
0x800001ec: 00 11 26 23 sw	ra, 0xc(sp)
0x800001f0: 00 50 07 13 addi	a4, zero, 0x5
0x800001f4: 00 05 84 13 addi	s0, a1, 0x0
0x800001f8: 04 e7 86 63 beq	a5, a4, 0x80000244
0x800001fc: 00 60 07 13 addi	a4, zero, 0x6
0x80000200: 02 e7 84 63 beq	a5, a4, 0x80000228
0x80000204: 00 10 07 13 addi	a4, zero, 0x1
0x80000208: 04 e7 9c 63 bne	a5, a4, 0x80000260
0x8000020c: 07 90 05 13 addi	a0, zero, 0x79
0x80000210: 59 90 00 ef jal	ra, 0x80000fa8
0x80000fa8: a0 00 07 b7 lui	a5, 0xa0000
0x80000fac: 3e a7 8c 23 sb	a0, 0x3f8(a5)
0x80000fb0: 00 00 80 67 jalr	zero, 0x0(ra)
0x80000214: 00 c1 20 83 lw	ra, 0xc(sp)
0x80000218: 00 04 05 13 addi	a0, s0, 0x0
0x8000021c: 00 81 24 03 lw	s0, 0x8(sp)
0x80000220: 01 01 01 13 addi	sp, sp, 0x10
0x80000224: 00 00 80 67 jalr	zero, 0x0(ra)
0x80001390: 02 05 06 63 beq	a0, zero, 0x800013bc
0x80001394: 02 c1 20 83 lw	ra, 0x2c(sp)
0x80001398: 03 01 01 13 addi	sp, sp, 0x30
0x8000139c: 00 00 80 67 jalr	zero, 0x0(ra)
0x800014b8: 08 41 23 03 lw	t1, 0x84(sp)
0x800014bc: 08 81 23 83 lw	t2, 0x88(sp)
0x800014c0: 30 03 10 73 csrrw	zero, mstatus, t1
0x800014c4: 34 13 90 73 csrrw	zero, mepc, t2
0x800014c8: 00 41 20 83 lw	ra, 0x4(sp)
0x800014cc: 00 c1 21 83 lw	gp, 0xc(sp)
0x800014d0: 01 01 22 03 lw	tp, 0x10(sp)
0x800014d4: 01 41 22 83 lw	t0, 0x14(sp)
0x800014d8: 01 81 23 03 lw	t1, 0x18(sp)
0x800014dc: 01 c1 23 83 lw	t2, 0x1c(sp)
0x800014e0: 02 01 24 03 lw	s0, 0x20(sp)
0x800014e4: 02 41 24 83 lw	s1, 0x24(sp)
0x800014e8: 02 81 25 03 lw	a0, 0x28(sp)
0x800014ec: 02 c1 25 83 lw	a1, 0x2c(sp)
0x800014f0: 03 01 26 03 lw	a2, 0x30(sp)
0x800014f4: 03 41 26 83 lw	a3, 0x34(sp)
0x800014f8: 03 81 27 03 lw	a4, 0x38(sp)
0x800014fc: 03 c1 27 83 lw	a5, 0x3c(sp)
0x80001500: 04 01 28 03 lw	a6, 0x40(sp)
0x80001504: 04 41 28 83 lw	a7, 0x44(sp)
0x80001508: 04 81 29 03 lw	s2, 0x48(sp)
0x8000150c: 04 c1 29 83 lw	s3, 0x4c(sp)
0x80001510: 05 01 2a 03 lw	s4, 0x50(sp)
0x80001514: 05 41 2a 83 lw	s5, 0x54(sp)
0x80001518: 05 81 2b 03 lw	s6, 0x58(sp)
0x8000151c: 05 c1 2b 83 lw	s7, 0x5c(sp)
0x80001520: 06 01 2c 03 lw	s8, 0x60(sp)
0x80001524: 06 41 2c 83 lw	s9, 0x64(sp)
0x80001528: 06 81 2d 03 lw	s10, 0x68(sp)
0x8000152c: 06 c1 2d 83 lw	s11, 0x6c(sp)
0x80001530: 07 01 2e 03 lw	t3, 0x70(sp)
0x80001534: 07 41 2e 83 lw	t4, 0x74(sp)
0x80001538: 07 81 2f 03 lw	t5, 0x78(sp)
0x8000153c: 07 c1 2f 83 lw	t6, 0x7c(sp)
0x80001540: 08 c1 01 13 addi	sp, sp, 0x8c
0x80001544: 30 20 00 73 mret
0x80001400: 00 00 00 73 ecall
0x80001410: f7 41 01 13 addi	sp, sp, -0x8c
0x80001414: 00 11 22 23 sw	ra, 0x4(sp)
0x80001418: 00 31 26 23 sw	gp, 0xc(sp)
0x8000141c: 00 41 28 23 sw	tp, 0x10(sp)
0x80001420: 00 51 2a 23 sw	t0, 0x14(sp)
0x80001424: 00 61 2c 23 sw	t1, 0x18(sp)
0x80001428: 00 71 2e 23 sw	t2, 0x1c(sp)
0x8000142c: 02 81 20 23 sw	s0, 0x20(sp)
0x80001430: 02 91 22 23 sw	s1, 0x24(sp)
0x80001434: 02 a1 24 23 sw	a0, 0x28(sp)
0x80001438: 02 b1 26 23 sw	a1, 0x2c(sp)
0x8000143c: 02 c1 28 23 sw	a2, 0x30(sp)
0x80001440: 02 d1 2a 23 sw	a3, 0x34(sp)
0x80001444: 02 e1 2c 23 sw	a4, 0x38(sp)
0x80001448: 02 f1 2e 23 sw	a5, 0x3c(sp)
0x8000144c: 05 01 20 23 sw	a6, 0x40(sp)
0x80001450: 05 11 22 23 sw	a7, 0x44(sp)
0x80001454: 05 21 24 23 sw	s2, 0x48(sp)
0x80001458: 05 31 26 23 sw	s3, 0x4c(sp)
0x8000145c: 05 41 28 23 sw	s4, 0x50(sp)
0x80001460: 05 51 2a 23 sw	s5, 0x54(sp)
0x80001464: 05 61 2c 23 sw	s6, 0x58(sp)
0x80001468: 05 71 2e 23 sw	s7, 0x5c(sp)
0x8000146c: 07 81 20 23 sw	s8, 0x60(sp)
0x80001470: 07 91 22 23 sw	s9, 0x64(sp)
0x80001474: 07 a1 24 23 sw	s10, 0x68(sp)
0x80001478: 07 b1 26 23 sw	s11, 0x6c(sp)
0x8000147c: 07 c1 28 23 sw	t3, 0x70(sp)
0x80001480: 07 d1 2a 23 sw	t4, 0x74(sp)
0x80001484: 07 e1 2c 23 sw	t5, 0x78(sp)
0x80001488: 07 f1 2e 23 sw	t6, 0x7c(sp)
0x8000148c: 34 20 22 f3 csrrs	t0, mcause, zero
0x80001490: 30 00 23 73 csrrs	t1, mstatus, zero
0x80001494: 34 10 23 f3 csrrs	t2, mepc, zero
0x80001498: 08 51 20 23 sw	t0, 0x80(sp)
0x8000149c: 08 61 22 23 sw	t1, 0x84(sp)
0x800014a0: 08 71 24 23 sw	t2, 0x88(sp)
0x800014a4: 00 02 05 37 lui	a0, 0x20
0x800014a8: 00 a3 63 33 or	t1, t1, a0
0x800014ac: 30 03 10 73 csrrw	zero, mstatus, t1
0x800014b0: 00 01 05 13 addi	a0, sp, 0x0
0x800014b4: e8 5f f0 ef jal	ra, 0x80001338
0x80001338: 00 09 47 97 auipc	a5, 0x94
0x8000133c: c6 07 a7 83 lw	a5, -0x3a0(a5)
0x80001340: 00 05 05 93 addi	a1, a0, 0x0
0x80001344: 06 07 8a 63 beq	a5, zero, 0x800013b8
0x80001348: 08 05 26 03 lw	a2, 0x80(a0)
0x8000134c: fd 01 01 13 addi	sp, sp, -0x30
0x80001350: 02 11 26 23 sw	ra, 0x2c(sp)
0x80001354: 00 01 2a 23 sw	zero, 0x14(sp)
0x80001358: 00 01 2c 23 sw	zero, 0x18(sp)
0x8000135c: 00 01 2e 23 sw	zero, 0x1c(sp)
0x80001360: 00 b0 06 93 addi	a3, zero, 0xb
0x80001364: 00 40 07 13 addi	a4, zero, 0x4
0x80001368: 02 d6 0c 63 beq	a2, a3, 0x800013a0
0x800013a0: 04 45 26 03 lw	a2, 0x44(a0)
0x800013a4: ff f0 06 93 addi	a3, zero, -0x1
0x800013a8: 00 10 07 13 addi	a4, zero, 0x1
0x800013ac: fc d6 00 e3 beq	a2, a3, 0x8000136c
0x8000136c: 00 e1 20 23 sw	a4, 0x0(sp)
0x80001370: 01 41 27 03 lw	a4, 0x14(sp)
0x80001374: 00 01 05 13 addi	a0, sp, 0x0
0x80001378: 00 e1 22 23 sw	a4, 0x4(sp)
0x8000137c: 01 81 27 03 lw	a4, 0x18(sp)
0x80001380: 00 e1 24 23 sw	a4, 0x8(sp)
0x80001384: 01 c1 27 03 lw	a4, 0x1c(sp)
0x80001388: 00 e1 26 23 sw	a4, 0xc(sp)
0x8000138c: 00 07 80 e7 jalr	ra, 0x0(a5)
0x800001e0: 00 05 27 83 lw	a5, 0x0(a0)
0x800001e4: ff 01 01 13 addi	sp, sp, -0x10
0x800001e8: 00 81 24 23 sw	s0, 0x8(sp)
0x800001ec: 00 11 26 23 sw	ra, 0xc(sp)
0x800001f0: 00 50 07 13 addi	a4, zero, 0x5
0x800001f4: 00 05 84 13 addi	s0, a1, 0x0
0x800001f8: 04 e7 86 63 beq	a5, a4, 0x80000244
0x800001fc: 00 60 07 13 addi	a4, zero, 0x6
0x80000200: 02 e7 84 63 beq	a5, a4, 0x80000228
0x80000204: 00 10 07 13 addi	a4, zero, 0x1
0x80000208: 04 e7 9c 63 bne	a5, a4, 0x80000260
0x8000020c: 07 90 05 13 addi	a0, zero, 0x79
0x80000210: 59 90 00 ef jal	ra, 0x80000fa8
0x80000fa8: a0 00 07 b7 lui	a5, 0xa0000
0x80000fac: 3e a7 8c 23 sb	a0, 0x3f8(a5)
0x80000fb0: 00 00 80 67 jalr	zero, 0x0(ra)
0x80000214: 00 c1 20 83 lw	ra, 0xc(sp)
0x80000218: 00 04 05 13 addi	a0, s0, 0x0
0x8000021c: 00 81 24 03 lw	s0, 0x8(sp)
0x80000220: 01 01 01 13 addi	sp, sp, 0x10
0x80000224: 00 00 80 67 jalr	zero, 0x0(ra)
0x80001390: 02 05 06 63 beq	a0, zero, 0x800013bc
0x80001394: 02 c1 20 83 lw	ra, 0x2c(sp)
0x80001398: 03 01 01 13 addi	sp, sp, 0x30
0x8000139c: 00 00 80 67 jalr	zero, 0x0(ra)
0x800014b8: 08 41 23 03 lw	t1, 0x84(sp)
0x800014bc: 08 81 23 83 lw	t2, 0x88(sp)
0x800014c0: 30 03 10 73 csrrw	zero, mstatus, t1
0x800014c4: 34 13 90 73 csrrw	zero, mepc, t2
0x800014c8: 00 41 20 83 lw	ra, 0x4(sp)
0x800014cc: 00 c1 21 83 lw	gp, 0xc(sp)
0x800014d0: 01 01 22 03 lw	tp, 0x10(sp)
0x800014d4: 01 41 22 83 lw	t0, 0x14(sp)
0x800014d8: 01 81 23 03 lw	t1, 0x18(sp)
0x800014dc: 01 c1 23 83 lw	t2, 0x1c(sp)
0x800014e0: 02 01 24 03 lw	s0, 0x20(sp)
0x800014e4: 02 41 24 83 lw	s1, 0x24(sp)
0x800014e8: 02 81 25 03 lw	a0, 0x28(sp)
0x800014ec: 02 c1 25 83 lw	a1, 0x2c(sp)
0x800014f0: 03 01 26 03 lw	a2, 0x30(sp)
0x800014f4: 03 41 26 83 lw	a3, 0x34(sp)
0x800014f8: 03 81 27 03 lw	a4, 0x38(sp)
0x800014fc: 03 c1 27 83 lw	a5, 0x3c(sp)
0x80001500: 04 01 28 03 lw	a6, 0x40(sp)
0x80001504: 04 41 28 83 lw	a7, 0x44(sp)
0x80001508: 04 81 29 03 lw	s2, 0x48(sp)
0x8000150c: 04 c1 29 83 lw	s3, 0x4c(sp)
0x80001510: 05 01 2a 03 lw	s4, 0x50(sp)
0x80001514: 05 41 2a 83 lw	s5, 0x54(sp)
0x80001518: 05 81 2b 03 lw	s6, 0x58(sp)
0x8000151c: 05 c1 2b 83 lw	s7, 0x5c(sp)
0x80001520: 06 01 2c 03 lw	s8, 0x60(sp)
0x80001524: 06 41 2c 83 lw	s9, 0x64(sp)
0x80001528: 06 81 2d 03 lw	s10, 0x68(sp)
0x8000152c: 06 c1 2d 83 lw	s11, 0x6c(sp)
0x80001530: 07 01 2e 03 lw	t3, 0x70(sp)
0x80001534: 07 41 2e 83 lw	t4, 0x74(sp)
0x80001538: 07 81 2f 03 lw	t5, 0x78(sp)
0x8000153c: 07 c1 2f 83 lw	t6, 0x7c(sp)
0x80001540: 08 c1 01 13 addi	sp, sp, 0x8c
0x80001544: 30 20 00 73 mret
0x80001400: 00 00 00 73 ecall
0x80001410: f7 41 01 13 addi	sp, sp, -0x8c
0x80001414: 00 11 22 23 sw	ra, 0x4(sp)
0x80001418: 00 31 26 23 sw	gp, 0xc(sp)
0x8000141c: 00 41 28 23 sw	tp, 0x10(sp)
0x80001420: 00 51 2a 23 sw	t0, 0x14(sp)
0x80001424: 00 61 2c 23 sw	t1, 0x18(sp)
0x80001428: 00 71 2e 23 sw	t2, 0x1c(sp)
0x8000142c: 02 81 20 23 sw	s0, 0x20(sp)
0x80001430: 02 91 22 23 sw	s1, 0x24(sp)
0x80001434: 02 a1 24 23 sw	a0, 0x28(sp)
0x80001438: 02 b1 26 23 sw	a1, 0x2c(sp)
0x8000143c: 02 c1 28 23 sw	a2, 0x30(sp)
0x80001440: 02 d1 2a 23 sw	a3, 0x34(sp)
0x80001444: 02 e1 2c 23 sw	a4, 0x38(sp)
0x80001448: 02 f1 2e 23 sw	a5, 0x3c(sp)
0x8000144c: 05 01 20 23 sw	a6, 0x40(sp)
0x80001450: 05 11 22 23 sw	a7, 0x44(sp)
0x80001454: 05 21 24 23 sw	s2, 0x48(sp)
0x80001458: 05 31 26 23 sw	s3, 0x4c(sp)
0x8000145c: 05 41 28 23 sw	s4, 0x50(sp)
0x80001460: 05 51 2a 23 sw	s5, 0x54(sp)
0x80001464: 05 61 2c 23 sw	s6, 0x58(sp)
0x80001468: 05 71 2e 23 sw	s7, 0x5c(sp)
0x8000146c: 07 81 20 23 sw	s8, 0x60(sp)
0x80001470: 07 91 22 23 sw	s9, 0x64(sp)
0x80001474: 07 a1 24 23 sw	s10, 0x68(sp)
0x80001478: 07 b1 26 23 sw	s11, 0x6c(sp)
0x8000147c: 07 c1 28 23 sw	t3, 0x70(sp)
0x80001480: 07 d1 2a 23 sw	t4, 0x74(sp)
0x80001484: 07 e1 2c 23 sw	t5, 0x78(sp)
0x80001488: 07 f1 2e 23 sw	t6, 0x7c(sp)
0x8000148c: 34 20 22 f3 csrrs	t0, mcause, zero
0x80001490: 30 00 23 73 csrrs	t1, mstatus, zero
0x80001494: 34 10 23 f3 csrrs	t2, mepc, zero
0x80001498: 08 51 20 23 sw	t0, 0x80(sp)
0x8000149c: 08 61 22 23 sw	t1, 0x84(sp)
0x800014a0: 08 71 24 23 sw	t2, 0x88(sp)
0x800014a4: 00 02 05 37 lui	a0, 0x20
0x800014a8: 00 a3 63 33 or	t1, t1, a0
0x800014ac: 30 03 10 73 csrrw	zero, mstatus, t1
0x800014b0: 00 01 05 13 addi	a0, sp, 0x0
0x800014b4: e8 5f f0 ef jal	ra, 0x80001338
0x80001338: 00 09 47 97 auipc	a5, 0x94
0x8000133c: c6 07 a7 83 lw	a5, -0x3a0(a5)
0x80001340: 00 05 05 93 addi	a1, a0, 0x0
0x80001344: 06 07 8a 63 beq	a5, zero, 0x800013b8
0x80001348: 08 05 26 03 lw	a2, 0x80(a0)
0x8000134c: fd 01 01 13 addi	sp, sp, -0x30
0x80001350: 02 11 26 23 sw	ra, 0x2c(sp)
0x80001354: 00 01 2a 23 sw	zero, 0x14(sp)
0x80001358: 00 01 2c 23 sw	zero, 0x18(sp)
0x8000135c: 00 01 2e 23 sw	zero, 0x1c(sp)
0x80001360: 00 b0 06 93 addi	a3, zero, 0xb
0x80001364: 00 40 07 13 addi	a4, zero, 0x4
0x80001368: 02 d6 0c 63 beq	a2, a3, 0x800013a0
0x800013a0: 04 45 26 03 lw	a2, 0x44(a0)
0x800013a4: ff f0 06 93 addi	a3, zero, -0x1
0x800013a8: 00 10 07 13 addi	a4, zero, 0x1
0x800013ac: fc d6 00 e3 beq	a2, a3, 0x8000136c
0x8000136c: 00 e1 20 23 sw	a4, 0x0(sp)
0x80001370: 01 41 27 03 lw	a4, 0x14(sp)
0x80001374: 00 01 05 13 addi	a0, sp, 0x0
0x80001378: 00 e1 22 23 sw	a4, 0x4(sp)
0x8000137c: 01 81 27 03 lw	a4, 0x18(sp)
0x80001380: 00 e1 24 23 sw	a4, 0x8(sp)
0x80001384: 01 c1 27 03 lw	a4, 0x1c(sp)
0x80001388: 00 e1 26 23 sw	a4, 0xc(sp)
0x8000138c: 00 07 80 e7 jalr	ra, 0x0(a5)
0x800001e0: 00 05 27 83 lw	a5, 0x0(a0)
0x800001e4: ff 01 01 13 addi	sp, sp, -0x10
0x800001e8: 00 81 24 23 sw	s0, 0x8(sp)
0x800001ec: 00 11 26 23 sw	ra, 0xc(sp)
0x800001f0: 00 50 07 13 addi	a4, zero, 0x5
0x800001f4: 00 05 84 13 addi	s0, a1, 0x0
0x800001f8: 04 e7 86 63 beq	a5, a4, 0x80000244
0x800001fc: 00 60 07 13 addi	a4, zero, 0x6
0x80000200: 02 e7 84 63 beq	a5, a4, 0x80000228
0x80000204: 00 10 07 13 addi	a4, zero, 0x1
0x80000208: 04 e7 9c 63 bne	a5, a4, 0x80000260
0x8000020c: 07 90 05 13 addi	a0, zero, 0x79
0x80000210: 59 90 00 ef jal	ra, 0x80000fa8
0x80000fa8: a0 00 07 b7 lui	a5, 0xa0000
0x80000fac: 3e a7 8c 23 sb	a0, 0x3f8(a5)
0x80000fb0: 00 00 80 67 jalr	zero, 0x0(ra)
0x80000214: 00 c1 20 83 lw	ra, 0xc(sp)
0x80000218: 00 04 05 13 addi	a0, s0, 0x0
0x8000021c: 00 81 24 03 lw	s0, 0x8(sp)
0x80000220: 01 01 01 13 addi	sp, sp, 0x10
0x80000224: 00 00 80 67 jalr	zero, 0x0(ra)
0x80001390: 02 05 06 63 beq	a0, zero, 0x800013bc
0x80001394: 02 c1 20 83 lw	ra, 0x2c(sp)
0x80001398: 03 01 01 13 addi	sp, sp, 0x30
0x8000139c: 00 00 80 67 jalr	zero, 0x0(ra)
0x800014b8: 08 41 23 03 lw	t1, 0x84(sp)
0x800014bc: 08 81 23 83 lw	t2, 0x88(sp)
0x800014c0: 30 03 10 73 csrrw	zero, mstatus, t1
0x800014c4: 34 13 90 73 csrrw	zero, mepc, t2
0x800014c8: 00 41 20 83 lw	ra, 0x4(sp)
0x800014cc: 00 c1 21 83 lw	gp, 0xc(sp)
0x800014d0: 01 01 22 03 lw	tp, 0x10(sp)
0x800014d4: 01 41 22 83 lw	t0, 0x14(sp)
0x800014d8: 01 81 23 03 lw	t1, 0x18(sp)
0x800014dc: 01 c1 23 83 lw	t2, 0x1c(sp)
0x800014e0: 02 01 24 03 lw	s0, 0x20(sp)
0x800014e4: 02 41 24 83 lw	s1, 0x24(sp)
0x800014e8: 02 81 25 03 lw	a0, 0x28(sp)
0x800014ec: 02 c1 25 83 lw	a1, 0x2c(sp)
0x800014f0: 03 01 26 03 lw	a2, 0x30(sp)
0x800014f4: 03 41 26 83 lw	a3, 0x34(sp)
0x800014f8: 03 81 27 03 lw	a4, 0x38(sp)
0x800014fc: 03 c1 27 83 lw	a5, 0x3c(sp)
0x80001500: 04 01 28 03 lw	a6, 0x40(sp)
0x80001504: 04 41 28 83 lw	a7, 0x44(sp)
0x80001508: 04 81 29 03 lw	s2, 0x48(sp)
0x8000150c: 04 c1 29 83 lw	s3, 0x4c(sp)
0x80001510: 05 01 2a 03 lw	s4, 0x50(sp)
0x80001514: 05 41 2a 83 lw	s5, 0x54(sp)
0x80001518: 05 81 2b 03 lw	s6, 0x58(sp)
0x8000151c: 05 c1 2b 83 lw	s7, 0x5c(sp)
0x80001520: 06 01 2c 03 lw	s8, 0x60(sp)
0x80001524: 06 41 2c 83 lw	s9, 0x64(sp)
0x80001528: 06 81 2d 03 lw	s10, 0x68(sp)
0x8000152c: 06 c1 2d 83 lw	s11, 0x6c(sp)
0x80001530: 07 01 2e 03 lw	t3, 0x70(sp)
0x80001534: 07 41 2e 83 lw	t4, 0x74(sp)
0x80001538: 07 81 2f 03 lw	t5, 0x78(sp)
0x8000153c: 07 c1 2f 83 lw	t6, 0x7c(sp)
0x80001540: 08 c1 01 13 addi	sp, sp, 0x8c
0x80001544: 30 20 00 73 mret
0x80001400: 00 00 00 73 ecall
0x80001410: f7 41 01 13 addi	sp, sp, -0x8c
0x80001414: 00 11 22 23 sw	ra, 0x4(sp)
0x80001418: 00 31 26 23 sw	gp, 0xc(sp)
0x8000141c: 00 41 28 23 sw	tp, 0x10(sp)
0x80001420: 00 51 2a 23 sw	t0, 0x14(sp)
0x80001424: 00 61 2c 23 sw	t1, 0x18(sp)
0x80001428: 00 71 2e 23 sw	t2, 0x1c(sp)
0x8000142c: 02 81 20 23 sw	s0, 0x20(sp)
0x80001430: 02 91 22 23 sw	s1, 0x24(sp)
0x80001434: 02 a1 24 23 sw	a0, 0x28(sp)
0x80001438: 02 b1 26 23 sw	a1, 0x2c(sp)
0x8000143c: 02 c1 28 23 sw	a2, 0x30(sp)
0x80001440: 02 d1 2a 23 sw	a3, 0x34(sp)
0x80001444: 02 e1 2c 23 sw	a4, 0x38(sp)
0x80001448: 02 f1 2e 23 sw	a5, 0x3c(sp)
0x8000144c: 05 01 20 23 sw	a6, 0x40(sp)
0x80001450: 05 11 22 23 sw	a7, 0x44(sp)
0x80001454: 05 21 24 23 sw	s2, 0x48(sp)
0x80001458: 05 31 26 23 sw	s3, 0x4c(sp)
0x8000145c: 05 41 28 23 sw	s4, 0x50(sp)
0x80001460: 05 51 2a 23 sw	s5, 0x54(sp)
0x80001464: 05 61 2c 23 sw	s6, 0x58(sp)
0x80001468: 05 71 2e 23 sw	s7, 0x5c(sp)
0x8000146c: 07 81 20 23 sw	s8, 0x60(sp)
0x80001470: 07 91 22 23 sw	s9, 0x64(sp)
0x80001474: 07 a1 24 23 sw	s10, 0x68(sp)
0x80001478: 07 b1 26 23 sw	s11, 0x6c(sp)
0x8000147c: 07 c1 28 23 sw	t3, 0x70(sp)
0x80001480: 07 d1 2a 23 sw	t4, 0x74(sp)
0x80001484: 07 e1 2c 23 sw	t5, 0x78(sp)
0x80001488: 07 f1 2e 23 sw	t6, 0x7c(sp)
0x8000148c: 34 20 22 f3 csrrs	t0, mcause, zero
0x80001490: 30 00 23 73 csrrs	t1, mstatus, zero
0x80001494: 34 10 23 f3 csrrs	t2, mepc, zero
0x80001498: 08 51 20 23 sw	t0, 0x80(sp)
0x8000149c: 08 61 22 23 sw	t1, 0x84(sp)
0x800014a0: 08 71 24 23 sw	t2, 0x88(sp)
0x800014a4: 00 02 05 37 lui	a0, 0x20
0x800014a8: 00 a3 63 33 or	t1, t1, a0
0x800014ac: 30 03 10 73 csrrw	zero, mstatus, t1
0x800014b0: 00 01 05 13 addi	a0, sp, 0x0
0x800014b4: e8 5f f0 ef jal	ra, 0x80001338
0x80001338: 00 09 47 97 auipc	a5, 0x94
0x8000133c: c6 07 a7 83 lw	a5, -0x3a0(a5)
0x80001340: 00 05 05 93 addi	a1, a0, 0x0
0x80001344: 06 07 8a 63 beq	a5, zero, 0x800013b8
0x80001348: 08 05 26 03 lw	a2, 0x80(a0)
0x8000134c: fd 01 01 13 addi	sp, sp, -0x30
0x80001350: 02 11 26 23 sw	ra, 0x2c(sp)
0x80001354: 00 01 2a 23 sw	zero, 0x14(sp)
0x80001358: 00 01 2c 23 sw	zero, 0x18(sp)
0x8000135c: 00 01 2e 23 sw	zero, 0x1c(sp)
0x80001360: 00 b0 06 93 addi	a3, zero, 0xb
0x80001364: 00 40 07 13 addi	a4, zero, 0x4
0x80001368: 02 d6 0c 63 beq	a2, a3, 0x800013a0
0x800013a0: 04 45 26 03 lw	a2, 0x44(a0)
0x800013a4: ff f0 06 93 addi	a3, zero, -0x1
0x800013a8: 00 10 07 13 addi	a4, zero, 0x1
0x800013ac: fc d6 00 e3 beq	a2, a3, 0x8000136c
0x8000136c: 00 e1 20 23 sw	a4, 0x0(sp)
0x80001370: 01 41 27 03 lw	a4, 0x14(sp)
0x80001374: 00 01 05 13 addi	a0, sp, 0x0
0x80001378: 00 e1 22 23 sw	a4, 0x4(sp)
0x8000137c: 01 81 27 03 lw	a4, 0x18(sp)
0x80001380: 00 e1 24 23 sw	a4, 0x8(sp)
0x80001384: 01 c1 27 03 lw	a4, 0x1c(sp)
0x80001388: 00 e1 26 23 sw	a4, 0xc(sp)
0x8000138c: 00 07 80 e7 jalr	ra, 0x0(a5)
0x800001e0: 00 05 27 83 lw	a5, 0x0(a0)
0x800001e4: ff 01 01 13 addi	sp, sp, -0x10
0x800001e8: 00 81 24 23 sw	s0, 0x8(sp)
0x800001ec: 00 11 26 23 sw	ra, 0xc(sp)
0x800001f0: 00 50 07 13 addi	a4, zero, 0x5
0x800001f4: 00 05 84 13 addi	s0, a1, 0x0
0x800001f8: 04 e7 86 63 beq	a5, a4, 0x80000244
0x800001fc: 00 60 07 13 addi	a4, zero, 0x6
0x80000200: 02 e7 84 63 beq	a5, a4, 0x80000228
0x80000204: 00 10 07 13 addi	a4, zero, 0x1
0x80000208: 04 e7 9c 63 bne	a5, a4, 0x80000260
0x8000020c: 07 90 05 13 addi	a0, zero, 0x79
0x80000210: 59 90 00 ef jal	ra, 0x80000fa8
0x80000fa8: a0 00 07 b7 lui	a5, 0xa0000
0x80000fac: 3e a7 8c 23 sb	a0, 0x3f8(a5)
0x80000fb0: 00 00 80 67 jalr	zero, 0x0(ra)
0x80000214: 00 c1 20 83 lw	ra, 0xc(sp)
0x80000218: 00 04 05 13 addi	a0, s0, 0x0
0x8000021c: 00 81 24 03 lw	s0, 0x8(sp)
0x80000220: 01 01 01 13 addi	sp, sp, 0x10
0x80000224: 00 00 80 67 jalr	zero, 0x0(ra)
0x80001390: 02 05 06 63 beq	a0, zero, 0x800013bc
0x80001394: 02 c1 20 83 lw	ra, 0x2c(sp)
0x80001398: 03 01 01 13 addi	sp, sp, 0x30
0x8000139c: 00 00 80 67 jalr	zero, 0x0(ra)
0x800014b8: 08 41 23 03 lw	t1, 0x84(sp)
0x800014bc: 08 81 23 83 lw	t2, 0x88(sp)
0x800014c0: 30 03 10 73 csrrw	zero, mstatus, t1
0x800014c4: 34 13 90 73 csrrw	zero, mepc, t2
0x800014c8: 00 41 20 83 lw	ra, 0x4(sp)
0x800014cc: 00 c1 21 83 lw	gp, 0xc(sp)
0x800014d0: 01 01 22 03 lw	tp, 0x10(sp)
0x800014d4: 01 41 22 83 lw	t0, 0x14(sp)
0x800014d8: 01 81 23 03 lw	t1, 0x18(sp)
0x800014dc: 01 c1 23 83 lw	t2, 0x1c(sp)
0x800014e0: 02 01 24 03 lw	s0, 0x20(sp)
0x800014e4: 02 41 24 83 lw	s1, 0x24(sp)
0x800014e8: 02 81 25 03 lw	a0, 0x28(sp)
0x800014ec: 02 c1 25 83 lw	a1, 0x2c(sp)
0x800014f0: 03 01 26 03 lw	a2, 0x30(sp)
0x800014f4: 03 41 26 83 lw	a3, 0x34(sp)
0x800014f8: 03 81 27 03 lw	a4, 0x38(sp)
0x800014fc: 03 c1 27 83 lw	a5, 0x3c(sp)
0x80001500: 04 01 28 03 lw	a6, 0x40(sp)
0x80001504: 04 41 28 83 lw	a7, 0x44(sp)
0x80001508: 04 81 29 03 lw	s2, 0x48(sp)
0x8000150c: 04 c1 29 83 lw	s3, 0x4c(sp)
0x80001510: 05 01 2a 03 lw	s4, 0x50(sp)
0x80001514: 05 41 2a 83 lw	s5, 0x54(sp)
0x80001518: 05 81 2b 03 lw	s6, 0x58(sp)
0x8000151c: 05 c1 2b 83 lw	s7, 0x5c(sp)
0x80001520: 06 01 2c 03 lw	s8, 0x60(sp)
0x80001524: 06 41 2c 83 lw	s9, 0x64(sp)
0x80001528: 06 81 2d 03 lw	s10, 0x68(sp)
0x8000152c: 06 c1 2d 83 lw	s11, 0x6c(sp)
0x80001530: 07 01 2e 03 lw	t3, 0x70(sp)
0x80001534: 07 41 2e 83 lw	t4, 0x74(sp)
0x80001538: 07 81 2f 03 lw	t5, 0x78(sp)
0x8000153c: 07 c1 2f 83 lw	t6, 0x7c(sp)
0x80001540: 08 c1 01 13 addi	sp, sp, 0x8c
0x80001544: 30 20 00 73 mret
0x80001400: 00 00 00 73 ecall
0x80001410: f7 41 01 13 addi	sp, sp, -0x8c
0x80001414: 00 11 22 23 sw	ra, 0x4(sp)
0x80001418: 00 31 26 23 sw	gp, 0xc(sp)
0x8000141c: 00 41 28 23 sw	tp, 0x10(sp)
0x80001420: 00 51 2a 23 sw	t0, 0x14(sp)
0x80001424: 00 61 2c 23 sw	t1, 0x18(sp)
0x80001428: 00 71 2e 23 sw	t2, 0x1c(sp)
0x8000142c: 02 81 20 23 sw	s0, 0x20(sp)
0x80001430: 02 91 22 23 sw	s1, 0x24(sp)
0x80001434: 02 a1 24 23 sw	a0, 0x28(sp)
0x80001438: 02 b1 26 23 sw	a1, 0x2c(sp)
0x8000143c: 02 c1 28 23 sw	a2, 0x30(sp)
0x80001440: 02 d1 2a 23 sw	a3, 0x34(sp)
0x80001444: 02 e1 2c 23 sw	a4, 0x38(sp)
0x80001448: 02 f1 2e 23 sw	a5, 0x3c(sp)
0x8000144c: 05 01 20 23 sw	a6, 0x40(sp)
0x80001450: 05 11 22 23 sw	a7, 0x44(sp)
0x80001454: 05 21 24 23 sw	s2, 0x48(sp)
0x80001458: 05 31 26 23 sw	s3, 0x4c(sp)
0x8000145c: 05 41 28 23 sw	s4, 0x50(sp)
0x80001460: 05 51 2a 23 sw	s5, 0x54(sp)
0x80001464: 05 61 2c 23 sw	s6, 0x58(sp)
0x80001468: 05 71 2e 23 sw	s7, 0x5c(sp)
0x8000146c: 07 81 20 23 sw	s8, 0x60(sp)
0x80001470: 07 91 22 23 sw	s9, 0x64(sp)
0x80001474: 07 a1 24 23 sw	s10, 0x68(sp)
0x80001478: 07 b1 26 23 sw	s11, 0x6c(sp)
0x8000147c: 07 c1 28 23 sw	t3, 0x70(sp)
0x80001480: 07 d1 2a 23 sw	t4, 0x74(sp)
0x80001484: 07 e1 2c 23 sw	t5, 0x78(sp)
0x80001488: 07 f1 2e 23 sw	t6, 0x7c(sp)
0x8000148c: 34 20 22 f3 csrrs	t0, mcause, zero
0x80001490: 30 00 23 73 csrrs	t1, mstatus, zero
0x80001494: 34 10 23 f3 csrrs	t2, mepc, zero
0x80001498: 08 51 20 23 sw	t0, 0x80(sp)
0x8000149c: 08 61 22 23 sw	t1, 0x84(sp)
0x800014a0: 08 71 24 23 sw	t2, 0x88(sp)
0x800014a4: 00 02 05 37 lui	a0, 0x20
0x800014a8: 00 a3 63 33 or	t1, t1, a0
0x800014ac: 30 03 10 73 csrrw	zero, mstatus, t1
0x800014b0: 00 01 05 13 addi	a0, sp, 0x0
0x800014b4: e8 5f f0 ef jal	ra, 0x80001338
0x80001338: 00 09 47 97 auipc	a5, 0x94
0x8000133c: c6 07 a7 83 lw	a5, -0x3a0(a5)
0x80001340: 00 05 05 93 addi	a1, a0, 0x0
0x80001344: 06 07 8a 63 beq	a5, zero, 0x800013b8
0x80001348: 08 05 26 03 lw	a2, 0x80(a0)
0x8000134c: fd 01 01 13 addi	sp, sp, -0x30
0x80001350: 02 11 26 23 sw	ra, 0x2c(sp)
0x80001354: 00 01 2a 23 sw	zero, 0x14(sp)
0x80001358: 00 01 2c 23 sw	zero, 0x18(sp)
0x8000135c: 00 01 2e 23 sw	zero, 0x1c(sp)
0x80001360: 00 b0 06 93 addi	a3, zero, 0xb
0x80001364: 00 40 07 13 addi	a4, zero, 0x4
0x80001368: 02 d6 0c 63 beq	a2, a3, 0x800013a0
0x800013a0: 04 45 26 03 lw	a2, 0x44(a0)
0x800013a4: ff f0 06 93 addi	a3, zero, -0x1
0x800013a8: 00 10 07 13 addi	a4, zero, 0x1
0x800013ac: fc d6 00 e3 beq	a2, a3, 0x8000136c
0x8000136c: 00 e1 20 23 sw	a4, 0x0(sp)
0x80001370: 01 41 27 03 lw	a4, 0x14(sp)
0x80001374: 00 01 05 13 addi	a0, sp, 0x0
0x80001378: 00 e1 22 23 sw	a4, 0x4(sp)
0x8000137c: 01 81 27 03 lw	a4, 0x18(sp)
0x80001380: 00 e1 24 23 sw	a4, 0x8(sp)
0x80001384: 01 c1 27 03 lw	a4, 0x1c(sp)
0x80001388: 00 e1 26 23 sw	a4, 0xc(sp)
0x8000138c: 00 07 80 e7 jalr	ra, 0x0(a5)
0x800001e0: 00 05 27 83 lw	a5, 0x0(a0)
0x800001e4: ff 01 01 13 addi	sp, sp, -0x10
0x800001e8: 00 81 24 23 sw	s0, 0x8(sp)
0x800001ec: 00 11 26 23 sw	ra, 0xc(sp)
0x800001f0: 00 50 07 13 addi	a4, zero, 0x5
0x800001f4: 00 05 84 13 addi	s0, a1, 0x0
0x800001f8: 04 e7 86 63 beq	a5, a4, 0x80000244
0x800001fc: 00 60 07 13 addi	a4, zero, 0x6
0x80000200: 02 e7 84 63 beq	a5, a4, 0x80000228
0x80000204: 00 10 07 13 addi	a4, zero, 0x1
0x80000208: 04 e7 9c 63 bne	a5, a4, 0x80000260
0x8000020c: 07 90 05 13 addi	a0, zero, 0x79
0x80000210: 59 90 00 ef jal	ra, 0x80000fa8
0x80000fa8: a0 00 07 b7 lui	a5, 0xa0000
0x80000fac: 3e a7 8c 23 sb	a0, 0x3f8(a5)
0x80000fb0: 00 00 80 67 jalr	zero, 0x0(ra)
0x80000214: 00 c1 20 83 lw	ra, 0xc(sp)
0x80000218: 00 04 05 13 addi	a0, s0, 0x0
0x8000021c: 00 81 24 03 lw	s0, 0x8(sp)
0x80000220: 01 01 01 13 addi	sp, sp, 0x10
0x80000224: 00 00 80 67 jalr	zero, 0x0(ra)
0x80001390: 02 05 06 63 beq	a0, zero, 0x800013bc
0x80001394: 02 c1 20 83 lw	ra, 0x2c(sp)
0x80001398: 03 01 01 13 addi	sp, sp, 0x30
0x8000139c: 00 00 80 67 jalr	zero, 0x0(ra)
0x800014b8: 08 41 23 03 lw	t1, 0x84(sp)
0x800014bc: 08 81 23 83 lw	t2, 0x88(sp)
0x800014c0: 30 03 10 73 csrrw	zero, mstatus, t1
0x800014c4: 34 13 90 73 csrrw	zero, mepc, t2
0x800014c8: 00 41 20 83 lw	ra, 0x4(sp)
0x800014cc: 00 c1 21 83 lw	gp, 0xc(sp)
0x800014d0: 01 01 22 03 lw	tp, 0x10(sp)
0x800014d4: 01 41 22 83 lw	t0, 0x14(sp)
0x800014d8: 01 81 23 03 lw	t1, 0x18(sp)
0x800014dc: 01 c1 23 83 lw	t2, 0x1c(sp)
0x800014e0: 02 01 24 03 lw	s0, 0x20(sp)
0x800014e4: 02 41 24 83 lw	s1, 0x24(sp)
0x800014e8: 02 81 25 03 lw	a0, 0x28(sp)
0x800014ec: 02 c1 25 83 lw	a1, 0x2c(sp)
0x800014f0: 03 01 26 03 lw	a2, 0x30(sp)
0x800014f4: 03 41 26 83 lw	a3, 0x34(sp)
0x800014f8: 03 81 27 03 lw	a4, 0x38(sp)
0x800014fc: 03 c1 27 83 lw	a5, 0x3c(sp)
0x80001500: 04 01 28 03 lw	a6, 0x40(sp)
0x80001504: 04 41 28 83 lw	a7, 0x44(sp)
0x80001508: 04 81 29 03 lw	s2, 0x48(sp)
0x8000150c: 04 c1 29 83 lw	s3, 0x4c(sp)
0x80001510: 05 01 2a 03 lw	s4, 0x50(sp)
0x80001514: 05 41 2a 83 lw	s5, 0x54(sp)
0x80001518: 05 81 2b 03 lw	s6, 0x58(sp)
0x8000151c: 05 c1 2b 83 lw	s7, 0x5c(sp)
0x80001520: 06 01 2c 03 lw	s8, 0x60(sp)
0x80001524: 06 41 2c 83 lw	s9, 0x64(sp)
0x80001528: 06 81 2d 03 lw	s10, 0x68(sp)
0x8000152c: 06 c1 2d 83 lw	s11, 0x6c(sp)
0x80001530: 07 01 2e 03 lw	t3, 0x70(sp)
0x80001534: 07 41 2e 83 lw	t4, 0x74(sp)
0x80001538: 07 81 2f 03 lw	t5, 0x78(sp)
0x8000153c: 07 c1 2f 83 lw	t6, 0x7c(sp)
0x80001540: 08 c1 01 13 addi	sp, sp, 0x8c
0x80001544: 30 20 00 73 mret
0x80001400: 00 00 00 73 ecall
0x80001410: f7 41 01 13 addi	sp, sp, -0x8c
0x80001414: 00 11 22 23 sw	ra, 0x4(sp)
0x80001418: 00 31 26 23 sw	gp, 0xc(sp)
0x8000141c: 00 41 28 23 sw	tp, 0x10(sp)
0x80001420: 00 51 2a 23 sw	t0, 0x14(sp)
0x80001424: 00 61 2c 23 sw	t1, 0x18(sp)
0x80001428: 00 71 2e 23 sw	t2, 0x1c(sp)
0x8000142c: 02 81 20 23 sw	s0, 0x20(sp)
0x80001430: 02 91 22 23 sw	s1, 0x24(sp)
0x80001434: 02 a1 24 23 sw	a0, 0x28(sp)
0x80001438: 02 b1 26 23 sw	a1, 0x2c(sp)
0x8000143c: 02 c1 28 23 sw	a2, 0x30(sp)
0x80001440: 02 d1 2a 23 sw	a3, 0x34(sp)
0x80001444: 02 e1 2c 23 sw	a4, 0x38(sp)
0x80001448: 02 f1 2e 23 sw	a5, 0x3c(sp)
0x8000144c: 05 01 20 23 sw	a6, 0x40(sp)
0x80001450: 05 11 22 23 sw	a7, 0x44(sp)
0x80001454: 05 21 24 23 sw	s2, 0x48(sp)
0x80001458: 05 31 26 23 sw	s3, 0x4c(sp)
0x8000145c: 05 41 28 23 sw	s4, 0x50(sp)
0x80001460: 05 51 2a 23 sw	s5, 0x54(sp)
0x80001464: 05 61 2c 23 sw	s6, 0x58(sp)
0x80001468: 05 71 2e 23 sw	s7, 0x5c(sp)
0x8000146c: 07 81 20 23 sw	s8, 0x60(sp)
0x80001470: 07 91 22 23 sw	s9, 0x64(sp)
0x80001474: 07 a1 24 23 sw	s10, 0x68(sp)
0x80001478: 07 b1 26 23 sw	s11, 0x6c(sp)
0x8000147c: 07 c1 28 23 sw	t3, 0x70(sp)
0x80001480: 07 d1 2a 23 sw	t4, 0x74(sp)
0x80001484: 07 e1 2c 23 sw	t5, 0x78(sp)
0x80001488: 07 f1 2e 23 sw	t6, 0x7c(sp)
0x8000148c: 34 20 22 f3 csrrs	t0, mcause, zero
0x80001490: 30 00 23 73 csrrs	t1, mstatus, zero
0x80001494: 34 10 23 f3 csrrs	t2, mepc, zero
0x80001498: 08 51 20 23 sw	t0, 0x80(sp)
0x8000149c: 08 61 22 23 sw	t1, 0x84(sp)
0x800014a0: 08 71 24 23 sw	t2, 0x88(sp)
0x800014a4: 00 02 05 37 lui	a0, 0x20
0x800014a8: 00 a3 63 33 or	t1, t1, a0
0x800014ac: 30 03 10 73 csrrw	zero, mstatus, t1
0x800014b0: 00 01 05 13 addi	a0, sp, 0x0
0x800014b4: e8 5f f0 ef jal	ra, 0x80001338
0x80001338: 00 09 47 97 auipc	a5, 0x94
0x8000133c: c6 07 a7 83 lw	a5, -0x3a0(a5)
0x80001340: 00 05 05 93 addi	a1, a0, 0x0
0x80001344: 06 07 8a 63 beq	a5, zero, 0x800013b8
0x80001348: 08 05 26 03 lw	a2, 0x80(a0)
0x8000134c: fd 01 01 13 addi	sp, sp, -0x30
0x80001350: 02 11 26 23 sw	ra, 0x2c(sp)
0x80001354: 00 01 2a 23 sw	zero, 0x14(sp)
0x80001358: 00 01 2c 23 sw	zero, 0x18(sp)
0x8000135c: 00 01 2e 23 sw	zero, 0x1c(sp)
0x80001360: 00 b0 06 93 addi	a3, zero, 0xb
0x80001364: 00 40 07 13 addi	a4, zero, 0x4
0x80001368: 02 d6 0c 63 beq	a2, a3, 0x800013a0
0x800013a0: 04 45 26 03 lw	a2, 0x44(a0)
0x800013a4: ff f0 06 93 addi	a3, zero, -0x1
0x800013a8: 00 10 07 13 addi	a4, zero, 0x1
0x800013ac: fc d6 00 e3 beq	a2, a3, 0x8000136c
0x8000136c: 00 e1 20 23 sw	a4, 0x0(sp)
0x80001370: 01 41 27 03 lw	a4, 0x14(sp)
0x80001374: 00 01 05 13 addi	a0, sp, 0x0
0x80001378: 00 e1 22 23 sw	a4, 0x4(sp)
0x8000137c: 01 81 27 03 lw	a4, 0x18(sp)
0x80001380: 00 e1 24 23 sw	a4, 0x8(sp)
0x80001384: 01 c1 27 03 lw	a4, 0x1c(sp)
0x80001388: 00 e1 26 23 sw	a4, 0xc(sp)
0x8000138c: 00 07 80 e7 jalr	ra, 0x0(a5)
0x800001e0: 00 05 27 83 lw	a5, 0x0(a0)
0x800001e4: ff 01 01 13 addi	sp, sp, -0x10
0x800001e8: 00 81 24 23 sw	s0, 0x8(sp)
0x800001ec: 00 11 26 23 sw	ra, 0xc(sp)
0x800001f0: 00 50 07 13 addi	a4, zero, 0x5
0x800001f4: 00 05 84 13 addi	s0, a1, 0x0
0x800001f8: 04 e7 86 63 beq	a5, a4, 0x80000244
0x800001fc: 00 60 07 13 addi	a4, zero, 0x6
0x80000200: 02 e7 84 63 beq	a5, a4, 0x80000228
0x80000204: 00 10 07 13 addi	a4, zero, 0x1
0x80000208: 04 e7 9c 63 bne	a5, a4, 0x80000260
0x8000020c: 07 90 05 13 addi	a0, zero, 0x79
0x80000210: 59 90 00 ef jal	ra, 0x80000fa8
0x80000fa8: a0 00 07 b7 lui	a5, 0xa0000
0x80000fac: 3e a7 8c 23 sb	a0, 0x3f8(a5)
0x80000fb0: 00 00 80 67 jalr	zero, 0x0(ra)
0x80000214: 00 c1 20 83 lw	ra, 0xc(sp)
0x80000218: 00 04 05 13 addi	a0, s0, 0x0
0x8000021c: 00 81 24 03 lw	s0, 0x8(sp)
0x80000220: 01 01 01 13 addi	sp, sp, 0x10
0x80000224: 00 00 80 67 jalr	zero, 0x0(ra)
0x80001390: 02 05 06 63 beq	a0, zero, 0x800013bc
0x80001394: 02 c1 20 83 lw	ra, 0x2c(sp)
0x80001398: 03 01 01 13 addi	sp, sp, 0x30
0x8000139c: 00 00 80 67 jalr	zero, 0x0(ra)
0x800014b8: 08 41 23 03 lw	t1, 0x84(sp)
0x800014bc: 08 81 23 83 lw	t2, 0x88(sp)
0x800014c0: 30 03 10 73 csrrw	zero, mstatus, t1
0x800014c4: 34 13 90 73 csrrw	zero, mepc, t2
0x800014c8: 00 41 20 83 lw	ra, 0x4(sp)
0x800014cc: 00 c1 21 83 lw	gp, 0xc(sp)
0x800014d0: 01 01 22 03 lw	tp, 0x10(sp)
0x800014d4: 01 41 22 83 lw	t0, 0x14(sp)
0x800014d8: 01 81 23 03 lw	t1, 0x18(sp)
0x800014dc: 01 c1 23 83 lw	t2, 0x1c(sp)
0x800014e0: 02 01 24 03 lw	s0, 0x20(sp)
0x800014e4: 02 41 24 83 lw	s1, 0x24(sp)
0x800014e8: 02 81 25 03 lw	a0, 0x28(sp)
0x800014ec: 02 c1 25 83 lw	a1, 0x2c(sp)
0x800014f0: 03 01 26 03 lw	a2, 0x30(sp)
0x800014f4: 03 41 26 83 lw	a3, 0x34(sp)
0x800014f8: 03 81 27 03 lw	a4, 0x38(sp)
0x800014fc: 03 c1 27 83 lw	a5, 0x3c(sp)
0x80001500: 04 01 28 03 lw	a6, 0x40(sp)
0x80001504: 04 41 28 83 lw	a7, 0x44(sp)
0x80001508: 04 81 29 03 lw	s2, 0x48(sp)
0x8000150c: 04 c1 29 83 lw	s3, 0x4c(sp)
0x80001510: 05 01 2a 03 lw	s4, 0x50(sp)
0x80001514: 05 41 2a 83 lw	s5, 0x54(sp)
0x80001518: 05 81 2b 03 lw	s6, 0x58(sp)
0x8000151c: 05 c1 2b 83 lw	s7, 0x5c(sp)
0x80001520: 06 01 2c 03 lw	s8, 0x60(sp)
0x80001524: 06 41 2c 83 lw	s9, 0x64(sp)
0x80001528: 06 81 2d 03 lw	s10, 0x68(sp)
0x8000152c: 06 c1 2d 83 lw	s11, 0x6c(sp)
0x80001530: 07 01 2e 03 lw	t3, 0x70(sp)
0x80001534: 07 41 2e 83 lw	t4, 0x74(sp)
0x80001538: 07 81 2f 03 lw	t5, 0x78(sp)
0x8000153c: 07 c1 2f 83 lw	t6, 0x7c(sp)
0x80001540: 08 c1 01 13 addi	sp, sp, 0x8c
0x80001544: 30 20 00 73 mret
0x80001400: 00 00 00 73 ecall
0x80001410: f7 41 01 13 addi	sp, sp, -0x8c
0x80001414: 00 11 22 23 sw	ra, 0x4(sp)
0x80001418: 00 31 26 23 sw	gp, 0xc(sp)
0x8000141c: 00 41 28 23 sw	tp, 0x10(sp)
0x80001420: 00 51 2a 23 sw	t0, 0x14(sp)
0x80001424: 00 61 2c 23 sw	t1, 0x18(sp)
0x80001428: 00 71 2e 23 sw	t2, 0x1c(sp)
0x8000142c: 02 81 20 23 sw	s0, 0x20(sp)
0x80001430: 02 91 22 23 sw	s1, 0x24(sp)
0x80001434: 02 a1 24 23 sw	a0, 0x28(sp)
0x80001438: 02 b1 26 23 sw	a1, 0x2c(sp)
0x8000143c: 02 c1 28 23 sw	a2, 0x30(sp)
0x80001440: 02 d1 2a 23 sw	a3, 0x34(sp)
0x80001444: 02 e1 2c 23 sw	a4, 0x38(sp)
0x80001448: 02 f1 2e 23 sw	a5, 0x3c(sp)
0x8000144c: 05 01 20 23 sw	a6, 0x40(sp)
0x80001450: 05 11 22 23 sw	a7, 0x44(sp)
0x80001454: 05 21 24 23 sw	s2, 0x48(sp)
0x80001458: 05 31 26 23 sw	s3, 0x4c(sp)
0x8000145c: 05 41 28 23 sw	s4, 0x50(sp)
0x80001460: 05 51 2a 23 sw	s5, 0x54(sp)
0x80001464: 05 61 2c 23 sw	s6, 0x58(sp)
0x80001468: 05 71 2e 23 sw	s7, 0x5c(sp)
0x8000146c: 07 81 20 23 sw	s8, 0x60(sp)
0x80001470: 07 91 22 23 sw	s9, 0x64(sp)
0x80001474: 07 a1 24 23 sw	s10, 0x68(sp)
0x80001478: 07 b1 26 23 sw	s11, 0x6c(sp)
0x8000147c: 07 c1 28 23 sw	t3, 0x70(sp)
0x80001480: 07 d1 2a 23 sw	t4, 0x74(sp)
0x80001484: 07 e1 2c 23 sw	t5, 0x78(sp)
0x80001488: 07 f1 2e 23 sw	t6, 0x7c(sp)
0x8000148c: 34 20 22 f3 csrrs	t0, mcause, zero
0x80001490: 30 00 23 73 csrrs	t1, mstatus, zero
0x80001494: 34 10 23 f3 csrrs	t2, mepc, zero
0x80001498: 08 51 20 23 sw	t0, 0x80(sp)
0x8000149c: 08 61 22 23 sw	t1, 0x84(sp)
0x800014a0: 08 71 24 23 sw	t2, 0x88(sp)
0x800014a4: 00 02 05 37 lui	a0, 0x20
0x800014a8: 00 a3 63 33 or	t1, t1, a0
0x800014ac: 30 03 10 73 csrrw	zero, mstatus, t1
0x800014b0: 00 01 05 13 addi	a0, sp, 0x0
0x800014b4: e8 5f f0 ef jal	ra, 0x80001338
0x80001338: 00 09 47 97 auipc	a5, 0x94
0x8000133c: c6 07 a7 83 lw	a5, -0x3a0(a5)
0x80001340: 00 05 05 93 addi	a1, a0, 0x0
0x80001344: 06 07 8a 63 beq	a5, zero, 0x800013b8
0x80001348: 08 05 26 03 lw	a2, 0x80(a0)
0x8000134c: fd 01 01 13 addi	sp, sp, -0x30
0x80001350: 02 11 26 23 sw	ra, 0x2c(sp)
0x80001354: 00 01 2a 23 sw	zero, 0x14(sp)
0x80001358: 00 01 2c 23 sw	zero, 0x18(sp)
0x8000135c: 00 01 2e 23 sw	zero, 0x1c(sp)
0x80001360: 00 b0 06 93 addi	a3, zero, 0xb
0x80001364: 00 40 07 13 addi	a4, zero, 0x4
0x80001368: 02 d6 0c 63 beq	a2, a3, 0x800013a0
0x800013a0: 04 45 26 03 lw	a2, 0x44(a0)
0x800013a4: ff f0 06 93 addi	a3, zero, -0x1
0x800013a8: 00 10 07 13 addi	a4, zero, 0x1
0x800013ac: fc d6 00 e3 beq	a2, a3, 0x8000136c
0x8000136c: 00 e1 20 23 sw	a4, 0x0(sp)
0x80001370: 01 41 27 03 lw	a4, 0x14(sp)
0x80001374: 00 01 05 13 addi	a0, sp, 0x0
0x80001378: 00 e1 22 23 sw	a4, 0x4(sp)
0x8000137c: 01 81 27 03 lw	a4, 0x18(sp)
0x80001380: 00 e1 24 23 sw	a4, 0x8(sp)
0x80001384: 01 c1 27 03 lw	a4, 0x1c(sp)
0x80001388: 00 e1 26 23 sw	a4, 0xc(sp)
0x8000138c: 00 07 80 e7 jalr	ra, 0x0(a5)
0x800001e0: 00 05 27 83 lw	a5, 0x0(a0)
0x800001e4: ff 01 01 13 addi	sp, sp, -0x10
0x800001e8: 00 81 24 23 sw	s0, 0x8(sp)
0x800001ec: 00 11 26 23 sw	ra, 0xc(sp)
0x800001f0: 00 50 07 13 addi	a4, zero, 0x5
0x800001f4: 00 05 84 13 addi	s0, a1, 0x0
0x800001f8: 04 e7 86 63 beq	a5, a4, 0x80000244
0x800001fc: 00 60 07 13 addi	a4, zero, 0x6
0x80000200: 02 e7 84 63 beq	a5, a4, 0x80000228
0x80000204: 00 10 07 13 addi	a4, zero, 0x1
0x80000208: 04 e7 9c 63 bne	a5, a4, 0x80000260
0x8000020c: 07 90 05 13 addi	a0, zero, 0x79
0x80000210: 59 90 00 ef jal	ra, 0x80000fa8
0x80000fa8: a0 00 07 b7 lui	a5, 0xa0000
0x80000fac: 3e a7 8c 23 sb	a0, 0x3f8(a5)
0x80000fb0: 00 00 80 67 jalr	zero, 0x0(ra)
0x80000214: 00 c1 20 83 lw	ra, 0xc(sp)
0x80000218: 00 04 05 13 addi	a0, s0, 0x0
0x8000021c: 00 81 24 03 lw	s0, 0x8(sp)
0x80000220: 01 01 01 13 addi	sp, sp, 0x10
0x80000224: 00 00 80 67 jalr	zero, 0x0(ra)
0x80001390: 02 05 06 63 beq	a0, zero, 0x800013bc
0x80001394: 02 c1 20 83 lw	ra, 0x2c(sp)
0x80001398: 03 01 01 13 addi	sp, sp, 0x30
0x8000139c: 00 00 80 67 jalr	zero, 0x0(ra)
0x800014b8: 08 41 23 03 lw	t1, 0x84(sp)
0x800014bc: 08 81 23 83 lw	t2, 0x88(sp)
0x800014c0: 30 03 10 73 csrrw	zero, mstatus, t1
0x800014c4: 34 13 90 73 csrrw	zero, mepc, t2
0x800014c8: 00 41 20 83 lw	ra, 0x4(sp)
0x800014cc: 00 c1 21 83 lw	gp, 0xc(sp)
0x800014d0: 01 01 22 03 lw	tp, 0x10(sp)
0x800014d4: 01 41 22 83 lw	t0, 0x14(sp)
0x800014d8: 01 81 23 03 lw	t1, 0x18(sp)
0x800014dc: 01 c1 23 83 lw	t2, 0x1c(sp)
0x800014e0: 02 01 24 03 lw	s0, 0x20(sp)
0x800014e4: 02 41 24 83 lw	s1, 0x24(sp)
0x800014e8: 02 81 25 03 lw	a0, 0x28(sp)
0x800014ec: 02 c1 25 83 lw	a1, 0x2c(sp)
0x800014f0: 03 01 26 03 lw	a2, 0x30(sp)
0x800014f4: 03 41 26 83 lw	a3, 0x34(sp)
0x800014f8: 03 81 27 03 lw	a4, 0x38(sp)
0x800014fc: 03 c1 27 83 lw	a5, 0x3c(sp)
0x80001500: 04 01 28 03 lw	a6, 0x40(sp)
0x80001504: 04 41 28 83 lw	a7, 0x44(sp)
0x80001508: 04 81 29 03 lw	s2, 0x48(sp)
0x8000150c: 04 c1 29 83 lw	s3, 0x4c(sp)
0x80001510: 05 01 2a 03 lw	s4, 0x50(sp)
0x80001514: 05 41 2a 83 lw	s5, 0x54(sp)
0x80001518: 05 81 2b 03 lw	s6, 0x58(sp)
0x8000151c: 05 c1 2b 83 lw	s7, 0x5c(sp)
0x80001520: 06 01 2c 03 lw	s8, 0x60(sp)
0x80001524: 06 41 2c 83 lw	s9, 0x64(sp)
0x80001528: 06 81 2d 03 lw	s10, 0x68(sp)
0x8000152c: 06 c1 2d 83 lw	s11, 0x6c(sp)
0x80001530: 07 01 2e 03 lw	t3, 0x70(sp)
0x80001534: 07 41 2e 83 lw	t4, 0x74(sp)
0x80001538: 07 81 2f 03 lw	t5, 0x78(sp)
0x8000153c: 07 c1 2f 83 lw	t6, 0x7c(sp)
0x80001540: 08 c1 01 13 addi	sp, sp, 0x8c
0x80001544: 30 20 00 73 mret
0x80001400: 00 00 00 73 ecall
0x80001410: f7 41 01 13 addi	sp, sp, -0x8c
0x80001414: 00 11 22 23 sw	ra, 0x4(sp)
0x80001418: 00 31 26 23 sw	gp, 0xc(sp)
0x8000141c: 00 41 28 23 sw	tp, 0x10(sp)
0x80001420: 00 51 2a 23 sw	t0, 0x14(sp)
0x80001424: 00 61 2c 23 sw	t1, 0x18(sp)
0x80001428: 00 71 2e 23 sw	t2, 0x1c(sp)
0x8000142c: 02 81 20 23 sw	s0, 0x20(sp)
0x80001430: 02 91 22 23 sw	s1, 0x24(sp)
0x80001434: 02 a1 24 23 sw	a0, 0x28(sp)
0x80001438: 02 b1 26 23 sw	a1, 0x2c(sp)
0x8000143c: 02 c1 28 23 sw	a2, 0x30(sp)
0x80001440: 02 d1 2a 23 sw	a3, 0x34(sp)
0x80001444: 02 e1 2c 23 sw	a4, 0x38(sp)
0x80001448: 02 f1 2e 23 sw	a5, 0x3c(sp)
0x8000144c: 05 01 20 23 sw	a6, 0x40(sp)
0x80001450: 05 11 22 23 sw	a7, 0x44(sp)
0x80001454: 05 21 24 23 sw	s2, 0x48(sp)
0x80001458: 05 31 26 23 sw	s3, 0x4c(sp)
0x8000145c: 05 41 28 23 sw	s4, 0x50(sp)
0x80001460: 05 51 2a 23 sw	s5, 0x54(sp)
0x80001464: 05 61 2c 23 sw	s6, 0x58(sp)
0x80001468: 05 71 2e 23 sw	s7, 0x5c(sp)
0x8000146c: 07 81 20 23 sw	s8, 0x60(sp)
0x80001470: 07 91 22 23 sw	s9, 0x64(sp)
0x80001474: 07 a1 24 23 sw	s10, 0x68(sp)
0x80001478: 07 b1 26 23 sw	s11, 0x6c(sp)
0x8000147c: 07 c1 28 23 sw	t3, 0x70(sp)
0x80001480: 07 d1 2a 23 sw	t4, 0x74(sp)
0x80001484: 07 e1 2c 23 sw	t5, 0x78(sp)
0x80001488: 07 f1 2e 23 sw	t6, 0x7c(sp)
0x8000148c: 34 20 22 f3 csrrs	t0, mcause, zero
0x80001490: 30 00 23 73 csrrs	t1, mstatus, zero
0x80001494: 34 10 23 f3 csrrs	t2, mepc, zero
0x80001498: 08 51 20 23 sw	t0, 0x80(sp)
0x8000149c: 08 61 22 23 sw	t1, 0x84(sp)
0x800014a0: 08 71 24 23 sw	t2, 0x88(sp)
0x800014a4: 00 02 05 37 lui	a0, 0x20
0x800014a8: 00 a3 63 33 or	t1, t1, a0
0x800014ac: 30 03 10 73 csrrw	zero, mstatus, t1
0x800014b0: 00 01 05 13 addi	a0, sp, 0x0
0x800014b4: e8 5f f0 ef jal	ra, 0x80001338
0x80001338: 00 09 47 97 auipc	a5, 0x94
0x8000133c: c6 07 a7 83 lw	a5, -0x3a0(a5)
0x80001340: 00 05 05 93 addi	a1, a0, 0x0
0x80001344: 06 07 8a 63 beq	a5, zero, 0x800013b8
0x80001348: 08 05 26 03 lw	a2, 0x80(a0)
0x8000134c: fd 01 01 13 addi	sp, sp, -0x30
0x80001350: 02 11 26 23 sw	ra, 0x2c(sp)
0x80001354: 00 01 2a 23 sw	zero, 0x14(sp)
0x80001358: 00 01 2c 23 sw	zero, 0x18(sp)
0x8000135c: 00 01 2e 23 sw	zero, 0x1c(sp)
0x80001360: 00 b0 06 93 addi	a3, zero, 0xb
0x80001364: 00 40 07 13 addi	a4, zero, 0x4
0x80001368: 02 d6 0c 63 beq	a2, a3, 0x800013a0
0x800013a0: 04 45 26 03 lw	a2, 0x44(a0)
0x800013a4: ff f0 06 93 addi	a3, zero, -0x1
0x800013a8: 00 10 07 13 addi	a4, zero, 0x1
0x800013ac: fc d6 00 e3 beq	a2, a3, 0x8000136c
0x8000136c: 00 e1 20 23 sw	a4, 0x0(sp)
0x80001370: 01 41 27 03 lw	a4, 0x14(sp)
0x80001374: 00 01 05 13 addi	a0, sp, 0x0
0x80001378: 00 e1 22 23 sw	a4, 0x4(sp)
0x8000137c: 01 81 27 03 lw	a4, 0x18(sp)
0x80001380: 00 e1 24 23 sw	a4, 0x8(sp)
0x80001384: 01 c1 27 03 lw	a4, 0x1c(sp)
0x80001388: 00 e1 26 23 sw	a4, 0xc(sp)
0x8000138c: 00 07 80 e7 jalr	ra, 0x0(a5)
0x800001e0: 00 05 27 83 lw	a5, 0x0(a0)
0x800001e4: ff 01 01 13 addi	sp, sp, -0x10
0x800001e8: 00 81 24 23 sw	s0, 0x8(sp)
0x800001ec: 00 11 26 23 sw	ra, 0xc(sp)
0x800001f0: 00 50 07 13 addi	a4, zero, 0x5
0x800001f4: 00 05 84 13 addi	s0, a1, 0x0
0x800001f8: 04 e7 86 63 beq	a5, a4, 0x80000244
0x800001fc: 00 60 07 13 addi	a4, zero, 0x6
0x80000200: 02 e7 84 63 beq	a5, a4, 0x80000228
0x80000204: 00 10 07 13 addi	a4, zero, 0x1
0x80000208: 04 e7 9c 63 bne	a5, a4, 0x80000260
0x8000020c: 07 90 05 13 addi	a0, zero, 0x79
0x80000210: 59 90 00 ef jal	ra, 0x80000fa8
0x80000fa8: a0 00 07 b7 lui	a5, 0xa0000
0x80000fac: 3e a7 8c 23 sb	a0, 0x3f8(a5)
0x80000fb0: 00 00 80 67 jalr	zero, 0x0(ra)
0x80000214: 00 c1 20 83 lw	ra, 0xc(sp)
0x80000218: 00 04 05 13 addi	a0, s0, 0x0
0x8000021c: 00 81 24 03 lw	s0, 0x8(sp)
0x80000220: 01 01 01 13 addi	sp, sp, 0x10
0x80000224: 00 00 80 67 jalr	zero, 0x0(ra)
0x80001390: 02 05 06 63 beq	a0, zero, 0x800013bc
0x80001394: 02 c1 20 83 lw	ra, 0x2c(sp)
0x80001398: 03 01 01 13 addi	sp, sp, 0x30
0x8000139c: 00 00 80 67 jalr	zero, 0x0(ra)
0x800014b8: 08 41 23 03 lw	t1, 0x84(sp)
0x800014bc: 08 81 23 83 lw	t2, 0x88(sp)
0x800014c0: 30 03 10 73 csrrw	zero, mstatus, t1
0x800014c4: 34 13 90 73 csrrw	zero, mepc, t2
0x800014c8: 00 41 20 83 lw	ra, 0x4(sp)
0x800014cc: 00 c1 21 83 lw	gp, 0xc(sp)
0x800014d0: 01 01 22 03 lw	tp, 0x10(sp)
0x800014d4: 01 41 22 83 lw	t0, 0x14(sp)
0x800014d8: 01 81 23 03 lw	t1, 0x18(sp)
0x800014dc: 01 c1 23 83 lw	t2, 0x1c(sp)
0x800014e0: 02 01 24 03 lw	s0, 0x20(sp)
0x800014e4: 02 41 24 83 lw	s1, 0x24(sp)
0x800014e8: 02 81 25 03 lw	a0, 0x28(sp)
0x800014ec: 02 c1 25 83 lw	a1, 0x2c(sp)
0x800014f0: 03 01 26 03 lw	a2, 0x30(sp)
0x800014f4: 03 41 26 83 lw	a3, 0x34(sp)
0x800014f8: 03 81 27 03 lw	a4, 0x38(sp)
0x800014fc: 03 c1 27 83 lw	a5, 0x3c(sp)
0x80001500: 04 01 28 03 lw	a6, 0x40(sp)
0x80001504: 04 41 28 83 lw	a7, 0x44(sp)
0x80001508: 04 81 29 03 lw	s2, 0x48(sp)
0x8000150c: 04 c1 29 83 lw	s3, 0x4c(sp)
0x80001510: 05 01 2a 03 lw	s4, 0x50(sp)
0x80001514: 05 41 2a 83 lw	s5, 0x54(sp)
0x80001518: 05 81 2b 03 lw	s6, 0x58(sp)
0x8000151c: 05 c1 2b 83 lw	s7, 0x5c(sp)
0x80001520: 06 01 2c 03 lw	s8, 0x60(sp)
0x80001524: 06 41 2c 83 lw	s9, 0x64(sp)
0x80001528: 06 81 2d 03 lw	s10, 0x68(sp)
0x8000152c: 06 c1 2d 83 lw	s11, 0x6c(sp)
0x80001530: 07 01 2e 03 lw	t3, 0x70(sp)
0x80001534: 07 41 2e 83 lw	t4, 0x74(sp)
0x80001538: 07 81 2f 03 lw	t5, 0x78(sp)
0x8000153c: 07 c1 2f 83 lw	t6, 0x7c(sp)
0x80001540: 08 c1 01 13 addi	sp, sp, 0x8c
0x80001544: 30 20 00 73 mret
0x80001400: 00 00 00 73 ecall
0x80001410: f7 41 01 13 addi	sp, sp, -0x8c
0x80001414: 00 11 22 23 sw	ra, 0x4(sp)
0x80001418: 00 31 26 23 sw	gp, 0xc(sp)
0x8000141c: 00 41 28 23 sw	tp, 0x10(sp)
0x80001420: 00 51 2a 23 sw	t0, 0x14(sp)
0x80001424: 00 61 2c 23 sw	t1, 0x18(sp)
0x80001428: 00 71 2e 23 sw	t2, 0x1c(sp)
0x8000142c: 02 81 20 23 sw	s0, 0x20(sp)
0x80001430: 02 91 22 23 sw	s1, 0x24(sp)
0x80001434: 02 a1 24 23 sw	a0, 0x28(sp)
0x80001438: 02 b1 26 23 sw	a1, 0x2c(sp)
0x8000143c: 02 c1 28 23 sw	a2, 0x30(sp)
0x80001440: 02 d1 2a 23 sw	a3, 0x34(sp)
0x80001444: 02 e1 2c 23 sw	a4, 0x38(sp)
0x80001448: 02 f1 2e 23 sw	a5, 0x3c(sp)
0x8000144c: 05 01 20 23 sw	a6, 0x40(sp)
0x80001450: 05 11 22 23 sw	a7, 0x44(sp)
0x80001454: 05 21 24 23 sw	s2, 0x48(sp)
0x80001458: 05 31 26 23 sw	s3, 0x4c(sp)
0x8000145c: 05 41 28 23 sw	s4, 0x50(sp)
0x80001460: 05 51 2a 23 sw	s5, 0x54(sp)
0x80001464: 05 61 2c 23 sw	s6, 0x58(sp)
0x80001468: 05 71 2e 23 sw	s7, 0x5c(sp)
0x8000146c: 07 81 20 23 sw	s8, 0x60(sp)
0x80001470: 07 91 22 23 sw	s9, 0x64(sp)
0x80001474: 07 a1 24 23 sw	s10, 0x68(sp)
0x80001478: 07 b1 26 23 sw	s11, 0x6c(sp)
0x8000147c: 07 c1 28 23 sw	t3, 0x70(sp)
0x80001480: 07 d1 2a 23 sw	t4, 0x74(sp)
0x80001484: 07 e1 2c 23 sw	t5, 0x78(sp)
0x80001488: 07 f1 2e 23 sw	t6, 0x7c(sp)
0x8000148c: 34 20 22 f3 csrrs	t0, mcause, zero
0x80001490: 30 00 23 73 csrrs	t1, mstatus, zero
0x80001494: 34 10 23 f3 csrrs	t2, mepc, zero
0x80001498: 08 51 20 23 sw	t0, 0x80(sp)
0x8000149c: 08 61 22 23 sw	t1, 0x84(sp)
0x800014a0: 08 71 24 23 sw	t2, 0x88(sp)
0x800014a4: 00 02 05 37 lui	a0, 0x20
0x800014a8: 00 a3 63 33 or	t1, t1, a0
0x800014ac: 30 03 10 73 csrrw	zero, mstatus, t1
0x800014b0: 00 01 05 13 addi	a0, sp, 0x0
0x800014b4: e8 5f f0 ef jal	ra, 0x80001338
0x80001338: 00 09 47 97 auipc	a5, 0x94
0x8000133c: c6 07 a7 83 lw	a5, -0x3a0(a5)
0x80001340: 00 05 05 93 addi	a1, a0, 0x0
0x80001344: 06 07 8a 63 beq	a5, zero, 0x800013b8
0x80001348: 08 05 26 03 lw	a2, 0x80(a0)
0x8000134c: fd 01 01 13 addi	sp, sp, -0x30
0x80001350: 02 11 26 23 sw	ra, 0x2c(sp)
0x80001354: 00 01 2a 23 sw	zero, 0x14(sp)
0x80001358: 00 01 2c 23 sw	zero, 0x18(sp)
0x8000135c: 00 01 2e 23 sw	zero, 0x1c(sp)
0x80001360: 00 b0 06 93 addi	a3, zero, 0xb
0x80001364: 00 40 07 13 addi	a4, zero, 0x4
0x80001368: 02 d6 0c 63 beq	a2, a3, 0x800013a0
0x800013a0: 04 45 26 03 lw	a2, 0x44(a0)
0x800013a4: ff f0 06 93 addi	a3, zero, -0x1
0x800013a8: 00 10 07 13 addi	a4, zero, 0x1
0x800013ac: fc d6 00 e3 beq	a2, a3, 0x8000136c
0x8000136c: 00 e1 20 23 sw	a4, 0x0(sp)
0x80001370: 01 41 27 03 lw	a4, 0x14(sp)
0x80001374: 00 01 05 13 addi	a0, sp, 0x0
0x80001378: 00 e1 22 23 sw	a4, 0x4(sp)
0x8000137c: 01 81 27 03 lw	a4, 0x18(sp)
0x80001380: 00 e1 24 23 sw	a4, 0x8(sp)
0x80001384: 01 c1 27 03 lw	a4, 0x1c(sp)
0x80001388: 00 e1 26 23 sw	a4, 0xc(sp)
0x8000138c: 00 07 80 e7 jalr	ra, 0x0(a5)
0x800001e0: 00 05 27 83 lw	a5, 0x0(a0)
0x800001e4: ff 01 01 13 addi	sp, sp, -0x10
0x800001e8: 00 81 24 23 sw	s0, 0x8(sp)
0x800001ec: 00 11 26 23 sw	ra, 0xc(sp)
0x800001f0: 00 50 07 13 addi	a4, zero, 0x5
0x800001f4: 00 05 84 13 addi	s0, a1, 0x0
0x800001f8: 04 e7 86 63 beq	a5, a4, 0x80000244
0x800001fc: 00 60 07 13 addi	a4, zero, 0x6
0x80000200: 02 e7 84 63 beq	a5, a4, 0x80000228
0x80000204: 00 10 07 13 addi	a4, zero, 0x1
0x80000208: 04 e7 9c 63 bne	a5, a4, 0x80000260
0x8000020c: 07 90 05 13 addi	a0, zero, 0x79
0x80000210: 59 90 00 ef jal	ra, 0x80000fa8
0x80000fa8: a0 00 07 b7 lui	a5, 0xa0000
0x80000fac: 3e a7 8c 23 sb	a0, 0x3f8(a5)
0x80000fb0: 00 00 80 67 jalr	zero, 0x0(ra)
0x80000214: 00 c1 20 83 lw	ra, 0xc(sp)
0x80000218: 00 04 05 13 addi	a0, s0, 0x0
0x8000021c: 00 81 24 03 lw	s0, 0x8(sp)
0x80000220: 01 01 01 13 addi	sp, sp, 0x10
0x80000224: 00 00 80 67 jalr	zero, 0x0(ra)
0x80001390: 02 05 06 63 beq	a0, zero, 0x800013bc
0x80001394: 02 c1 20 83 lw	ra, 0x2c(sp)
0x80001398: 03 01 01 13 addi	sp, sp, 0x30
0x8000139c: 00 00 80 67 jalr	zero, 0x0(ra)
0x800014b8: 08 41 23 03 lw	t1, 0x84(sp)
0x800014bc: 08 81 23 83 lw	t2, 0x88(sp)
0x800014c0: 30 03 10 73 csrrw	zero, mstatus, t1
0x800014c4: 34 13 90 73 csrrw	zero, mepc, t2
0x800014c8: 00 41 20 83 lw	ra, 0x4(sp)
0x800014cc: 00 c1 21 83 lw	gp, 0xc(sp)
0x800014d0: 01 01 22 03 lw	tp, 0x10(sp)
0x800014d4: 01 41 22 83 lw	t0, 0x14(sp)
0x800014d8: 01 81 23 03 lw	t1, 0x18(sp)
0x800014dc: 01 c1 23 83 lw	t2, 0x1c(sp)
0x800014e0: 02 01 24 03 lw	s0, 0x20(sp)
0x800014e4: 02 41 24 83 lw	s1, 0x24(sp)
0x800014e8: 02 81 25 03 lw	a0, 0x28(sp)
0x800014ec: 02 c1 25 83 lw	a1, 0x2c(sp)
0x800014f0: 03 01 26 03 lw	a2, 0x30(sp)
0x800014f4: 03 41 26 83 lw	a3, 0x34(sp)
0x800014f8: 03 81 27 03 lw	a4, 0x38(sp)
0x800014fc: 03 c1 27 83 lw	a5, 0x3c(sp)
0x80001500: 04 01 28 03 lw	a6, 0x40(sp)
0x80001504: 04 41 28 83 lw	a7, 0x44(sp)
0x80001508: 04 81 29 03 lw	s2, 0x48(sp)
0x8000150c: 04 c1 29 83 lw	s3, 0x4c(sp)
0x80001510: 05 01 2a 03 lw	s4, 0x50(sp)
0x80001514: 05 41 2a 83 lw	s5, 0x54(sp)
0x80001518: 05 81 2b 03 lw	s6, 0x58(sp)
0x8000151c: 05 c1 2b 83 lw	s7, 0x5c(sp)
0x80001520: 06 01 2c 03 lw	s8, 0x60(sp)
0x80001524: 06 41 2c 83 lw	s9, 0x64(sp)
0x80001528: 06 81 2d 03 lw	s10, 0x68(sp)
0x8000152c: 06 c1 2d 83 lw	s11, 0x6c(sp)
0x80001530: 07 01 2e 03 lw	t3, 0x70(sp)
0x80001534: 07 41 2e 83 lw	t4, 0x74(sp)
0x80001538: 07 81 2f 03 lw	t5, 0x78(sp)
0x8000153c: 07 c1 2f 83 lw	t6, 0x7c(sp)
0x80001540: 08 c1 01 13 addi	sp, sp, 0x8c
0x80001544: 30 20 00 73 mret
0x80001400: 00 00 00 73 ecall
0x80001410: f7 41 01 13 addi	sp, sp, -0x8c
0x80001414: 00 11 22 23 sw	ra, 0x4(sp)
0x80001418: 00 31 26 23 sw	gp, 0xc(sp)
0x8000141c: 00 41 28 23 sw	tp, 0x10(sp)
0x80001420: 00 51 2a 23 sw	t0, 0x14(sp)
0x80001424: 00 61 2c 23 sw	t1, 0x18(sp)
0x80001428: 00 71 2e 23 sw	t2, 0x1c(sp)
0x8000142c: 02 81 20 23 sw	s0, 0x20(sp)
0x80001430: 02 91 22 23 sw	s1, 0x24(sp)
0x80001434: 02 a1 24 23 sw	a0, 0x28(sp)
0x80001438: 02 b1 26 23 sw	a1, 0x2c(sp)
0x8000143c: 02 c1 28 23 sw	a2, 0x30(sp)
0x80001440: 02 d1 2a 23 sw	a3, 0x34(sp)
0x80001444: 02 e1 2c 23 sw	a4, 0x38(sp)
0x80001448: 02 f1 2e 23 sw	a5, 0x3c(sp)
0x8000144c: 05 01 20 23 sw	a6, 0x40(sp)
0x80001450: 05 11 22 23 sw	a7, 0x44(sp)
0x80001454: 05 21 24 23 sw	s2, 0x48(sp)
0x80001458: 05 31 26 23 sw	s3, 0x4c(sp)
0x8000145c: 05 41 28 23 sw	s4, 0x50(sp)
0x80001460: 05 51 2a 23 sw	s5, 0x54(sp)
0x80001464: 05 61 2c 23 sw	s6, 0x58(sp)
0x80001468: 05 71 2e 23 sw	s7, 0x5c(sp)
0x8000146c: 07 81 20 23 sw	s8, 0x60(sp)
0x80001470: 07 91 22 23 sw	s9, 0x64(sp)
0x80001474: 07 a1 24 23 sw	s10, 0x68(sp)
0x80001478: 07 b1 26 23 sw	s11, 0x6c(sp)
0x8000147c: 07 c1 28 23 sw	t3, 0x70(sp)
0x80001480: 07 d1 2a 23 sw	t4, 0x74(sp)
0x80001484: 07 e1 2c 23 sw	t5, 0x78(sp)
0x80001488: 07 f1 2e 23 sw	t6, 0x7c(sp)
0x8000148c: 34 20 22 f3 csrrs	t0, mcause, zero
0x80001490: 30 00 23 73 csrrs	t1, mstatus, zero
0x80001494: 34 10 23 f3 csrrs	t2, mepc, zero
0x80001498: 08 51 20 23 sw	t0, 0x80(sp)
0x8000149c: 08 61 22 23 sw	t1, 0x84(sp)
0x800014a0: 08 71 24 23 sw	t2, 0x88(sp)
0x800014a4: 00 02 05 37 lui	a0, 0x20
0x800014a8: 00 a3 63 33 or	t1, t1, a0
0x800014ac: 30 03 10 73 csrrw	zero, mstatus, t1
0x800014b0: 00 01 05 13 addi	a0, sp, 0x0
0x800014b4: e8 5f f0 ef jal	ra, 0x80001338
0x80001338: 00 09 47 97 auipc	a5, 0x94
0x8000133c: c6 07 a7 83 lw	a5, -0x3a0(a5)
0x80001340: 00 05 05 93 addi	a1, a0, 0x0
0x80001344: 06 07 8a 63 beq	a5, zero, 0x800013b8
0x80001348: 08 05 26 03 lw	a2, 0x80(a0)
0x8000134c: fd 01 01 13 addi	sp, sp, -0x30
0x80001350: 02 11 26 23 sw	ra, 0x2c(sp)
0x80001354: 00 01 2a 23 sw	zero, 0x14(sp)
0x80001358: 00 01 2c 23 sw	zero, 0x18(sp)
0x8000135c: 00 01 2e 23 sw	zero, 0x1c(sp)
0x80001360: 00 b0 06 93 addi	a3, zero, 0xb
0x80001364: 00 40 07 13 addi	a4, zero, 0x4
0x80001368: 02 d6 0c 63 beq	a2, a3, 0x800013a0
0x800013a0: 04 45 26 03 lw	a2, 0x44(a0)
0x800013a4: ff f0 06 93 addi	a3, zero, -0x1
0x800013a8: 00 10 07 13 addi	a4, zero, 0x1
0x800013ac: fc d6 00 e3 beq	a2, a3, 0x8000136c
0x8000136c: 00 e1 20 23 sw	a4, 0x0(sp)
0x80001370: 01 41 27 03 lw	a4, 0x14(sp)
0x80001374: 00 01 05 13 addi	a0, sp, 0x0
0x80001378: 00 e1 22 23 sw	a4, 0x4(sp)
0x8000137c: 01 81 27 03 lw	a4, 0x18(sp)
0x80001380: 00 e1 24 23 sw	a4, 0x8(sp)
0x80001384: 01 c1 27 03 lw	a4, 0x1c(sp)
0x80001388: 00 e1 26 23 sw	a4, 0xc(sp)
0x8000138c: 00 07 80 e7 jalr	ra, 0x0(a5)
0x800001e0: 00 05 27 83 lw	a5, 0x0(a0)
0x800001e4: ff 01 01 13 addi	sp, sp, -0x10
0x800001e8: 00 81 24 23 sw	s0, 0x8(sp)
0x800001ec: 00 11 26 23 sw	ra, 0xc(sp)
0x800001f0: 00 50 07 13 addi	a4, zero, 0x5
0x800001f4: 00 05 84 13 addi	s0, a1, 0x0
0x800001f8: 04 e7 86 63 beq	a5, a4, 0x80000244
0x800001fc: 00 60 07 13 addi	a4, zero, 0x6
0x80000200: 02 e7 84 63 beq	a5, a4, 0x80000228
0x80000204: 00 10 07 13 addi	a4, zero, 0x1
0x80000208: 04 e7 9c 63 bne	a5, a4, 0x80000260
0x8000020c: 07 90 05 13 addi	a0, zero, 0x79
0x80000210: 59 90 00 ef jal	ra, 0x80000fa8
0x80000fa8: a0 00 07 b7 lui	a5, 0xa0000
0x80000fac: 3e a7 8c 23 sb	a0, 0x3f8(a5)
0x80000fb0: 00 00 80 67 jalr	zero, 0x0(ra)
0x80000214: 00 c1 20 83 lw	ra, 0xc(sp)
0x80000218: 00 04 05 13 addi	a0, s0, 0x0
0x8000021c: 00 81 24 03 lw	s0, 0x8(sp)
0x80000220: 01 01 01 13 addi	sp, sp, 0x10
0x80000224: 00 00 80 67 jalr	zero, 0x0(ra)
0x80001390: 02 05 06 63 beq	a0, zero, 0x800013bc
0x80001394: 02 c1 20 83 lw	ra, 0x2c(sp)
0x80001398: 03 01 01 13 addi	sp, sp, 0x30
0x8000139c: 00 00 80 67 jalr	zero, 0x0(ra)
0x800014b8: 08 41 23 03 lw	t1, 0x84(sp)
0x800014bc: 08 81 23 83 lw	t2, 0x88(sp)
0x800014c0: 30 03 10 73 csrrw	zero, mstatus, t1
0x800014c4: 34 13 90 73 csrrw	zero, mepc, t2
0x800014c8: 00 41 20 83 lw	ra, 0x4(sp)
0x800014cc: 00 c1 21 83 lw	gp, 0xc(sp)
0x800014d0: 01 01 22 03 lw	tp, 0x10(sp)
0x800014d4: 01 41 22 83 lw	t0, 0x14(sp)
0x800014d8: 01 81 23 03 lw	t1, 0x18(sp)
0x800014dc: 01 c1 23 83 lw	t2, 0x1c(sp)
0x800014e0: 02 01 24 03 lw	s0, 0x20(sp)
0x800014e4: 02 41 24 83 lw	s1, 0x24(sp)
0x800014e8: 02 81 25 03 lw	a0, 0x28(sp)
0x800014ec: 02 c1 25 83 lw	a1, 0x2c(sp)
0x800014f0: 03 01 26 03 lw	a2, 0x30(sp)
0x800014f4: 03 41 26 83 lw	a3, 0x34(sp)
0x800014f8: 03 81 27 03 lw	a4, 0x38(sp)
0x800014fc: 03 c1 27 83 lw	a5, 0x3c(sp)
0x80001500: 04 01 28 03 lw	a6, 0x40(sp)
0x80001504: 04 41 28 83 lw	a7, 0x44(sp)
0x80001508: 04 81 29 03 lw	s2, 0x48(sp)
0x8000150c: 04 c1 29 83 lw	s3, 0x4c(sp)
0x80001510: 05 01 2a 03 lw	s4, 0x50(sp)
0x80001514: 05 41 2a 83 lw	s5, 0x54(sp)
0x80001518: 05 81 2b 03 lw	s6, 0x58(sp)
0x8000151c: 05 c1 2b 83 lw	s7, 0x5c(sp)
0x80001520: 06 01 2c 03 lw	s8, 0x60(sp)
0x80001524: 06 41 2c 83 lw	s9, 0x64(sp)
0x80001528: 06 81 2d 03 lw	s10, 0x68(sp)
0x8000152c: 06 c1 2d 83 lw	s11, 0x6c(sp)
0x80001530: 07 01 2e 03 lw	t3, 0x70(sp)
0x80001534: 07 41 2e 83 lw	t4, 0x74(sp)
0x80001538: 07 81 2f 03 lw	t5, 0x78(sp)
0x8000153c: 07 c1 2f 83 lw	t6, 0x7c(sp)
0x80001540: 08 c1 01 13 addi	sp, sp, 0x8c
0x80001544: 30 20 00 73 mret
0x80001400: 00 00 00 73 ecall
0x80001410: f7 41 01 13 addi	sp, sp, -0x8c
0x80001414: 00 11 22 23 sw	ra, 0x4(sp)
0x80001418: 00 31 26 23 sw	gp, 0xc(sp)
0x8000141c: 00 41 28 23 sw	tp, 0x10(sp)
0x80001420: 00 51 2a 23 sw	t0, 0x14(sp)
0x80001424: 00 61 2c 23 sw	t1, 0x18(sp)
0x80001428: 00 71 2e 23 sw	t2, 0x1c(sp)
0x8000142c: 02 81 20 23 sw	s0, 0x20(sp)
0x80001430: 02 91 22 23 sw	s1, 0x24(sp)
0x80001434: 02 a1 24 23 sw	a0, 0x28(sp)
0x80001438: 02 b1 26 23 sw	a1, 0x2c(sp)
0x8000143c: 02 c1 28 23 sw	a2, 0x30(sp)
0x80001440: 02 d1 2a 23 sw	a3, 0x34(sp)
0x80001444: 02 e1 2c 23 sw	a4, 0x38(sp)
0x80001448: 02 f1 2e 23 sw	a5, 0x3c(sp)
0x8000144c: 05 01 20 23 sw	a6, 0x40(sp)
0x80001450: 05 11 22 23 sw	a7, 0x44(sp)
0x80001454: 05 21 24 23 sw	s2, 0x48(sp)
0x80001458: 05 31 26 23 sw	s3, 0x4c(sp)
0x8000145c: 05 41 28 23 sw	s4, 0x50(sp)
0x80001460: 05 51 2a 23 sw	s5, 0x54(sp)
0x80001464: 05 61 2c 23 sw	s6, 0x58(sp)
0x80001468: 05 71 2e 23 sw	s7, 0x5c(sp)
0x8000146c: 07 81 20 23 sw	s8, 0x60(sp)
0x80001470: 07 91 22 23 sw	s9, 0x64(sp)
0x80001474: 07 a1 24 23 sw	s10, 0x68(sp)
0x80001478: 07 b1 26 23 sw	s11, 0x6c(sp)
0x8000147c: 07 c1 28 23 sw	t3, 0x70(sp)
0x80001480: 07 d1 2a 23 sw	t4, 0x74(sp)
0x80001484: 07 e1 2c 23 sw	t5, 0x78(sp)
0x80001488: 07 f1 2e 23 sw	t6, 0x7c(sp)
0x8000148c: 34 20 22 f3 csrrs	t0, mcause, zero
0x80001490: 30 00 23 73 csrrs	t1, mstatus, zero
0x80001494: 34 10 23 f3 csrrs	t2, mepc, zero
0x80001498: 08 51 20 23 sw	t0, 0x80(sp)
0x8000149c: 08 61 22 23 sw	t1, 0x84(sp)
0x800014a0: 08 71 24 23 sw	t2, 0x88(sp)
0x800014a4: 00 02 05 37 lui	a0, 0x20
0x800014a8: 00 a3 63 33 or	t1, t1, a0
0x800014ac: 30 03 10 73 csrrw	zero, mstatus, t1
0x800014b0: 00 01 05 13 addi	a0, sp, 0x0
0x800014b4: e8 5f f0 ef jal	ra, 0x80001338
0x80001338: 00 09 47 97 auipc	a5, 0x94
0x8000133c: c6 07 a7 83 lw	a5, -0x3a0(a5)
0x80001340: 00 05 05 93 addi	a1, a0, 0x0
0x80001344: 06 07 8a 63 beq	a5, zero, 0x800013b8
0x80001348: 08 05 26 03 lw	a2, 0x80(a0)
0x8000134c: fd 01 01 13 addi	sp, sp, -0x30
0x80001350: 02 11 26 23 sw	ra, 0x2c(sp)
0x80001354: 00 01 2a 23 sw	zero, 0x14(sp)
0x80001358: 00 01 2c 23 sw	zero, 0x18(sp)
0x8000135c: 00 01 2e 23 sw	zero, 0x1c(sp)
0x80001360: 00 b0 06 93 addi	a3, zero, 0xb
0x80001364: 00 40 07 13 addi	a4, zero, 0x4
0x80001368: 02 d6 0c 63 beq	a2, a3, 0x800013a0
0x800013a0: 04 45 26 03 lw	a2, 0x44(a0)
0x800013a4: ff f0 06 93 addi	a3, zero, -0x1
0x800013a8: 00 10 07 13 addi	a4, zero, 0x1
0x800013ac: fc d6 00 e3 beq	a2, a3, 0x8000136c
0x8000136c: 00 e1 20 23 sw	a4, 0x0(sp)
0x80001370: 01 41 27 03 lw	a4, 0x14(sp)
0x80001374: 00 01 05 13 addi	a0, sp, 0x0
0x80001378: 00 e1 22 23 sw	a4, 0x4(sp)
0x8000137c: 01 81 27 03 lw	a4, 0x18(sp)
0x80001380: 00 e1 24 23 sw	a4, 0x8(sp)
0x80001384: 01 c1 27 03 lw	a4, 0x1c(sp)
0x80001388: 00 e1 26 23 sw	a4, 0xc(sp)
0x8000138c: 00 07 80 e7 jalr	ra, 0x0(a5)
0x800001e0: 00 05 27 83 lw	a5, 0x0(a0)
0x800001e4: ff 01 01 13 addi	sp, sp, -0x10
0x800001e8: 00 81 24 23 sw	s0, 0x8(sp)
0x800001ec: 00 11 26 23 sw	ra, 0xc(sp)
0x800001f0: 00 50 07 13 addi	a4, zero, 0x5
0x800001f4: 00 05 84 13 addi	s0, a1, 0x0
0x800001f8: 04 e7 86 63 beq	a5, a4, 0x80000244
0x800001fc: 00 60 07 13 addi	a4, zero, 0x6
0x80000200: 02 e7 84 63 beq	a5, a4, 0x80000228
0x80000204: 00 10 07 13 addi	a4, zero, 0x1
0x80000208: 04 e7 9c 63 bne	a5, a4, 0x80000260
0x8000020c: 07 90 05 13 addi	a0, zero, 0x79
0x80000210: 59 90 00 ef jal	ra, 0x80000fa8
0x80000fa8: a0 00 07 b7 lui	a5, 0xa0000
0x80000fac: 3e a7 8c 23 sb	a0, 0x3f8(a5)
0x80000fb0: 00 00 80 67 jalr	zero, 0x0(ra)
0x80000214: 00 c1 20 83 lw	ra, 0xc(sp)
0x80000218: 00 04 05 13 addi	a0, s0, 0x0
0x8000021c: 00 81 24 03 lw	s0, 0x8(sp)
0x80000220: 01 01 01 13 addi	sp, sp, 0x10
0x80000224: 00 00 80 67 jalr	zero, 0x0(ra)
0x80001390: 02 05 06 63 beq	a0, zero, 0x800013bc
0x80001394: 02 c1 20 83 lw	ra, 0x2c(sp)
0x80001398: 03 01 01 13 addi	sp, sp, 0x30
0x8000139c: 00 00 80 67 jalr	zero, 0x0(ra)
0x800014b8: 08 41 23 03 lw	t1, 0x84(sp)
0x800014bc: 08 81 23 83 lw	t2, 0x88(sp)
0x800014c0: 30 03 10 73 csrrw	zero, mstatus, t1
0x800014c4: 34 13 90 73 csrrw	zero, mepc, t2
0x800014c8: 00 41 20 83 lw	ra, 0x4(sp)
0x800014cc: 00 c1 21 83 lw	gp, 0xc(sp)
0x800014d0: 01 01 22 03 lw	tp, 0x10(sp)
0x800014d4: 01 41 22 83 lw	t0, 0x14(sp)
0x800014d8: 01 81 23 03 lw	t1, 0x18(sp)
0x800014dc: 01 c1 23 83 lw	t2, 0x1c(sp)
0x800014e0: 02 01 24 03 lw	s0, 0x20(sp)
0x800014e4: 02 41 24 83 lw	s1, 0x24(sp)
0x800014e8: 02 81 25 03 lw	a0, 0x28(sp)
0x800014ec: 02 c1 25 83 lw	a1, 0x2c(sp)
0x800014f0: 03 01 26 03 lw	a2, 0x30(sp)
0x800014f4: 03 41 26 83 lw	a3, 0x34(sp)
0x800014f8: 03 81 27 03 lw	a4, 0x38(sp)
0x800014fc: 03 c1 27 83 lw	a5, 0x3c(sp)
0x80001500: 04 01 28 03 lw	a6, 0x40(sp)
0x80001504: 04 41 28 83 lw	a7, 0x44(sp)
0x80001508: 04 81 29 03 lw	s2, 0x48(sp)
0x8000150c: 04 c1 29 83 lw	s3, 0x4c(sp)
0x80001510: 05 01 2a 03 lw	s4, 0x50(sp)
0x80001514: 05 41 2a 83 lw	s5, 0x54(sp)
0x80001518: 05 81 2b 03 lw	s6, 0x58(sp)
0x8000151c: 05 c1 2b 83 lw	s7, 0x5c(sp)
0x80001520: 06 01 2c 03 lw	s8, 0x60(sp)
0x80001524: 06 41 2c 83 lw	s9, 0x64(sp)
0x80001528: 06 81 2d 03 lw	s10, 0x68(sp)
0x8000152c: 06 c1 2d 83 lw	s11, 0x6c(sp)
0x80001530: 07 01 2e 03 lw	t3, 0x70(sp)
0x80001534: 07 41 2e 83 lw	t4, 0x74(sp)
0x80001538: 07 81 2f 03 lw	t5, 0x78(sp)
0x8000153c: 07 c1 2f 83 lw	t6, 0x7c(sp)
0x80001540: 08 c1 01 13 addi	sp, sp, 0x8c
0x80001544: 30 20 00 73 mret
0x80001400: 00 00 00 73 ecall
0x80001410: f7 41 01 13 addi	sp, sp, -0x8c
0x80001414: 00 11 22 23 sw	ra, 0x4(sp)
0x80001418: 00 31 26 23 sw	gp, 0xc(sp)
0x8000141c: 00 41 28 23 sw	tp, 0x10(sp)
0x80001420: 00 51 2a 23 sw	t0, 0x14(sp)
0x80001424: 00 61 2c 23 sw	t1, 0x18(sp)
0x80001428: 00 71 2e 23 sw	t2, 0x1c(sp)
0x8000142c: 02 81 20 23 sw	s0, 0x20(sp)
0x80001430: 02 91 22 23 sw	s1, 0x24(sp)
0x80001434: 02 a1 24 23 sw	a0, 0x28(sp)
0x80001438: 02 b1 26 23 sw	a1, 0x2c(sp)
0x8000143c: 02 c1 28 23 sw	a2, 0x30(sp)
0x80001440: 02 d1 2a 23 sw	a3, 0x34(sp)
0x80001444: 02 e1 2c 23 sw	a4, 0x38(sp)
0x80001448: 02 f1 2e 23 sw	a5, 0x3c(sp)
0x8000144c: 05 01 20 23 sw	a6, 0x40(sp)
0x80001450: 05 11 22 23 sw	a7, 0x44(sp)
0x80001454: 05 21 24 23 sw	s2, 0x48(sp)
0x80001458: 05 31 26 23 sw	s3, 0x4c(sp)
0x8000145c: 05 41 28 23 sw	s4, 0x50(sp)
0x80001460: 05 51 2a 23 sw	s5, 0x54(sp)
0x80001464: 05 61 2c 23 sw	s6, 0x58(sp)
0x80001468: 05 71 2e 23 sw	s7, 0x5c(sp)
0x8000146c: 07 81 20 23 sw	s8, 0x60(sp)
0x80001470: 07 91 22 23 sw	s9, 0x64(sp)
0x80001474: 07 a1 24 23 sw	s10, 0x68(sp)
0x80001478: 07 b1 26 23 sw	s11, 0x6c(sp)
0x8000147c: 07 c1 28 23 sw	t3, 0x70(sp)
0x80001480: 07 d1 2a 23 sw	t4, 0x74(sp)
0x80001484: 07 e1 2c 23 sw	t5, 0x78(sp)
0x80001488: 07 f1 2e 23 sw	t6, 0x7c(sp)
0x8000148c: 34 20 22 f3 csrrs	t0, mcause, zero
0x80001490: 30 00 23 73 csrrs	t1, mstatus, zero
0x80001494: 34 10 23 f3 csrrs	t2, mepc, zero
0x80001498: 08 51 20 23 sw	t0, 0x80(sp)
0x8000149c: 08 61 22 23 sw	t1, 0x84(sp)
0x800014a0: 08 71 24 23 sw	t2, 0x88(sp)
0x800014a4: 00 02 05 37 lui	a0, 0x20
0x800014a8: 00 a3 63 33 or	t1, t1, a0
0x800014ac: 30 03 10 73 csrrw	zero, mstatus, t1
0x800014b0: 00 01 05 13 addi	a0, sp, 0x0
0x800014b4: e8 5f f0 ef jal	ra, 0x80001338
0x80001338: 00 09 47 97 auipc	a5, 0x94
0x8000133c: c6 07 a7 83 lw	a5, -0x3a0(a5)
0x80001340: 00 05 05 93 addi	a1, a0, 0x0
0x80001344: 06 07 8a 63 beq	a5, zero, 0x800013b8
0x80001348: 08 05 26 03 lw	a2, 0x80(a0)
0x8000134c: fd 01 01 13 addi	sp, sp, -0x30
0x80001350: 02 11 26 23 sw	ra, 0x2c(sp)
0x80001354: 00 01 2a 23 sw	zero, 0x14(sp)
0x80001358: 00 01 2c 23 sw	zero, 0x18(sp)
0x8000135c: 00 01 2e 23 sw	zero, 0x1c(sp)
0x80001360: 00 b0 06 93 addi	a3, zero, 0xb
0x80001364: 00 40 07 13 addi	a4, zero, 0x4
0x80001368: 02 d6 0c 63 beq	a2, a3, 0x800013a0
0x800013a0: 04 45 26 03 lw	a2, 0x44(a0)
0x800013a4: ff f0 06 93 addi	a3, zero, -0x1
0x800013a8: 00 10 07 13 addi	a4, zero, 0x1
0x800013ac: fc d6 00 e3 beq	a2, a3, 0x8000136c
0x8000136c: 00 e1 20 23 sw	a4, 0x0(sp)
0x80001370: 01 41 27 03 lw	a4, 0x14(sp)
0x80001374: 00 01 05 13 addi	a0, sp, 0x0
0x80001378: 00 e1 22 23 sw	a4, 0x4(sp)
0x8000137c: 01 81 27 03 lw	a4, 0x18(sp)
0x80001380: 00 e1 24 23 sw	a4, 0x8(sp)
0x80001384: 01 c1 27 03 lw	a4, 0x1c(sp)
0x80001388: 00 e1 26 23 sw	a4, 0xc(sp)
0x8000138c: 00 07 80 e7 jalr	ra, 0x0(a5)
0x800001e0: 00 05 27 83 lw	a5, 0x0(a0)
0x800001e4: ff 01 01 13 addi	sp, sp, -0x10
0x800001e8: 00 81 24 23 sw	s0, 0x8(sp)
0x800001ec: 00 11 26 23 sw	ra, 0xc(sp)
0x800001f0: 00 50 07 13 addi	a4, zero, 0x5
0x800001f4: 00 05 84 13 addi	s0, a1, 0x0
0x800001f8: 04 e7 86 63 beq	a5, a4, 0x80000244
0x800001fc: 00 60 07 13 addi	a4, zero, 0x6
0x80000200: 02 e7 84 63 beq	a5, a4, 0x80000228
0x80000204: 00 10 07 13 addi	a4, zero, 0x1
0x80000208: 04 e7 9c 63 bne	a5, a4, 0x80000260
0x8000020c: 07 90 05 13 addi	a0, zero, 0x79
0x80000210: 59 90 00 ef jal	ra, 0x80000fa8
0x80000fa8: a0 00 07 b7 lui	a5, 0xa0000
0x80000fac: 3e a7 8c 23 sb	a0, 0x3f8(a5)
0x80000fb0: 00 00 80 67 jalr	zero, 0x0(ra)
0x80000214: 00 c1 20 83 lw	ra, 0xc(sp)
0x80000218: 00 04 05 13 addi	a0, s0, 0x0
0x8000021c: 00 81 24 03 lw	s0, 0x8(sp)
0x80000220: 01 01 01 13 addi	sp, sp, 0x10
0x80000224: 00 00 80 67 jalr	zero, 0x0(ra)
0x80001390: 02 05 06 63 beq	a0, zero, 0x800013bc
0x80001394: 02 c1 20 83 lw	ra, 0x2c(sp)
0x80001398: 03 01 01 13 addi	sp, sp, 0x30
0x8000139c: 00 00 80 67 jalr	zero, 0x0(ra)
0x800014b8: 08 41 23 03 lw	t1, 0x84(sp)
0x800014bc: 08 81 23 83 lw	t2, 0x88(sp)
0x800014c0: 30 03 10 73 csrrw	zero, mstatus, t1
0x800014c4: 34 13 90 73 csrrw	zero, mepc, t2
0x800014c8: 00 41 20 83 lw	ra, 0x4(sp)
0x800014cc: 00 c1 21 83 lw	gp, 0xc(sp)
0x800014d0: 01 01 22 03 lw	tp, 0x10(sp)
0x800014d4: 01 41 22 83 lw	t0, 0x14(sp)
0x800014d8: 01 81 23 03 lw	t1, 0x18(sp)
0x800014dc: 01 c1 23 83 lw	t2, 0x1c(sp)
0x800014e0: 02 01 24 03 lw	s0, 0x20(sp)
0x800014e4: 02 41 24 83 lw	s1, 0x24(sp)
0x800014e8: 02 81 25 03 lw	a0, 0x28(sp)
0x800014ec: 02 c1 25 83 lw	a1, 0x2c(sp)
0x800014f0: 03 01 26 03 lw	a2, 0x30(sp)
0x800014f4: 03 41 26 83 lw	a3, 0x34(sp)
0x800014f8: 03 81 27 03 lw	a4, 0x38(sp)
0x800014fc: 03 c1 27 83 lw	a5, 0x3c(sp)
0x80001500: 04 01 28 03 lw	a6, 0x40(sp)
0x80001504: 04 41 28 83 lw	a7, 0x44(sp)
0x80001508: 04 81 29 03 lw	s2, 0x48(sp)
0x8000150c: 04 c1 29 83 lw	s3, 0x4c(sp)
0x80001510: 05 01 2a 03 lw	s4, 0x50(sp)
0x80001514: 05 41 2a 83 lw	s5, 0x54(sp)
0x80001518: 05 81 2b 03 lw	s6, 0x58(sp)
0x8000151c: 05 c1 2b 83 lw	s7, 0x5c(sp)
0x80001520: 06 01 2c 03 lw	s8, 0x60(sp)
0x80001524: 06 41 2c 83 lw	s9, 0x64(sp)
0x80001528: 06 81 2d 03 lw	s10, 0x68(sp)
0x8000152c: 06 c1 2d 83 lw	s11, 0x6c(sp)
0x80001530: 07 01 2e 03 lw	t3, 0x70(sp)
0x80001534: 07 41 2e 83 lw	t4, 0x74(sp)
0x80001538: 07 81 2f 03 lw	t5, 0x78(sp)
0x8000153c: 07 c1 2f 83 lw	t6, 0x7c(sp)
0x80001540: 08 c1 01 13 addi	sp, sp, 0x8c
0x80001544: 30 20 00 73 mret
0x80001400: 00 00 00 73 ecall
0x80001410: f7 41 01 13 addi	sp, sp, -0x8c
0x80001414: 00 11 22 23 sw	ra, 0x4(sp)
0x80001418: 00 31 26 23 sw	gp, 0xc(sp)
0x8000141c: 00 41 28 23 sw	tp, 0x10(sp)
0x80001420: 00 51 2a 23 sw	t0, 0x14(sp)
0x80001424: 00 61 2c 23 sw	t1, 0x18(sp)
0x80001428: 00 71 2e 23 sw	t2, 0x1c(sp)
0x8000142c: 02 81 20 23 sw	s0, 0x20(sp)
0x80001430: 02 91 22 23 sw	s1, 0x24(sp)
0x80001434: 02 a1 24 23 sw	a0, 0x28(sp)
0x80001438: 02 b1 26 23 sw	a1, 0x2c(sp)
0x8000143c: 02 c1 28 23 sw	a2, 0x30(sp)
0x80001440: 02 d1 2a 23 sw	a3, 0x34(sp)
0x80001444: 02 e1 2c 23 sw	a4, 0x38(sp)
0x80001448: 02 f1 2e 23 sw	a5, 0x3c(sp)
0x8000144c: 05 01 20 23 sw	a6, 0x40(sp)
0x80001450: 05 11 22 23 sw	a7, 0x44(sp)
0x80001454: 05 21 24 23 sw	s2, 0x48(sp)
0x80001458: 05 31 26 23 sw	s3, 0x4c(sp)
0x8000145c: 05 41 28 23 sw	s4, 0x50(sp)
0x80001460: 05 51 2a 23 sw	s5, 0x54(sp)
0x80001464: 05 61 2c 23 sw	s6, 0x58(sp)
0x80001468: 05 71 2e 23 sw	s7, 0x5c(sp)
0x8000146c: 07 81 20 23 sw	s8, 0x60(sp)
0x80001470: 07 91 22 23 sw	s9, 0x64(sp)
0x80001474: 07 a1 24 23 sw	s10, 0x68(sp)
0x80001478: 07 b1 26 23 sw	s11, 0x6c(sp)
0x8000147c: 07 c1 28 23 sw	t3, 0x70(sp)
0x80001480: 07 d1 2a 23 sw	t4, 0x74(sp)
0x80001484: 07 e1 2c 23 sw	t5, 0x78(sp)
0x80001488: 07 f1 2e 23 sw	t6, 0x7c(sp)
0x8000148c: 34 20 22 f3 csrrs	t0, mcause, zero
0x80001490: 30 00 23 73 csrrs	t1, mstatus, zero
0x80001494: 34 10 23 f3 csrrs	t2, mepc, zero
0x80001498: 08 51 20 23 sw	t0, 0x80(sp)
0x8000149c: 08 61 22 23 sw	t1, 0x84(sp)
0x800014a0: 08 71 24 23 sw	t2, 0x88(sp)
0x800014a4: 00 02 05 37 lui	a0, 0x20
0x800014a8: 00 a3 63 33 or	t1, t1, a0
0x800014ac: 30 03 10 73 csrrw	zero, mstatus, t1
0x800014b0: 00 01 05 13 addi	a0, sp, 0x0
0x800014b4: e8 5f f0 ef jal	ra, 0x80001338
0x80001338: 00 09 47 97 auipc	a5, 0x94
0x8000133c: c6 07 a7 83 lw	a5, -0x3a0(a5)
0x80001340: 00 05 05 93 addi	a1, a0, 0x0
0x80001344: 06 07 8a 63 beq	a5, zero, 0x800013b8
0x80001348: 08 05 26 03 lw	a2, 0x80(a0)
0x8000134c: fd 01 01 13 addi	sp, sp, -0x30
0x80001350: 02 11 26 23 sw	ra, 0x2c(sp)
0x80001354: 00 01 2a 23 sw	zero, 0x14(sp)
0x80001358: 00 01 2c 23 sw	zero, 0x18(sp)
0x8000135c: 00 01 2e 23 sw	zero, 0x1c(sp)
0x80001360: 00 b0 06 93 addi	a3, zero, 0xb
0x80001364: 00 40 07 13 addi	a4, zero, 0x4
0x80001368: 02 d6 0c 63 beq	a2, a3, 0x800013a0
0x800013a0: 04 45 26 03 lw	a2, 0x44(a0)
0x800013a4: ff f0 06 93 addi	a3, zero, -0x1
0x800013a8: 00 10 07 13 addi	a4, zero, 0x1
0x800013ac: fc d6 00 e3 beq	a2, a3, 0x8000136c
0x8000136c: 00 e1 20 23 sw	a4, 0x0(sp)
0x80001370: 01 41 27 03 lw	a4, 0x14(sp)
0x80001374: 00 01 05 13 addi	a0, sp, 0x0
0x80001378: 00 e1 22 23 sw	a4, 0x4(sp)
0x8000137c: 01 81 27 03 lw	a4, 0x18(sp)
0x80001380: 00 e1 24 23 sw	a4, 0x8(sp)
0x80001384: 01 c1 27 03 lw	a4, 0x1c(sp)
0x80001388: 00 e1 26 23 sw	a4, 0xc(sp)
0x8000138c: 00 07 80 e7 jalr	ra, 0x0(a5)
0x800001e0: 00 05 27 83 lw	a5, 0x0(a0)
0x800001e4: ff 01 01 13 addi	sp, sp, -0x10
0x800001e8: 00 81 24 23 sw	s0, 0x8(sp)
0x800001ec: 00 11 26 23 sw	ra, 0xc(sp)
0x800001f0: 00 50 07 13 addi	a4, zero, 0x5
0x800001f4: 00 05 84 13 addi	s0, a1, 0x0
0x800001f8: 04 e7 86 63 beq	a5, a4, 0x80000244
0x800001fc: 00 60 07 13 addi	a4, zero, 0x6
0x80000200: 02 e7 84 63 beq	a5, a4, 0x80000228
0x80000204: 00 10 07 13 addi	a4, zero, 0x1
0x80000208: 04 e7 9c 63 bne	a5, a4, 0x80000260
0x8000020c: 07 90 05 13 addi	a0, zero, 0x79
0x80000210: 59 90 00 ef jal	ra, 0x80000fa8
0x80000fa8: a0 00 07 b7 lui	a5, 0xa0000
0x80000fac: 3e a7 8c 23 sb	a0, 0x3f8(a5)
0x80000fb0: 00 00 80 67 jalr	zero, 0x0(ra)
0x80000214: 00 c1 20 83 lw	ra, 0xc(sp)
0x80000218: 00 04 05 13 addi	a0, s0, 0x0
0x8000021c: 00 81 24 03 lw	s0, 0x8(sp)
0x80000220: 01 01 01 13 addi	sp, sp, 0x10
0x80000224: 00 00 80 67 jalr	zero, 0x0(ra)
0x80001390: 02 05 06 63 beq	a0, zero, 0x800013bc
0x80001394: 02 c1 20 83 lw	ra, 0x2c(sp)
0x80001398: 03 01 01 13 addi	sp, sp, 0x30
0x8000139c: 00 00 80 67 jalr	zero, 0x0(ra)
0x800014b8: 08 41 23 03 lw	t1, 0x84(sp)
0x800014bc: 08 81 23 83 lw	t2, 0x88(sp)
0x800014c0: 30 03 10 73 csrrw	zero, mstatus, t1
0x800014c4: 34 13 90 73 csrrw	zero, mepc, t2
0x800014c8: 00 41 20 83 lw	ra, 0x4(sp)
0x800014cc: 00 c1 21 83 lw	gp, 0xc(sp)
0x800014d0: 01 01 22 03 lw	tp, 0x10(sp)
0x800014d4: 01 41 22 83 lw	t0, 0x14(sp)
0x800014d8: 01 81 23 03 lw	t1, 0x18(sp)
0x800014dc: 01 c1 23 83 lw	t2, 0x1c(sp)
0x800014e0: 02 01 24 03 lw	s0, 0x20(sp)
0x800014e4: 02 41 24 83 lw	s1, 0x24(sp)
0x800014e8: 02 81 25 03 lw	a0, 0x28(sp)
0x800014ec: 02 c1 25 83 lw	a1, 0x2c(sp)
0x800014f0: 03 01 26 03 lw	a2, 0x30(sp)
0x800014f4: 03 41 26 83 lw	a3, 0x34(sp)
0x800014f8: 03 81 27 03 lw	a4, 0x38(sp)
0x800014fc: 03 c1 27 83 lw	a5, 0x3c(sp)
0x80001500: 04 01 28 03 lw	a6, 0x40(sp)
0x80001504: 04 41 28 83 lw	a7, 0x44(sp)
0x80001508: 04 81 29 03 lw	s2, 0x48(sp)
0x8000150c: 04 c1 29 83 lw	s3, 0x4c(sp)
0x80001510: 05 01 2a 03 lw	s4, 0x50(sp)
0x80001514: 05 41 2a 83 lw	s5, 0x54(sp)
0x80001518: 05 81 2b 03 lw	s6, 0x58(sp)
0x8000151c: 05 c1 2b 83 lw	s7, 0x5c(sp)
0x80001520: 06 01 2c 03 lw	s8, 0x60(sp)
0x80001524: 06 41 2c 83 lw	s9, 0x64(sp)
0x80001528: 06 81 2d 03 lw	s10, 0x68(sp)
0x8000152c: 06 c1 2d 83 lw	s11, 0x6c(sp)
0x80001530: 07 01 2e 03 lw	t3, 0x70(sp)
0x80001534: 07 41 2e 83 lw	t4, 0x74(sp)
0x80001538: 07 81 2f 03 lw	t5, 0x78(sp)
0x8000153c: 07 c1 2f 83 lw	t6, 0x7c(sp)
0x80001540: 08 c1 01 13 addi	sp, sp, 0x8c
0x80001544: 30 20 00 73 mret
0x80001400: 00 00 00 73 ecall
0x80001410: f7 41 01 13 addi	sp, sp, -0x8c
0x80001414: 00 11 22 23 sw	ra, 0x4(sp)
0x80001418: 00 31 26 23 sw	gp, 0xc(sp)
0x8000141c: 00 41 28 23 sw	tp, 0x10(sp)
0x80001420: 00 51 2a 23 sw	t0, 0x14(sp)
0x80001424: 00 61 2c 23 sw	t1, 0x18(sp)
0x80001428: 00 71 2e 23 sw	t2, 0x1c(sp)
0x8000142c: 02 81 20 23 sw	s0, 0x20(sp)
0x80001430: 02 91 22 23 sw	s1, 0x24(sp)
0x80001434: 02 a1 24 23 sw	a0, 0x28(sp)
0x80001438: 02 b1 26 23 sw	a1, 0x2c(sp)
0x8000143c: 02 c1 28 23 sw	a2, 0x30(sp)
0x80001440: 02 d1 2a 23 sw	a3, 0x34(sp)
0x80001444: 02 e1 2c 23 sw	a4, 0x38(sp)
0x80001448: 02 f1 2e 23 sw	a5, 0x3c(sp)
0x8000144c: 05 01 20 23 sw	a6, 0x40(sp)
0x80001450: 05 11 22 23 sw	a7, 0x44(sp)
0x80001454: 05 21 24 23 sw	s2, 0x48(sp)
0x80001458: 05 31 26 23 sw	s3, 0x4c(sp)
0x8000145c: 05 41 28 23 sw	s4, 0x50(sp)
0x80001460: 05 51 2a 23 sw	s5, 0x54(sp)
0x80001464: 05 61 2c 23 sw	s6, 0x58(sp)
0x80001468: 05 71 2e 23 sw	s7, 0x5c(sp)
0x8000146c: 07 81 20 23 sw	s8, 0x60(sp)
0x80001470: 07 91 22 23 sw	s9, 0x64(sp)
0x80001474: 07 a1 24 23 sw	s10, 0x68(sp)
0x80001478: 07 b1 26 23 sw	s11, 0x6c(sp)
0x8000147c: 07 c1 28 23 sw	t3, 0x70(sp)
0x80001480: 07 d1 2a 23 sw	t4, 0x74(sp)
0x80001484: 07 e1 2c 23 sw	t5, 0x78(sp)
0x80001488: 07 f1 2e 23 sw	t6, 0x7c(sp)
0x8000148c: 34 20 22 f3 csrrs	t0, mcause, zero
0x80001490: 30 00 23 73 csrrs	t1, mstatus, zero
0x80001494: 34 10 23 f3 csrrs	t2, mepc, zero
0x80001498: 08 51 20 23 sw	t0, 0x80(sp)
0x8000149c: 08 61 22 23 sw	t1, 0x84(sp)
0x800014a0: 08 71 24 23 sw	t2, 0x88(sp)
0x800014a4: 00 02 05 37 lui	a0, 0x20
0x800014a8: 00 a3 63 33 or	t1, t1, a0
0x800014ac: 30 03 10 73 csrrw	zero, mstatus, t1
0x800014b0: 00 01 05 13 addi	a0, sp, 0x0
0x800014b4: e8 5f f0 ef jal	ra, 0x80001338
0x80001338: 00 09 47 97 auipc	a5, 0x94
0x8000133c: c6 07 a7 83 lw	a5, -0x3a0(a5)
0x80001340: 00 05 05 93 addi	a1, a0, 0x0
0x80001344: 06 07 8a 63 beq	a5, zero, 0x800013b8
0x80001348: 08 05 26 03 lw	a2, 0x80(a0)
0x8000134c: fd 01 01 13 addi	sp, sp, -0x30
0x80001350: 02 11 26 23 sw	ra, 0x2c(sp)
0x80001354: 00 01 2a 23 sw	zero, 0x14(sp)
0x80001358: 00 01 2c 23 sw	zero, 0x18(sp)
0x8000135c: 00 01 2e 23 sw	zero, 0x1c(sp)
0x80001360: 00 b0 06 93 addi	a3, zero, 0xb
0x80001364: 00 40 07 13 addi	a4, zero, 0x4
0x80001368: 02 d6 0c 63 beq	a2, a3, 0x800013a0
0x800013a0: 04 45 26 03 lw	a2, 0x44(a0)
0x800013a4: ff f0 06 93 addi	a3, zero, -0x1
0x800013a8: 00 10 07 13 addi	a4, zero, 0x1
0x800013ac: fc d6 00 e3 beq	a2, a3, 0x8000136c
0x8000136c: 00 e1 20 23 sw	a4, 0x0(sp)
0x80001370: 01 41 27 03 lw	a4, 0x14(sp)
0x80001374: 00 01 05 13 addi	a0, sp, 0x0
0x80001378: 00 e1 22 23 sw	a4, 0x4(sp)
0x8000137c: 01 81 27 03 lw	a4, 0x18(sp)
0x80001380: 00 e1 24 23 sw	a4, 0x8(sp)
0x80001384: 01 c1 27 03 lw	a4, 0x1c(sp)
0x80001388: 00 e1 26 23 sw	a4, 0xc(sp)
0x8000138c: 00 07 80 e7 jalr	ra, 0x0(a5)
0x800001e0: 00 05 27 83 lw	a5, 0x0(a0)
0x800001e4: ff 01 01 13 addi	sp, sp, -0x10
0x800001e8: 00 81 24 23 sw	s0, 0x8(sp)
0x800001ec: 00 11 26 23 sw	ra, 0xc(sp)
0x800001f0: 00 50 07 13 addi	a4, zero, 0x5
0x800001f4: 00 05 84 13 addi	s0, a1, 0x0
0x800001f8: 04 e7 86 63 beq	a5, a4, 0x80000244
0x800001fc: 00 60 07 13 addi	a4, zero, 0x6
0x80000200: 02 e7 84 63 beq	a5, a4, 0x80000228
0x80000204: 00 10 07 13 addi	a4, zero, 0x1
0x80000208: 04 e7 9c 63 bne	a5, a4, 0x80000260
0x8000020c: 07 90 05 13 addi	a0, zero, 0x79
0x80000210: 59 90 00 ef jal	ra, 0x80000fa8
0x80000fa8: a0 00 07 b7 lui	a5, 0xa0000
0x80000fac: 3e a7 8c 23 sb	a0, 0x3f8(a5)
0x80000fb0: 00 00 80 67 jalr	zero, 0x0(ra)
0x80000214: 00 c1 20 83 lw	ra, 0xc(sp)
0x80000218: 00 04 05 13 addi	a0, s0, 0x0
0x8000021c: 00 81 24 03 lw	s0, 0x8(sp)
0x80000220: 01 01 01 13 addi	sp, sp, 0x10
0x80000224: 00 00 80 67 jalr	zero, 0x0(ra)
0x80001390: 02 05 06 63 beq	a0, zero, 0x800013bc
0x80001394: 02 c1 20 83 lw	ra, 0x2c(sp)
0x80001398: 03 01 01 13 addi	sp, sp, 0x30
0x8000139c: 00 00 80 67 jalr	zero, 0x0(ra)
0x800014b8: 08 41 23 03 lw	t1, 0x84(sp)
0x800014bc: 08 81 23 83 lw	t2, 0x88(sp)
0x800014c0: 30 03 10 73 csrrw	zero, mstatus, t1
0x800014c4: 34 13 90 73 csrrw	zero, mepc, t2
0x800014c8: 00 41 20 83 lw	ra, 0x4(sp)
0x800014cc: 00 c1 21 83 lw	gp, 0xc(sp)
0x800014d0: 01 01 22 03 lw	tp, 0x10(sp)
0x800014d4: 01 41 22 83 lw	t0, 0x14(sp)
0x800014d8: 01 81 23 03 lw	t1, 0x18(sp)
0x800014dc: 01 c1 23 83 lw	t2, 0x1c(sp)
0x800014e0: 02 01 24 03 lw	s0, 0x20(sp)
0x800014e4: 02 41 24 83 lw	s1, 0x24(sp)
0x800014e8: 02 81 25 03 lw	a0, 0x28(sp)
0x800014ec: 02 c1 25 83 lw	a1, 0x2c(sp)
0x800014f0: 03 01 26 03 lw	a2, 0x30(sp)
0x800014f4: 03 41 26 83 lw	a3, 0x34(sp)
0x800014f8: 03 81 27 03 lw	a4, 0x38(sp)
0x800014fc: 03 c1 27 83 lw	a5, 0x3c(sp)
0x80001500: 04 01 28 03 lw	a6, 0x40(sp)
0x80001504: 04 41 28 83 lw	a7, 0x44(sp)
0x80001508: 04 81 29 03 lw	s2, 0x48(sp)
0x8000150c: 04 c1 29 83 lw	s3, 0x4c(sp)
0x80001510: 05 01 2a 03 lw	s4, 0x50(sp)
0x80001514: 05 41 2a 83 lw	s5, 0x54(sp)
0x80001518: 05 81 2b 03 lw	s6, 0x58(sp)
0x8000151c: 05 c1 2b 83 lw	s7, 0x5c(sp)
0x80001520: 06 01 2c 03 lw	s8, 0x60(sp)
0x80001524: 06 41 2c 83 lw	s9, 0x64(sp)
0x80001528: 06 81 2d 03 lw	s10, 0x68(sp)
0x8000152c: 06 c1 2d 83 lw	s11, 0x6c(sp)
0x80001530: 07 01 2e 03 lw	t3, 0x70(sp)
0x80001534: 07 41 2e 83 lw	t4, 0x74(sp)
0x80001538: 07 81 2f 03 lw	t5, 0x78(sp)
0x8000153c: 07 c1 2f 83 lw	t6, 0x7c(sp)
0x80001540: 08 c1 01 13 addi	sp, sp, 0x8c
0x80001544: 30 20 00 73 mret
0x80001400: 00 00 00 73 ecall
0x80001410: f7 41 01 13 addi	sp, sp, -0x8c
0x80001414: 00 11 22 23 sw	ra, 0x4(sp)
0x80001418: 00 31 26 23 sw	gp, 0xc(sp)
0x8000141c: 00 41 28 23 sw	tp, 0x10(sp)
0x80001420: 00 51 2a 23 sw	t0, 0x14(sp)
0x80001424: 00 61 2c 23 sw	t1, 0x18(sp)
0x80001428: 00 71 2e 23 sw	t2, 0x1c(sp)
0x8000142c: 02 81 20 23 sw	s0, 0x20(sp)
0x80001430: 02 91 22 23 sw	s1, 0x24(sp)
0x80001434: 02 a1 24 23 sw	a0, 0x28(sp)
0x80001438: 02 b1 26 23 sw	a1, 0x2c(sp)
0x8000143c: 02 c1 28 23 sw	a2, 0x30(sp)
0x80001440: 02 d1 2a 23 sw	a3, 0x34(sp)
0x80001444: 02 e1 2c 23 sw	a4, 0x38(sp)
0x80001448: 02 f1 2e 23 sw	a5, 0x3c(sp)
0x8000144c: 05 01 20 23 sw	a6, 0x40(sp)
0x80001450: 05 11 22 23 sw	a7, 0x44(sp)
0x80001454: 05 21 24 23 sw	s2, 0x48(sp)
0x80001458: 05 31 26 23 sw	s3, 0x4c(sp)
0x8000145c: 05 41 28 23 sw	s4, 0x50(sp)
0x80001460: 05 51 2a 23 sw	s5, 0x54(sp)
0x80001464: 05 61 2c 23 sw	s6, 0x58(sp)
0x80001468: 05 71 2e 23 sw	s7, 0x5c(sp)
0x8000146c: 07 81 20 23 sw	s8, 0x60(sp)
0x80001470: 07 91 22 23 sw	s9, 0x64(sp)
0x80001474: 07 a1 24 23 sw	s10, 0x68(sp)
0x80001478: 07 b1 26 23 sw	s11, 0x6c(sp)
0x8000147c: 07 c1 28 23 sw	t3, 0x70(sp)
0x80001480: 07 d1 2a 23 sw	t4, 0x74(sp)
0x80001484: 07 e1 2c 23 sw	t5, 0x78(sp)
0x80001488: 07 f1 2e 23 sw	t6, 0x7c(sp)
0x8000148c: 34 20 22 f3 csrrs	t0, mcause, zero
0x80001490: 30 00 23 73 csrrs	t1, mstatus, zero
0x80001494: 34 10 23 f3 csrrs	t2, mepc, zero
0x80001498: 08 51 20 23 sw	t0, 0x80(sp)
0x8000149c: 08 61 22 23 sw	t1, 0x84(sp)
0x800014a0: 08 71 24 23 sw	t2, 0x88(sp)
0x800014a4: 00 02 05 37 lui	a0, 0x20
0x800014a8: 00 a3 63 33 or	t1, t1, a0
0x800014ac: 30 03 10 73 csrrw	zero, mstatus, t1
0x800014b0: 00 01 05 13 addi	a0, sp, 0x0
0x800014b4: e8 5f f0 ef jal	ra, 0x80001338
0x80001338: 00 09 47 97 auipc	a5, 0x94
0x8000133c: c6 07 a7 83 lw	a5, -0x3a0(a5)
0x80001340: 00 05 05 93 addi	a1, a0, 0x0
0x80001344: 06 07 8a 63 beq	a5, zero, 0x800013b8
0x80001348: 08 05 26 03 lw	a2, 0x80(a0)
0x8000134c: fd 01 01 13 addi	sp, sp, -0x30
0x80001350: 02 11 26 23 sw	ra, 0x2c(sp)
0x80001354: 00 01 2a 23 sw	zero, 0x14(sp)
0x80001358: 00 01 2c 23 sw	zero, 0x18(sp)
0x8000135c: 00 01 2e 23 sw	zero, 0x1c(sp)
0x80001360: 00 b0 06 93 addi	a3, zero, 0xb
0x80001364: 00 40 07 13 addi	a4, zero, 0x4
0x80001368: 02 d6 0c 63 beq	a2, a3, 0x800013a0
0x800013a0: 04 45 26 03 lw	a2, 0x44(a0)
0x800013a4: ff f0 06 93 addi	a3, zero, -0x1
0x800013a8: 00 10 07 13 addi	a4, zero, 0x1
0x800013ac: fc d6 00 e3 beq	a2, a3, 0x8000136c
0x8000136c: 00 e1 20 23 sw	a4, 0x0(sp)
0x80001370: 01 41 27 03 lw	a4, 0x14(sp)
0x80001374: 00 01 05 13 addi	a0, sp, 0x0
0x80001378: 00 e1 22 23 sw	a4, 0x4(sp)
0x8000137c: 01 81 27 03 lw	a4, 0x18(sp)
0x80001380: 00 e1 24 23 sw	a4, 0x8(sp)
0x80001384: 01 c1 27 03 lw	a4, 0x1c(sp)
0x80001388: 00 e1 26 23 sw	a4, 0xc(sp)
0x8000138c: 00 07 80 e7 jalr	ra, 0x0(a5)
0x800001e0: 00 05 27 83 lw	a5, 0x0(a0)
0x800001e4: ff 01 01 13 addi	sp, sp, -0x10
0x800001e8: 00 81 24 23 sw	s0, 0x8(sp)
0x800001ec: 00 11 26 23 sw	ra, 0xc(sp)
0x800001f0: 00 50 07 13 addi	a4, zero, 0x5
0x800001f4: 00 05 84 13 addi	s0, a1, 0x0
0x800001f8: 04 e7 86 63 beq	a5, a4, 0x80000244
0x800001fc: 00 60 07 13 addi	a4, zero, 0x6
0x80000200: 02 e7 84 63 beq	a5, a4, 0x80000228
0x80000204: 00 10 07 13 addi	a4, zero, 0x1
0x80000208: 04 e7 9c 63 bne	a5, a4, 0x80000260
0x8000020c: 07 90 05 13 addi	a0, zero, 0x79
0x80000210: 59 90 00 ef jal	ra, 0x80000fa8
0x80000fa8: a0 00 07 b7 lui	a5, 0xa0000
0x80000fac: 3e a7 8c 23 sb	a0, 0x3f8(a5)
0x80000fb0: 00 00 80 67 jalr	zero, 0x0(ra)
0x80000214: 00 c1 20 83 lw	ra, 0xc(sp)
0x80000218: 00 04 05 13 addi	a0, s0, 0x0
0x8000021c: 00 81 24 03 lw	s0, 0x8(sp)
0x80000220: 01 01 01 13 addi	sp, sp, 0x10
0x80000224: 00 00 80 67 jalr	zero, 0x0(ra)
0x80001390: 02 05 06 63 beq	a0, zero, 0x800013bc
0x80001394: 02 c1 20 83 lw	ra, 0x2c(sp)
0x80001398: 03 01 01 13 addi	sp, sp, 0x30
0x8000139c: 00 00 80 67 jalr	zero, 0x0(ra)
0x800014b8: 08 41 23 03 lw	t1, 0x84(sp)
0x800014bc: 08 81 23 83 lw	t2, 0x88(sp)
0x800014c0: 30 03 10 73 csrrw	zero, mstatus, t1
0x800014c4: 34 13 90 73 csrrw	zero, mepc, t2
0x800014c8: 00 41 20 83 lw	ra, 0x4(sp)
0x800014cc: 00 c1 21 83 lw	gp, 0xc(sp)
0x800014d0: 01 01 22 03 lw	tp, 0x10(sp)
0x800014d4: 01 41 22 83 lw	t0, 0x14(sp)
0x800014d8: 01 81 23 03 lw	t1, 0x18(sp)
0x800014dc: 01 c1 23 83 lw	t2, 0x1c(sp)
0x800014e0: 02 01 24 03 lw	s0, 0x20(sp)
0x800014e4: 02 41 24 83 lw	s1, 0x24(sp)
0x800014e8: 02 81 25 03 lw	a0, 0x28(sp)
0x800014ec: 02 c1 25 83 lw	a1, 0x2c(sp)
0x800014f0: 03 01 26 03 lw	a2, 0x30(sp)
0x800014f4: 03 41 26 83 lw	a3, 0x34(sp)
0x800014f8: 03 81 27 03 lw	a4, 0x38(sp)
0x800014fc: 03 c1 27 83 lw	a5, 0x3c(sp)
0x80001500: 04 01 28 03 lw	a6, 0x40(sp)
0x80001504: 04 41 28 83 lw	a7, 0x44(sp)
0x80001508: 04 81 29 03 lw	s2, 0x48(sp)
0x8000150c: 04 c1 29 83 lw	s3, 0x4c(sp)
0x80001510: 05 01 2a 03 lw	s4, 0x50(sp)
0x80001514: 05 41 2a 83 lw	s5, 0x54(sp)
0x80001518: 05 81 2b 03 lw	s6, 0x58(sp)
0x8000151c: 05 c1 2b 83 lw	s7, 0x5c(sp)
0x80001520: 06 01 2c 03 lw	s8, 0x60(sp)
0x80001524: 06 41 2c 83 lw	s9, 0x64(sp)
0x80001528: 06 81 2d 03 lw	s10, 0x68(sp)
0x8000152c: 06 c1 2d 83 lw	s11, 0x6c(sp)
0x80001530: 07 01 2e 03 lw	t3, 0x70(sp)
0x80001534: 07 41 2e 83 lw	t4, 0x74(sp)
0x80001538: 07 81 2f 03 lw	t5, 0x78(sp)
0x8000153c: 07 c1 2f 83 lw	t6, 0x7c(sp)
0x80001540: 08 c1 01 13 addi	sp, sp, 0x8c
0x80001544: 30 20 00 73 mret
0x80001400: 00 00 00 73 ecall
0x80001410: f7 41 01 13 addi	sp, sp, -0x8c
0x80001414: 00 11 22 23 sw	ra, 0x4(sp)
0x80001418: 00 31 26 23 sw	gp, 0xc(sp)
0x8000141c: 00 41 28 23 sw	tp, 0x10(sp)
0x80001420: 00 51 2a 23 sw	t0, 0x14(sp)
0x80001424: 00 61 2c 23 sw	t1, 0x18(sp)
0x80001428: 00 71 2e 23 sw	t2, 0x1c(sp)
0x8000142c: 02 81 20 23 sw	s0, 0x20(sp)
0x80001430: 02 91 22 23 sw	s1, 0x24(sp)
0x80001434: 02 a1 24 23 sw	a0, 0x28(sp)
0x80001438: 02 b1 26 23 sw	a1, 0x2c(sp)
0x8000143c: 02 c1 28 23 sw	a2, 0x30(sp)
0x80001440: 02 d1 2a 23 sw	a3, 0x34(sp)
0x80001444: 02 e1 2c 23 sw	a4, 0x38(sp)
0x80001448: 02 f1 2e 23 sw	a5, 0x3c(sp)
0x8000144c: 05 01 20 23 sw	a6, 0x40(sp)
0x80001450: 05 11 22 23 sw	a7, 0x44(sp)
0x80001454: 05 21 24 23 sw	s2, 0x48(sp)
0x80001458: 05 31 26 23 sw	s3, 0x4c(sp)
0x8000145c: 05 41 28 23 sw	s4, 0x50(sp)
0x80001460: 05 51 2a 23 sw	s5, 0x54(sp)
0x80001464: 05 61 2c 23 sw	s6, 0x58(sp)
0x80001468: 05 71 2e 23 sw	s7, 0x5c(sp)
0x8000146c: 07 81 20 23 sw	s8, 0x60(sp)
0x80001470: 07 91 22 23 sw	s9, 0x64(sp)
0x80001474: 07 a1 24 23 sw	s10, 0x68(sp)
0x80001478: 07 b1 26 23 sw	s11, 0x6c(sp)
0x8000147c: 07 c1 28 23 sw	t3, 0x70(sp)
0x80001480: 07 d1 2a 23 sw	t4, 0x74(sp)
0x80001484: 07 e1 2c 23 sw	t5, 0x78(sp)
0x80001488: 07 f1 2e 23 sw	t6, 0x7c(sp)
0x8000148c: 34 20 22 f3 csrrs	t0, mcause, zero
0x80001490: 30 00 23 73 csrrs	t1, mstatus, zero
0x80001494: 34 10 23 f3 csrrs	t2, mepc, zero
0x80001498: 08 51 20 23 sw	t0, 0x80(sp)
0x8000149c: 08 61 22 23 sw	t1, 0x84(sp)
0x800014a0: 08 71 24 23 sw	t2, 0x88(sp)
0x800014a4: 00 02 05 37 lui	a0, 0x20
0x800014a8: 00 a3 63 33 or	t1, t1, a0
0x800014ac: 30 03 10 73 csrrw	zero, mstatus, t1
0x800014b0: 00 01 05 13 addi	a0, sp, 0x0
0x800014b4: e8 5f f0 ef jal	ra, 0x80001338
0x80001338: 00 09 47 97 auipc	a5, 0x94
0x8000133c: c6 07 a7 83 lw	a5, -0x3a0(a5)
0x80001340: 00 05 05 93 addi	a1, a0, 0x0
0x80001344: 06 07 8a 63 beq	a5, zero, 0x800013b8
0x80001348: 08 05 26 03 lw	a2, 0x80(a0)
0x8000134c: fd 01 01 13 addi	sp, sp, -0x30
0x80001350: 02 11 26 23 sw	ra, 0x2c(sp)
0x80001354: 00 01 2a 23 sw	zero, 0x14(sp)
0x80001358: 00 01 2c 23 sw	zero, 0x18(sp)
0x8000135c: 00 01 2e 23 sw	zero, 0x1c(sp)
0x80001360: 00 b0 06 93 addi	a3, zero, 0xb
0x80001364: 00 40 07 13 addi	a4, zero, 0x4
0x80001368: 02 d6 0c 63 beq	a2, a3, 0x800013a0
0x800013a0: 04 45 26 03 lw	a2, 0x44(a0)
0x800013a4: ff f0 06 93 addi	a3, zero, -0x1
0x800013a8: 00 10 07 13 addi	a4, zero, 0x1
0x800013ac: fc d6 00 e3 beq	a2, a3, 0x8000136c
0x8000136c: 00 e1 20 23 sw	a4, 0x0(sp)
0x80001370: 01 41 27 03 lw	a4, 0x14(sp)
0x80001374: 00 01 05 13 addi	a0, sp, 0x0
0x80001378: 00 e1 22 23 sw	a4, 0x4(sp)
0x8000137c: 01 81 27 03 lw	a4, 0x18(sp)
0x80001380: 00 e1 24 23 sw	a4, 0x8(sp)
0x80001384: 01 c1 27 03 lw	a4, 0x1c(sp)
0x80001388: 00 e1 26 23 sw	a4, 0xc(sp)
0x8000138c: 00 07 80 e7 jalr	ra, 0x0(a5)
0x800001e0: 00 05 27 83 lw	a5, 0x0(a0)
0x800001e4: ff 01 01 13 addi	sp, sp, -0x10
0x800001e8: 00 81 24 23 sw	s0, 0x8(sp)
0x800001ec: 00 11 26 23 sw	ra, 0xc(sp)
0x800001f0: 00 50 07 13 addi	a4, zero, 0x5
0x800001f4: 00 05 84 13 addi	s0, a1, 0x0
0x800001f8: 04 e7 86 63 beq	a5, a4, 0x80000244
0x800001fc: 00 60 07 13 addi	a4, zero, 0x6
0x80000200: 02 e7 84 63 beq	a5, a4, 0x80000228
0x80000204: 00 10 07 13 addi	a4, zero, 0x1
0x80000208: 04 e7 9c 63 bne	a5, a4, 0x80000260
0x8000020c: 07 90 05 13 addi	a0, zero, 0x79
0x80000210: 59 90 00 ef jal	ra, 0x80000fa8
0x80000fa8: a0 00 07 b7 lui	a5, 0xa0000
0x80000fac: 3e a7 8c 23 sb	a0, 0x3f8(a5)
0x80000fb0: 00 00 80 67 jalr	zero, 0x0(ra)
0x80000214: 00 c1 20 83 lw	ra, 0xc(sp)
0x80000218: 00 04 05 13 addi	a0, s0, 0x0
0x8000021c: 00 81 24 03 lw	s0, 0x8(sp)
0x80000220: 01 01 01 13 addi	sp, sp, 0x10
0x80000224: 00 00 80 67 jalr	zero, 0x0(ra)
0x80001390: 02 05 06 63 beq	a0, zero, 0x800013bc
0x80001394: 02 c1 20 83 lw	ra, 0x2c(sp)
0x80001398: 03 01 01 13 addi	sp, sp, 0x30
0x8000139c: 00 00 80 67 jalr	zero, 0x0(ra)
0x800014b8: 08 41 23 03 lw	t1, 0x84(sp)
0x800014bc: 08 81 23 83 lw	t2, 0x88(sp)
0x800014c0: 30 03 10 73 csrrw	zero, mstatus, t1
0x800014c4: 34 13 90 73 csrrw	zero, mepc, t2
0x800014c8: 00 41 20 83 lw	ra, 0x4(sp)
0x800014cc: 00 c1 21 83 lw	gp, 0xc(sp)
0x800014d0: 01 01 22 03 lw	tp, 0x10(sp)
0x800014d4: 01 41 22 83 lw	t0, 0x14(sp)
0x800014d8: 01 81 23 03 lw	t1, 0x18(sp)
0x800014dc: 01 c1 23 83 lw	t2, 0x1c(sp)
0x800014e0: 02 01 24 03 lw	s0, 0x20(sp)
0x800014e4: 02 41 24 83 lw	s1, 0x24(sp)
0x800014e8: 02 81 25 03 lw	a0, 0x28(sp)
0x800014ec: 02 c1 25 83 lw	a1, 0x2c(sp)
0x800014f0: 03 01 26 03 lw	a2, 0x30(sp)
0x800014f4: 03 41 26 83 lw	a3, 0x34(sp)
0x800014f8: 03 81 27 03 lw	a4, 0x38(sp)
0x800014fc: 03 c1 27 83 lw	a5, 0x3c(sp)
0x80001500: 04 01 28 03 lw	a6, 0x40(sp)
0x80001504: 04 41 28 83 lw	a7, 0x44(sp)
0x80001508: 04 81 29 03 lw	s2, 0x48(sp)
0x8000150c: 04 c1 29 83 lw	s3, 0x4c(sp)
0x80001510: 05 01 2a 03 lw	s4, 0x50(sp)
0x80001514: 05 41 2a 83 lw	s5, 0x54(sp)
0x80001518: 05 81 2b 03 lw	s6, 0x58(sp)
0x8000151c: 05 c1 2b 83 lw	s7, 0x5c(sp)
0x80001520: 06 01 2c 03 lw	s8, 0x60(sp)
0x80001524: 06 41 2c 83 lw	s9, 0x64(sp)
0x80001528: 06 81 2d 03 lw	s10, 0x68(sp)
0x8000152c: 06 c1 2d 83 lw	s11, 0x6c(sp)
0x80001530: 07 01 2e 03 lw	t3, 0x70(sp)
0x80001534: 07 41 2e 83 lw	t4, 0x74(sp)
0x80001538: 07 81 2f 03 lw	t5, 0x78(sp)
0x8000153c: 07 c1 2f 83 lw	t6, 0x7c(sp)
0x80001540: 08 c1 01 13 addi	sp, sp, 0x8c
0x80001544: 30 20 00 73 mret
0x80001400: 00 00 00 73 ecall
0x80001410: f7 41 01 13 addi	sp, sp, -0x8c
0x80001414: 00 11 22 23 sw	ra, 0x4(sp)
0x80001418: 00 31 26 23 sw	gp, 0xc(sp)
0x8000141c: 00 41 28 23 sw	tp, 0x10(sp)
0x80001420: 00 51 2a 23 sw	t0, 0x14(sp)
0x80001424: 00 61 2c 23 sw	t1, 0x18(sp)
0x80001428: 00 71 2e 23 sw	t2, 0x1c(sp)
0x8000142c: 02 81 20 23 sw	s0, 0x20(sp)
0x80001430: 02 91 22 23 sw	s1, 0x24(sp)
0x80001434: 02 a1 24 23 sw	a0, 0x28(sp)
0x80001438: 02 b1 26 23 sw	a1, 0x2c(sp)
0x8000143c: 02 c1 28 23 sw	a2, 0x30(sp)
0x80001440: 02 d1 2a 23 sw	a3, 0x34(sp)
0x80001444: 02 e1 2c 23 sw	a4, 0x38(sp)
0x80001448: 02 f1 2e 23 sw	a5, 0x3c(sp)
0x8000144c: 05 01 20 23 sw	a6, 0x40(sp)
0x80001450: 05 11 22 23 sw	a7, 0x44(sp)
0x80001454: 05 21 24 23 sw	s2, 0x48(sp)
0x80001458: 05 31 26 23 sw	s3, 0x4c(sp)
0x8000145c: 05 41 28 23 sw	s4, 0x50(sp)
0x80001460: 05 51 2a 23 sw	s5, 0x54(sp)
0x80001464: 05 61 2c 23 sw	s6, 0x58(sp)
0x80001468: 05 71 2e 23 sw	s7, 0x5c(sp)
0x8000146c: 07 81 20 23 sw	s8, 0x60(sp)
0x80001470: 07 91 22 23 sw	s9, 0x64(sp)
0x80001474: 07 a1 24 23 sw	s10, 0x68(sp)
0x80001478: 07 b1 26 23 sw	s11, 0x6c(sp)
0x8000147c: 07 c1 28 23 sw	t3, 0x70(sp)
0x80001480: 07 d1 2a 23 sw	t4, 0x74(sp)
0x80001484: 07 e1 2c 23 sw	t5, 0x78(sp)
0x80001488: 07 f1 2e 23 sw	t6, 0x7c(sp)
0x8000148c: 34 20 22 f3 csrrs	t0, mcause, zero
0x80001490: 30 00 23 73 csrrs	t1, mstatus, zero
0x80001494: 34 10 23 f3 csrrs	t2, mepc, zero
0x80001498: 08 51 20 23 sw	t0, 0x80(sp)
0x8000149c: 08 61 22 23 sw	t1, 0x84(sp)
0x800014a0: 08 71 24 23 sw	t2, 0x88(sp)
0x800014a4: 00 02 05 37 lui	a0, 0x20
0x800014a8: 00 a3 63 33 or	t1, t1, a0
0x800014ac: 30 03 10 73 csrrw	zero, mstatus, t1
0x800014b0: 00 01 05 13 addi	a0, sp, 0x0
0x800014b4: e8 5f f0 ef jal	ra, 0x80001338
0x80001338: 00 09 47 97 auipc	a5, 0x94
0x8000133c: c6 07 a7 83 lw	a5, -0x3a0(a5)
0x80001340: 00 05 05 93 addi	a1, a0, 0x0
0x80001344: 06 07 8a 63 beq	a5, zero, 0x800013b8
0x80001348: 08 05 26 03 lw	a2, 0x80(a0)
0x8000134c: fd 01 01 13 addi	sp, sp, -0x30
0x80001350: 02 11 26 23 sw	ra, 0x2c(sp)
0x80001354: 00 01 2a 23 sw	zero, 0x14(sp)
0x80001358: 00 01 2c 23 sw	zero, 0x18(sp)
0x8000135c: 00 01 2e 23 sw	zero, 0x1c(sp)
0x80001360: 00 b0 06 93 addi	a3, zero, 0xb
0x80001364: 00 40 07 13 addi	a4, zero, 0x4
0x80001368: 02 d6 0c 63 beq	a2, a3, 0x800013a0
0x800013a0: 04 45 26 03 lw	a2, 0x44(a0)
0x800013a4: ff f0 06 93 addi	a3, zero, -0x1
0x800013a8: 00 10 07 13 addi	a4, zero, 0x1
0x800013ac: fc d6 00 e3 beq	a2, a3, 0x8000136c
0x8000136c: 00 e1 20 23 sw	a4, 0x0(sp)
0x80001370: 01 41 27 03 lw	a4, 0x14(sp)
0x80001374: 00 01 05 13 addi	a0, sp, 0x0
0x80001378: 00 e1 22 23 sw	a4, 0x4(sp)
0x8000137c: 01 81 27 03 lw	a4, 0x18(sp)
0x80001380: 00 e1 24 23 sw	a4, 0x8(sp)
0x80001384: 01 c1 27 03 lw	a4, 0x1c(sp)
0x80001388: 00 e1 26 23 sw	a4, 0xc(sp)
0x8000138c: 00 07 80 e7 jalr	ra, 0x0(a5)
0x800001e0: 00 05 27 83 lw	a5, 0x0(a0)
0x800001e4: ff 01 01 13 addi	sp, sp, -0x10
0x800001e8: 00 81 24 23 sw	s0, 0x8(sp)
0x800001ec: 00 11 26 23 sw	ra, 0xc(sp)
0x800001f0: 00 50 07 13 addi	a4, zero, 0x5
0x800001f4: 00 05 84 13 addi	s0, a1, 0x0
0x800001f8: 04 e7 86 63 beq	a5, a4, 0x80000244
0x800001fc: 00 60 07 13 addi	a4, zero, 0x6
0x80000200: 02 e7 84 63 beq	a5, a4, 0x80000228
0x80000204: 00 10 07 13 addi	a4, zero, 0x1
0x80000208: 04 e7 9c 63 bne	a5, a4, 0x80000260
0x8000020c: 07 90 05 13 addi	a0, zero, 0x79
0x80000210: 59 90 00 ef jal	ra, 0x80000fa8
0x80000fa8: a0 00 07 b7 lui	a5, 0xa0000
0x80000fac: 3e a7 8c 23 sb	a0, 0x3f8(a5)
0x80000fb0: 00 00 80 67 jalr	zero, 0x0(ra)
0x80000214: 00 c1 20 83 lw	ra, 0xc(sp)
0x80000218: 00 04 05 13 addi	a0, s0, 0x0
0x8000021c: 00 81 24 03 lw	s0, 0x8(sp)
0x80000220: 01 01 01 13 addi	sp, sp, 0x10
0x80000224: 00 00 80 67 jalr	zero, 0x0(ra)
0x80001390: 02 05 06 63 beq	a0, zero, 0x800013bc
0x80001394: 02 c1 20 83 lw	ra, 0x2c(sp)
0x80001398: 03 01 01 13 addi	sp, sp, 0x30
0x8000139c: 00 00 80 67 jalr	zero, 0x0(ra)
0x800014b8: 08 41 23 03 lw	t1, 0x84(sp)
0x800014bc: 08 81 23 83 lw	t2, 0x88(sp)
0x800014c0: 30 03 10 73 csrrw	zero, mstatus, t1
0x800014c4: 34 13 90 73 csrrw	zero, mepc, t2
0x800014c8: 00 41 20 83 lw	ra, 0x4(sp)
0x800014cc: 00 c1 21 83 lw	gp, 0xc(sp)
0x800014d0: 01 01 22 03 lw	tp, 0x10(sp)
0x800014d4: 01 41 22 83 lw	t0, 0x14(sp)
0x800014d8: 01 81 23 03 lw	t1, 0x18(sp)
0x800014dc: 01 c1 23 83 lw	t2, 0x1c(sp)
0x800014e0: 02 01 24 03 lw	s0, 0x20(sp)
0x800014e4: 02 41 24 83 lw	s1, 0x24(sp)
0x800014e8: 02 81 25 03 lw	a0, 0x28(sp)
0x800014ec: 02 c1 25 83 lw	a1, 0x2c(sp)
0x800014f0: 03 01 26 03 lw	a2, 0x30(sp)
0x800014f4: 03 41 26 83 lw	a3, 0x34(sp)
0x800014f8: 03 81 27 03 lw	a4, 0x38(sp)
0x800014fc: 03 c1 27 83 lw	a5, 0x3c(sp)
0x80001500: 04 01 28 03 lw	a6, 0x40(sp)
0x80001504: 04 41 28 83 lw	a7, 0x44(sp)
0x80001508: 04 81 29 03 lw	s2, 0x48(sp)
0x8000150c: 04 c1 29 83 lw	s3, 0x4c(sp)
0x80001510: 05 01 2a 03 lw	s4, 0x50(sp)
0x80001514: 05 41 2a 83 lw	s5, 0x54(sp)
0x80001518: 05 81 2b 03 lw	s6, 0x58(sp)
0x8000151c: 05 c1 2b 83 lw	s7, 0x5c(sp)
0x80001520: 06 01 2c 03 lw	s8, 0x60(sp)
0x80001524: 06 41 2c 83 lw	s9, 0x64(sp)
0x80001528: 06 81 2d 03 lw	s10, 0x68(sp)
0x8000152c: 06 c1 2d 83 lw	s11, 0x6c(sp)
0x80001530: 07 01 2e 03 lw	t3, 0x70(sp)
0x80001534: 07 41 2e 83 lw	t4, 0x74(sp)
0x80001538: 07 81 2f 03 lw	t5, 0x78(sp)
0x8000153c: 07 c1 2f 83 lw	t6, 0x7c(sp)
0x80001540: 08 c1 01 13 addi	sp, sp, 0x8c
0x80001544: 30 20 00 73 mret
0x80001400: 00 00 00 73 ecall
0x80001410: f7 41 01 13 addi	sp, sp, -0x8c
0x80001414: 00 11 22 23 sw	ra, 0x4(sp)
0x80001418: 00 31 26 23 sw	gp, 0xc(sp)
0x8000141c: 00 41 28 23 sw	tp, 0x10(sp)
0x80001420: 00 51 2a 23 sw	t0, 0x14(sp)
0x80001424: 00 61 2c 23 sw	t1, 0x18(sp)
0x80001428: 00 71 2e 23 sw	t2, 0x1c(sp)
0x8000142c: 02 81 20 23 sw	s0, 0x20(sp)
0x80001430: 02 91 22 23 sw	s1, 0x24(sp)
0x80001434: 02 a1 24 23 sw	a0, 0x28(sp)
0x80001438: 02 b1 26 23 sw	a1, 0x2c(sp)
0x8000143c: 02 c1 28 23 sw	a2, 0x30(sp)
0x80001440: 02 d1 2a 23 sw	a3, 0x34(sp)
0x80001444: 02 e1 2c 23 sw	a4, 0x38(sp)
0x80001448: 02 f1 2e 23 sw	a5, 0x3c(sp)
0x8000144c: 05 01 20 23 sw	a6, 0x40(sp)
0x80001450: 05 11 22 23 sw	a7, 0x44(sp)
0x80001454: 05 21 24 23 sw	s2, 0x48(sp)
0x80001458: 05 31 26 23 sw	s3, 0x4c(sp)
0x8000145c: 05 41 28 23 sw	s4, 0x50(sp)
0x80001460: 05 51 2a 23 sw	s5, 0x54(sp)
0x80001464: 05 61 2c 23 sw	s6, 0x58(sp)
0x80001468: 05 71 2e 23 sw	s7, 0x5c(sp)
0x8000146c: 07 81 20 23 sw	s8, 0x60(sp)
0x80001470: 07 91 22 23 sw	s9, 0x64(sp)
0x80001474: 07 a1 24 23 sw	s10, 0x68(sp)
0x80001478: 07 b1 26 23 sw	s11, 0x6c(sp)
0x8000147c: 07 c1 28 23 sw	t3, 0x70(sp)
0x80001480: 07 d1 2a 23 sw	t4, 0x74(sp)
0x80001484: 07 e1 2c 23 sw	t5, 0x78(sp)
0x80001488: 07 f1 2e 23 sw	t6, 0x7c(sp)
0x8000148c: 34 20 22 f3 csrrs	t0, mcause, zero
0x80001490: 30 00 23 73 csrrs	t1, mstatus, zero
0x80001494: 34 10 23 f3 csrrs	t2, mepc, zero
0x80001498: 08 51 20 23 sw	t0, 0x80(sp)
0x8000149c: 08 61 22 23 sw	t1, 0x84(sp)
0x800014a0: 08 71 24 23 sw	t2, 0x88(sp)
0x800014a4: 00 02 05 37 lui	a0, 0x20
0x800014a8: 00 a3 63 33 or	t1, t1, a0
0x800014ac: 30 03 10 73 csrrw	zero, mstatus, t1
0x800014b0: 00 01 05 13 addi	a0, sp, 0x0
0x800014b4: e8 5f f0 ef jal	ra, 0x80001338
0x80001338: 00 09 47 97 auipc	a5, 0x94
0x8000133c: c6 07 a7 83 lw	a5, -0x3a0(a5)
0x80001340: 00 05 05 93 addi	a1, a0, 0x0
0x80001344: 06 07 8a 63 beq	a5, zero, 0x800013b8
0x80001348: 08 05 26 03 lw	a2, 0x80(a0)
0x8000134c: fd 01 01 13 addi	sp, sp, -0x30
0x80001350: 02 11 26 23 sw	ra, 0x2c(sp)
0x80001354: 00 01 2a 23 sw	zero, 0x14(sp)
0x80001358: 00 01 2c 23 sw	zero, 0x18(sp)
0x8000135c: 00 01 2e 23 sw	zero, 0x1c(sp)
0x80001360: 00 b0 06 93 addi	a3, zero, 0xb
0x80001364: 00 40 07 13 addi	a4, zero, 0x4
0x80001368: 02 d6 0c 63 beq	a2, a3, 0x800013a0
0x800013a0: 04 45 26 03 lw	a2, 0x44(a0)
0x800013a4: ff f0 06 93 addi	a3, zero, -0x1
0x800013a8: 00 10 07 13 addi	a4, zero, 0x1
0x800013ac: fc d6 00 e3 beq	a2, a3, 0x8000136c
0x8000136c: 00 e1 20 23 sw	a4, 0x0(sp)
0x80001370: 01 41 27 03 lw	a4, 0x14(sp)
0x80001374: 00 01 05 13 addi	a0, sp, 0x0
0x80001378: 00 e1 22 23 sw	a4, 0x4(sp)
0x8000137c: 01 81 27 03 lw	a4, 0x18(sp)
0x80001380: 00 e1 24 23 sw	a4, 0x8(sp)
0x80001384: 01 c1 27 03 lw	a4, 0x1c(sp)
0x80001388: 00 e1 26 23 sw	a4, 0xc(sp)
0x8000138c: 00 07 80 e7 jalr	ra, 0x0(a5)
0x800001e0: 00 05 27 83 lw	a5, 0x0(a0)
0x800001e4: ff 01 01 13 addi	sp, sp, -0x10
0x800001e8: 00 81 24 23 sw	s0, 0x8(sp)
0x800001ec: 00 11 26 23 sw	ra, 0xc(sp)
0x800001f0: 00 50 07 13 addi	a4, zero, 0x5
0x800001f4: 00 05 84 13 addi	s0, a1, 0x0
0x800001f8: 04 e7 86 63 beq	a5, a4, 0x80000244
0x800001fc: 00 60 07 13 addi	a4, zero, 0x6
0x80000200: 02 e7 84 63 beq	a5, a4, 0x80000228
0x80000204: 00 10 07 13 addi	a4, zero, 0x1
0x80000208: 04 e7 9c 63 bne	a5, a4, 0x80000260
0x8000020c: 07 90 05 13 addi	a0, zero, 0x79
0x80000210: 59 90 00 ef jal	ra, 0x80000fa8
0x80000fa8: a0 00 07 b7 lui	a5, 0xa0000
0x80000fac: 3e a7 8c 23 sb	a0, 0x3f8(a5)
0x80000fb0: 00 00 80 67 jalr	zero, 0x0(ra)
0x80000214: 00 c1 20 83 lw	ra, 0xc(sp)
0x80000218: 00 04 05 13 addi	a0, s0, 0x0
0x8000021c: 00 81 24 03 lw	s0, 0x8(sp)
0x80000220: 01 01 01 13 addi	sp, sp, 0x10
0x80000224: 00 00 80 67 jalr	zero, 0x0(ra)
0x80001390: 02 05 06 63 beq	a0, zero, 0x800013bc
0x80001394: 02 c1 20 83 lw	ra, 0x2c(sp)
0x80001398: 03 01 01 13 addi	sp, sp, 0x30
0x8000139c: 00 00 80 67 jalr	zero, 0x0(ra)
0x800014b8: 08 41 23 03 lw	t1, 0x84(sp)
0x800014bc: 08 81 23 83 lw	t2, 0x88(sp)
0x800014c0: 30 03 10 73 csrrw	zero, mstatus, t1
0x800014c4: 34 13 90 73 csrrw	zero, mepc, t2
0x800014c8: 00 41 20 83 lw	ra, 0x4(sp)
0x800014cc: 00 c1 21 83 lw	gp, 0xc(sp)
0x800014d0: 01 01 22 03 lw	tp, 0x10(sp)
0x800014d4: 01 41 22 83 lw	t0, 0x14(sp)
0x800014d8: 01 81 23 03 lw	t1, 0x18(sp)
0x800014dc: 01 c1 23 83 lw	t2, 0x1c(sp)
0x800014e0: 02 01 24 03 lw	s0, 0x20(sp)
0x800014e4: 02 41 24 83 lw	s1, 0x24(sp)
0x800014e8: 02 81 25 03 lw	a0, 0x28(sp)
0x800014ec: 02 c1 25 83 lw	a1, 0x2c(sp)
0x800014f0: 03 01 26 03 lw	a2, 0x30(sp)
0x800014f4: 03 41 26 83 lw	a3, 0x34(sp)
0x800014f8: 03 81 27 03 lw	a4, 0x38(sp)
0x800014fc: 03 c1 27 83 lw	a5, 0x3c(sp)
0x80001500: 04 01 28 03 lw	a6, 0x40(sp)
0x80001504: 04 41 28 83 lw	a7, 0x44(sp)
0x80001508: 04 81 29 03 lw	s2, 0x48(sp)
0x8000150c: 04 c1 29 83 lw	s3, 0x4c(sp)
0x80001510: 05 01 2a 03 lw	s4, 0x50(sp)
0x80001514: 05 41 2a 83 lw	s5, 0x54(sp)
0x80001518: 05 81 2b 03 lw	s6, 0x58(sp)
0x8000151c: 05 c1 2b 83 lw	s7, 0x5c(sp)
0x80001520: 06 01 2c 03 lw	s8, 0x60(sp)
0x80001524: 06 41 2c 83 lw	s9, 0x64(sp)
0x80001528: 06 81 2d 03 lw	s10, 0x68(sp)
0x8000152c: 06 c1 2d 83 lw	s11, 0x6c(sp)
0x80001530: 07 01 2e 03 lw	t3, 0x70(sp)
0x80001534: 07 41 2e 83 lw	t4, 0x74(sp)
0x80001538: 07 81 2f 03 lw	t5, 0x78(sp)
0x8000153c: 07 c1 2f 83 lw	t6, 0x7c(sp)
0x80001540: 08 c1 01 13 addi	sp, sp, 0x8c
0x80001544: 30 20 00 73 mret
0x80001400: 00 00 00 73 ecall
0x80001410: f7 41 01 13 addi	sp, sp, -0x8c
0x80001414: 00 11 22 23 sw	ra, 0x4(sp)
0x80001418: 00 31 26 23 sw	gp, 0xc(sp)
0x8000141c: 00 41 28 23 sw	tp, 0x10(sp)
0x80001420: 00 51 2a 23 sw	t0, 0x14(sp)
0x80001424: 00 61 2c 23 sw	t1, 0x18(sp)
0x80001428: 00 71 2e 23 sw	t2, 0x1c(sp)
0x8000142c: 02 81 20 23 sw	s0, 0x20(sp)
0x80001430: 02 91 22 23 sw	s1, 0x24(sp)
0x80001434: 02 a1 24 23 sw	a0, 0x28(sp)
0x80001438: 02 b1 26 23 sw	a1, 0x2c(sp)
0x8000143c: 02 c1 28 23 sw	a2, 0x30(sp)
0x80001440: 02 d1 2a 23 sw	a3, 0x34(sp)
0x80001444: 02 e1 2c 23 sw	a4, 0x38(sp)
0x80001448: 02 f1 2e 23 sw	a5, 0x3c(sp)
0x8000144c: 05 01 20 23 sw	a6, 0x40(sp)
0x80001450: 05 11 22 23 sw	a7, 0x44(sp)
0x80001454: 05 21 24 23 sw	s2, 0x48(sp)
0x80001458: 05 31 26 23 sw	s3, 0x4c(sp)
0x8000145c: 05 41 28 23 sw	s4, 0x50(sp)
0x80001460: 05 51 2a 23 sw	s5, 0x54(sp)
0x80001464: 05 61 2c 23 sw	s6, 0x58(sp)
0x80001468: 05 71 2e 23 sw	s7, 0x5c(sp)
0x8000146c: 07 81 20 23 sw	s8, 0x60(sp)
0x80001470: 07 91 22 23 sw	s9, 0x64(sp)
0x80001474: 07 a1 24 23 sw	s10, 0x68(sp)
0x80001478: 07 b1 26 23 sw	s11, 0x6c(sp)
0x8000147c: 07 c1 28 23 sw	t3, 0x70(sp)
0x80001480: 07 d1 2a 23 sw	t4, 0x74(sp)
0x80001484: 07 e1 2c 23 sw	t5, 0x78(sp)
0x80001488: 07 f1 2e 23 sw	t6, 0x7c(sp)
0x8000148c: 34 20 22 f3 csrrs	t0, mcause, zero
0x80001490: 30 00 23 73 csrrs	t1, mstatus, zero
0x80001494: 34 10 23 f3 csrrs	t2, mepc, zero
0x80001498: 08 51 20 23 sw	t0, 0x80(sp)
0x8000149c: 08 61 22 23 sw	t1, 0x84(sp)
0x800014a0: 08 71 24 23 sw	t2, 0x88(sp)
0x800014a4: 00 02 05 37 lui	a0, 0x20
0x800014a8: 00 a3 63 33 or	t1, t1, a0
0x800014ac: 30 03 10 73 csrrw	zero, mstatus, t1
0x800014b0: 00 01 05 13 addi	a0, sp, 0x0
0x800014b4: e8 5f f0 ef jal	ra, 0x80001338
0x80001338: 00 09 47 97 auipc	a5, 0x94
0x8000133c: c6 07 a7 83 lw	a5, -0x3a0(a5)
0x80001340: 00 05 05 93 addi	a1, a0, 0x0
0x80001344: 06 07 8a 63 beq	a5, zero, 0x800013b8
0x80001348: 08 05 26 03 lw	a2, 0x80(a0)
0x8000134c: fd 01 01 13 addi	sp, sp, -0x30
0x80001350: 02 11 26 23 sw	ra, 0x2c(sp)
0x80001354: 00 01 2a 23 sw	zero, 0x14(sp)
0x80001358: 00 01 2c 23 sw	zero, 0x18(sp)
0x8000135c: 00 01 2e 23 sw	zero, 0x1c(sp)
0x80001360: 00 b0 06 93 addi	a3, zero, 0xb
0x80001364: 00 40 07 13 addi	a4, zero, 0x4
0x80001368: 02 d6 0c 63 beq	a2, a3, 0x800013a0
0x800013a0: 04 45 26 03 lw	a2, 0x44(a0)
0x800013a4: ff f0 06 93 addi	a3, zero, -0x1
0x800013a8: 00 10 07 13 addi	a4, zero, 0x1
0x800013ac: fc d6 00 e3 beq	a2, a3, 0x8000136c
0x8000136c: 00 e1 20 23 sw	a4, 0x0(sp)
0x80001370: 01 41 27 03 lw	a4, 0x14(sp)
0x80001374: 00 01 05 13 addi	a0, sp, 0x0
0x80001378: 00 e1 22 23 sw	a4, 0x4(sp)
0x8000137c: 01 81 27 03 lw	a4, 0x18(sp)
0x80001380: 00 e1 24 23 sw	a4, 0x8(sp)
0x80001384: 01 c1 27 03 lw	a4, 0x1c(sp)
0x80001388: 00 e1 26 23 sw	a4, 0xc(sp)
0x8000138c: 00 07 80 e7 jalr	ra, 0x0(a5)
0x800001e0: 00 05 27 83 lw	a5, 0x0(a0)
0x800001e4: ff 01 01 13 addi	sp, sp, -0x10
0x800001e8: 00 81 24 23 sw	s0, 0x8(sp)
0x800001ec: 00 11 26 23 sw	ra, 0xc(sp)
0x800001f0: 00 50 07 13 addi	a4, zero, 0x5
0x800001f4: 00 05 84 13 addi	s0, a1, 0x0
0x800001f8: 04 e7 86 63 beq	a5, a4, 0x80000244
0x800001fc: 00 60 07 13 addi	a4, zero, 0x6
0x80000200: 02 e7 84 63 beq	a5, a4, 0x80000228
0x80000204: 00 10 07 13 addi	a4, zero, 0x1
0x80000208: 04 e7 9c 63 bne	a5, a4, 0x80000260
0x8000020c: 07 90 05 13 addi	a0, zero, 0x79
0x80000210: 59 90 00 ef jal	ra, 0x80000fa8
0x80000fa8: a0 00 07 b7 lui	a5, 0xa0000
0x80000fac: 3e a7 8c 23 sb	a0, 0x3f8(a5)
0x80000fb0: 00 00 80 67 jalr	zero, 0x0(ra)
0x80000214: 00 c1 20 83 lw	ra, 0xc(sp)
0x80000218: 00 04 05 13 addi	a0, s0, 0x0
0x8000021c: 00 81 24 03 lw	s0, 0x8(sp)
0x80000220: 01 01 01 13 addi	sp, sp, 0x10
0x80000224: 00 00 80 67 jalr	zero, 0x0(ra)
0x80001390: 02 05 06 63 beq	a0, zero, 0x800013bc
0x80001394: 02 c1 20 83 lw	ra, 0x2c(sp)
0x80001398: 03 01 01 13 addi	sp, sp, 0x30
0x8000139c: 00 00 80 67 jalr	zero, 0x0(ra)
0x800014b8: 08 41 23 03 lw	t1, 0x84(sp)
0x800014bc: 08 81 23 83 lw	t2, 0x88(sp)
0x800014c0: 30 03 10 73 csrrw	zero, mstatus, t1
0x800014c4: 34 13 90 73 csrrw	zero, mepc, t2
0x800014c8: 00 41 20 83 lw	ra, 0x4(sp)
0x800014cc: 00 c1 21 83 lw	gp, 0xc(sp)
0x800014d0: 01 01 22 03 lw	tp, 0x10(sp)
0x800014d4: 01 41 22 83 lw	t0, 0x14(sp)
0x800014d8: 01 81 23 03 lw	t1, 0x18(sp)
0x800014dc: 01 c1 23 83 lw	t2, 0x1c(sp)
0x800014e0: 02 01 24 03 lw	s0, 0x20(sp)
0x800014e4: 02 41 24 83 lw	s1, 0x24(sp)
0x800014e8: 02 81 25 03 lw	a0, 0x28(sp)
0x800014ec: 02 c1 25 83 lw	a1, 0x2c(sp)
0x800014f0: 03 01 26 03 lw	a2, 0x30(sp)
0x800014f4: 03 41 26 83 lw	a3, 0x34(sp)
0x800014f8: 03 81 27 03 lw	a4, 0x38(sp)
0x800014fc: 03 c1 27 83 lw	a5, 0x3c(sp)
0x80001500: 04 01 28 03 lw	a6, 0x40(sp)
0x80001504: 04 41 28 83 lw	a7, 0x44(sp)
0x80001508: 04 81 29 03 lw	s2, 0x48(sp)
0x8000150c: 04 c1 29 83 lw	s3, 0x4c(sp)
0x80001510: 05 01 2a 03 lw	s4, 0x50(sp)
0x80001514: 05 41 2a 83 lw	s5, 0x54(sp)
0x80001518: 05 81 2b 03 lw	s6, 0x58(sp)
0x8000151c: 05 c1 2b 83 lw	s7, 0x5c(sp)
0x80001520: 06 01 2c 03 lw	s8, 0x60(sp)
0x80001524: 06 41 2c 83 lw	s9, 0x64(sp)
0x80001528: 06 81 2d 03 lw	s10, 0x68(sp)
0x8000152c: 06 c1 2d 83 lw	s11, 0x6c(sp)
0x80001530: 07 01 2e 03 lw	t3, 0x70(sp)
0x80001534: 07 41 2e 83 lw	t4, 0x74(sp)
0x80001538: 07 81 2f 03 lw	t5, 0x78(sp)
0x8000153c: 07 c1 2f 83 lw	t6, 0x7c(sp)
0x80001540: 08 c1 01 13 addi	sp, sp, 0x8c
0x80001544: 30 20 00 73 mret
0x80001400: 00 00 00 73 ecall
0x80001410: f7 41 01 13 addi	sp, sp, -0x8c
0x80001414: 00 11 22 23 sw	ra, 0x4(sp)
0x80001418: 00 31 26 23 sw	gp, 0xc(sp)
0x8000141c: 00 41 28 23 sw	tp, 0x10(sp)
0x80001420: 00 51 2a 23 sw	t0, 0x14(sp)
0x80001424: 00 61 2c 23 sw	t1, 0x18(sp)
0x80001428: 00 71 2e 23 sw	t2, 0x1c(sp)
0x8000142c: 02 81 20 23 sw	s0, 0x20(sp)
0x80001430: 02 91 22 23 sw	s1, 0x24(sp)
0x80001434: 02 a1 24 23 sw	a0, 0x28(sp)
0x80001438: 02 b1 26 23 sw	a1, 0x2c(sp)
0x8000143c: 02 c1 28 23 sw	a2, 0x30(sp)
0x80001440: 02 d1 2a 23 sw	a3, 0x34(sp)
0x80001444: 02 e1 2c 23 sw	a4, 0x38(sp)
0x80001448: 02 f1 2e 23 sw	a5, 0x3c(sp)
0x8000144c: 05 01 20 23 sw	a6, 0x40(sp)
0x80001450: 05 11 22 23 sw	a7, 0x44(sp)
0x80001454: 05 21 24 23 sw	s2, 0x48(sp)
0x80001458: 05 31 26 23 sw	s3, 0x4c(sp)
0x8000145c: 05 41 28 23 sw	s4, 0x50(sp)
0x80001460: 05 51 2a 23 sw	s5, 0x54(sp)
0x80001464: 05 61 2c 23 sw	s6, 0x58(sp)
0x80001468: 05 71 2e 23 sw	s7, 0x5c(sp)
0x8000146c: 07 81 20 23 sw	s8, 0x60(sp)
0x80001470: 07 91 22 23 sw	s9, 0x64(sp)
0x80001474: 07 a1 24 23 sw	s10, 0x68(sp)
0x80001478: 07 b1 26 23 sw	s11, 0x6c(sp)
0x8000147c: 07 c1 28 23 sw	t3, 0x70(sp)
0x80001480: 07 d1 2a 23 sw	t4, 0x74(sp)
0x80001484: 07 e1 2c 23 sw	t5, 0x78(sp)
0x80001488: 07 f1 2e 23 sw	t6, 0x7c(sp)
0x8000148c: 34 20 22 f3 csrrs	t0, mcause, zero
0x80001490: 30 00 23 73 csrrs	t1, mstatus, zero
0x80001494: 34 10 23 f3 csrrs	t2, mepc, zero
0x80001498: 08 51 20 23 sw	t0, 0x80(sp)
0x8000149c: 08 61 22 23 sw	t1, 0x84(sp)
0x800014a0: 08 71 24 23 sw	t2, 0x88(sp)
0x800014a4: 00 02 05 37 lui	a0, 0x20
0x800014a8: 00 a3 63 33 or	t1, t1, a0
0x800014ac: 30 03 10 73 csrrw	zero, mstatus, t1
0x800014b0: 00 01 05 13 addi	a0, sp, 0x0
0x800014b4: e8 5f f0 ef jal	ra, 0x80001338
0x80001338: 00 09 47 97 auipc	a5, 0x94
0x8000133c: c6 07 a7 83 lw	a5, -0x3a0(a5)
0x80001340: 00 05 05 93 addi	a1, a0, 0x0
0x80001344: 06 07 8a 63 beq	a5, zero, 0x800013b8
0x80001348: 08 05 26 03 lw	a2, 0x80(a0)
0x8000134c: fd 01 01 13 addi	sp, sp, -0x30
0x80001350: 02 11 26 23 sw	ra, 0x2c(sp)
0x80001354: 00 01 2a 23 sw	zero, 0x14(sp)
0x80001358: 00 01 2c 23 sw	zero, 0x18(sp)
0x8000135c: 00 01 2e 23 sw	zero, 0x1c(sp)
0x80001360: 00 b0 06 93 addi	a3, zero, 0xb
0x80001364: 00 40 07 13 addi	a4, zero, 0x4
0x80001368: 02 d6 0c 63 beq	a2, a3, 0x800013a0
0x800013a0: 04 45 26 03 lw	a2, 0x44(a0)
0x800013a4: ff f0 06 93 addi	a3, zero, -0x1
0x800013a8: 00 10 07 13 addi	a4, zero, 0x1
0x800013ac: fc d6 00 e3 beq	a2, a3, 0x8000136c
0x8000136c: 00 e1 20 23 sw	a4, 0x0(sp)
0x80001370: 01 41 27 03 lw	a4, 0x14(sp)
0x80001374: 00 01 05 13 addi	a0, sp, 0x0
0x80001378: 00 e1 22 23 sw	a4, 0x4(sp)
0x8000137c: 01 81 27 03 lw	a4, 0x18(sp)
0x80001380: 00 e1 24 23 sw	a4, 0x8(sp)
0x80001384: 01 c1 27 03 lw	a4, 0x1c(sp)
0x80001388: 00 e1 26 23 sw	a4, 0xc(sp)
0x8000138c: 00 07 80 e7 jalr	ra, 0x0(a5)
0x800001e0: 00 05 27 83 lw	a5, 0x0(a0)
0x800001e4: ff 01 01 13 addi	sp, sp, -0x10
0x800001e8: 00 81 24 23 sw	s0, 0x8(sp)
0x800001ec: 00 11 26 23 sw	ra, 0xc(sp)
0x800001f0: 00 50 07 13 addi	a4, zero, 0x5
0x800001f4: 00 05 84 13 addi	s0, a1, 0x0
0x800001f8: 04 e7 86 63 beq	a5, a4, 0x80000244
0x800001fc: 00 60 07 13 addi	a4, zero, 0x6
0x80000200: 02 e7 84 63 beq	a5, a4, 0x80000228
0x80000204: 00 10 07 13 addi	a4, zero, 0x1
0x80000208: 04 e7 9c 63 bne	a5, a4, 0x80000260
0x8000020c: 07 90 05 13 addi	a0, zero, 0x79
0x80000210: 59 90 00 ef jal	ra, 0x80000fa8
0x80000fa8: a0 00 07 b7 lui	a5, 0xa0000
0x80000fac: 3e a7 8c 23 sb	a0, 0x3f8(a5)
0x80000fb0: 00 00 80 67 jalr	zero, 0x0(ra)
0x80000214: 00 c1 20 83 lw	ra, 0xc(sp)
0x80000218: 00 04 05 13 addi	a0, s0, 0x0
0x8000021c: 00 81 24 03 lw	s0, 0x8(sp)
0x80000220: 01 01 01 13 addi	sp, sp, 0x10
0x80000224: 00 00 80 67 jalr	zero, 0x0(ra)
0x80001390: 02 05 06 63 beq	a0, zero, 0x800013bc
0x80001394: 02 c1 20 83 lw	ra, 0x2c(sp)
0x80001398: 03 01 01 13 addi	sp, sp, 0x30
0x8000139c: 00 00 80 67 jalr	zero, 0x0(ra)
0x800014b8: 08 41 23 03 lw	t1, 0x84(sp)
0x800014bc: 08 81 23 83 lw	t2, 0x88(sp)
0x800014c0: 30 03 10 73 csrrw	zero, mstatus, t1
0x800014c4: 34 13 90 73 csrrw	zero, mepc, t2
0x800014c8: 00 41 20 83 lw	ra, 0x4(sp)
0x800014cc: 00 c1 21 83 lw	gp, 0xc(sp)
0x800014d0: 01 01 22 03 lw	tp, 0x10(sp)
0x800014d4: 01 41 22 83 lw	t0, 0x14(sp)
0x800014d8: 01 81 23 03 lw	t1, 0x18(sp)
0x800014dc: 01 c1 23 83 lw	t2, 0x1c(sp)
0x800014e0: 02 01 24 03 lw	s0, 0x20(sp)
0x800014e4: 02 41 24 83 lw	s1, 0x24(sp)
0x800014e8: 02 81 25 03 lw	a0, 0x28(sp)
0x800014ec: 02 c1 25 83 lw	a1, 0x2c(sp)
0x800014f0: 03 01 26 03 lw	a2, 0x30(sp)
0x800014f4: 03 41 26 83 lw	a3, 0x34(sp)
0x800014f8: 03 81 27 03 lw	a4, 0x38(sp)
0x800014fc: 03 c1 27 83 lw	a5, 0x3c(sp)
0x80001500: 04 01 28 03 lw	a6, 0x40(sp)
0x80001504: 04 41 28 83 lw	a7, 0x44(sp)
0x80001508: 04 81 29 03 lw	s2, 0x48(sp)
0x8000150c: 04 c1 29 83 lw	s3, 0x4c(sp)
0x80001510: 05 01 2a 03 lw	s4, 0x50(sp)
0x80001514: 05 41 2a 83 lw	s5, 0x54(sp)
0x80001518: 05 81 2b 03 lw	s6, 0x58(sp)
0x8000151c: 05 c1 2b 83 lw	s7, 0x5c(sp)
0x80001520: 06 01 2c 03 lw	s8, 0x60(sp)
0x80001524: 06 41 2c 83 lw	s9, 0x64(sp)
0x80001528: 06 81 2d 03 lw	s10, 0x68(sp)
0x8000152c: 06 c1 2d 83 lw	s11, 0x6c(sp)
0x80001530: 07 01 2e 03 lw	t3, 0x70(sp)
0x80001534: 07 41 2e 83 lw	t4, 0x74(sp)
0x80001538: 07 81 2f 03 lw	t5, 0x78(sp)
0x8000153c: 07 c1 2f 83 lw	t6, 0x7c(sp)
0x80001540: 08 c1 01 13 addi	sp, sp, 0x8c
0x80001544: 30 20 00 73 mret
0x80001400: 00 00 00 73 ecall
0x80001410: f7 41 01 13 addi	sp, sp, -0x8c
0x80001414: 00 11 22 23 sw	ra, 0x4(sp)
0x80001418: 00 31 26 23 sw	gp, 0xc(sp)
0x8000141c: 00 41 28 23 sw	tp, 0x10(sp)
0x80001420: 00 51 2a 23 sw	t0, 0x14(sp)
0x80001424: 00 61 2c 23 sw	t1, 0x18(sp)
0x80001428: 00 71 2e 23 sw	t2, 0x1c(sp)
0x8000142c: 02 81 20 23 sw	s0, 0x20(sp)
0x80001430: 02 91 22 23 sw	s1, 0x24(sp)
0x80001434: 02 a1 24 23 sw	a0, 0x28(sp)
0x80001438: 02 b1 26 23 sw	a1, 0x2c(sp)
0x8000143c: 02 c1 28 23 sw	a2, 0x30(sp)
0x80001440: 02 d1 2a 23 sw	a3, 0x34(sp)
0x80001444: 02 e1 2c 23 sw	a4, 0x38(sp)
0x80001448: 02 f1 2e 23 sw	a5, 0x3c(sp)
0x8000144c: 05 01 20 23 sw	a6, 0x40(sp)
0x80001450: 05 11 22 23 sw	a7, 0x44(sp)
0x80001454: 05 21 24 23 sw	s2, 0x48(sp)
0x80001458: 05 31 26 23 sw	s3, 0x4c(sp)
0x8000145c: 05 41 28 23 sw	s4, 0x50(sp)
0x80001460: 05 51 2a 23 sw	s5, 0x54(sp)
0x80001464: 05 61 2c 23 sw	s6, 0x58(sp)
0x80001468: 05 71 2e 23 sw	s7, 0x5c(sp)
0x8000146c: 07 81 20 23 sw	s8, 0x60(sp)
0x80001470: 07 91 22 23 sw	s9, 0x64(sp)
0x80001474: 07 a1 24 23 sw	s10, 0x68(sp)
0x80001478: 07 b1 26 23 sw	s11, 0x6c(sp)
0x8000147c: 07 c1 28 23 sw	t3, 0x70(sp)
0x80001480: 07 d1 2a 23 sw	t4, 0x74(sp)
0x80001484: 07 e1 2c 23 sw	t5, 0x78(sp)
0x80001488: 07 f1 2e 23 sw	t6, 0x7c(sp)
0x8000148c: 34 20 22 f3 csrrs	t0, mcause, zero
0x80001490: 30 00 23 73 csrrs	t1, mstatus, zero
0x80001494: 34 10 23 f3 csrrs	t2, mepc, zero
0x80001498: 08 51 20 23 sw	t0, 0x80(sp)
0x8000149c: 08 61 22 23 sw	t1, 0x84(sp)
0x800014a0: 08 71 24 23 sw	t2, 0x88(sp)
0x800014a4: 00 02 05 37 lui	a0, 0x20
0x800014a8: 00 a3 63 33 or	t1, t1, a0
0x800014ac: 30 03 10 73 csrrw	zero, mstatus, t1
0x800014b0: 00 01 05 13 addi	a0, sp, 0x0
0x800014b4: e8 5f f0 ef jal	ra, 0x80001338
0x80001338: 00 09 47 97 auipc	a5, 0x94
0x8000133c: c6 07 a7 83 lw	a5, -0x3a0(a5)
0x80001340: 00 05 05 93 addi	a1, a0, 0x0
0x80001344: 06 07 8a 63 beq	a5, zero, 0x800013b8
0x80001348: 08 05 26 03 lw	a2, 0x80(a0)
0x8000134c: fd 01 01 13 addi	sp, sp, -0x30
0x80001350: 02 11 26 23 sw	ra, 0x2c(sp)
0x80001354: 00 01 2a 23 sw	zero, 0x14(sp)
0x80001358: 00 01 2c 23 sw	zero, 0x18(sp)
0x8000135c: 00 01 2e 23 sw	zero, 0x1c(sp)
0x80001360: 00 b0 06 93 addi	a3, zero, 0xb
0x80001364: 00 40 07 13 addi	a4, zero, 0x4
0x80001368: 02 d6 0c 63 beq	a2, a3, 0x800013a0
0x800013a0: 04 45 26 03 lw	a2, 0x44(a0)
0x800013a4: ff f0 06 93 addi	a3, zero, -0x1
0x800013a8: 00 10 07 13 addi	a4, zero, 0x1
0x800013ac: fc d6 00 e3 beq	a2, a3, 0x8000136c
0x8000136c: 00 e1 20 23 sw	a4, 0x0(sp)
0x80001370: 01 41 27 03 lw	a4, 0x14(sp)
0x80001374: 00 01 05 13 addi	a0, sp, 0x0
0x80001378: 00 e1 22 23 sw	a4, 0x4(sp)
0x8000137c: 01 81 27 03 lw	a4, 0x18(sp)
0x80001380: 00 e1 24 23 sw	a4, 0x8(sp)
0x80001384: 01 c1 27 03 lw	a4, 0x1c(sp)
0x80001388: 00 e1 26 23 sw	a4, 0xc(sp)
0x8000138c: 00 07 80 e7 jalr	ra, 0x0(a5)
0x800001e0: 00 05 27 83 lw	a5, 0x0(a0)
0x800001e4: ff 01 01 13 addi	sp, sp, -0x10
0x800001e8: 00 81 24 23 sw	s0, 0x8(sp)
0x800001ec: 00 11 26 23 sw	ra, 0xc(sp)
0x800001f0: 00 50 07 13 addi	a4, zero, 0x5
0x800001f4: 00 05 84 13 addi	s0, a1, 0x0
0x800001f8: 04 e7 86 63 beq	a5, a4, 0x80000244
0x800001fc: 00 60 07 13 addi	a4, zero, 0x6
0x80000200: 02 e7 84 63 beq	a5, a4, 0x80000228
0x80000204: 00 10 07 13 addi	a4, zero, 0x1
0x80000208: 04 e7 9c 63 bne	a5, a4, 0x80000260
0x8000020c: 07 90 05 13 addi	a0, zero, 0x79
0x80000210: 59 90 00 ef jal	ra, 0x80000fa8
0x80000fa8: a0 00 07 b7 lui	a5, 0xa0000
0x80000fac: 3e a7 8c 23 sb	a0, 0x3f8(a5)
0x80000fb0: 00 00 80 67 jalr	zero, 0x0(ra)
0x80000214: 00 c1 20 83 lw	ra, 0xc(sp)
0x80000218: 00 04 05 13 addi	a0, s0, 0x0
0x8000021c: 00 81 24 03 lw	s0, 0x8(sp)
0x80000220: 01 01 01 13 addi	sp, sp, 0x10
0x80000224: 00 00 80 67 jalr	zero, 0x0(ra)
0x80001390: 02 05 06 63 beq	a0, zero, 0x800013bc
0x80001394: 02 c1 20 83 lw	ra, 0x2c(sp)
0x80001398: 03 01 01 13 addi	sp, sp, 0x30
0x8000139c: 00 00 80 67 jalr	zero, 0x0(ra)
0x800014b8: 08 41 23 03 lw	t1, 0x84(sp)
0x800014bc: 08 81 23 83 lw	t2, 0x88(sp)
0x800014c0: 30 03 10 73 csrrw	zero, mstatus, t1
0x800014c4: 34 13 90 73 csrrw	zero, mepc, t2
0x800014c8: 00 41 20 83 lw	ra, 0x4(sp)
0x800014cc: 00 c1 21 83 lw	gp, 0xc(sp)
0x800014d0: 01 01 22 03 lw	tp, 0x10(sp)
0x800014d4: 01 41 22 83 lw	t0, 0x14(sp)
0x800014d8: 01 81 23 03 lw	t1, 0x18(sp)
0x800014dc: 01 c1 23 83 lw	t2, 0x1c(sp)
0x800014e0: 02 01 24 03 lw	s0, 0x20(sp)
0x800014e4: 02 41 24 83 lw	s1, 0x24(sp)
0x800014e8: 02 81 25 03 lw	a0, 0x28(sp)
0x800014ec: 02 c1 25 83 lw	a1, 0x2c(sp)
0x800014f0: 03 01 26 03 lw	a2, 0x30(sp)
0x800014f4: 03 41 26 83 lw	a3, 0x34(sp)
0x800014f8: 03 81 27 03 lw	a4, 0x38(sp)
0x800014fc: 03 c1 27 83 lw	a5, 0x3c(sp)
0x80001500: 04 01 28 03 lw	a6, 0x40(sp)
0x80001504: 04 41 28 83 lw	a7, 0x44(sp)
0x80001508: 04 81 29 03 lw	s2, 0x48(sp)
0x8000150c: 04 c1 29 83 lw	s3, 0x4c(sp)
0x80001510: 05 01 2a 03 lw	s4, 0x50(sp)
0x80001514: 05 41 2a 83 lw	s5, 0x54(sp)
0x80001518: 05 81 2b 03 lw	s6, 0x58(sp)
0x8000151c: 05 c1 2b 83 lw	s7, 0x5c(sp)
0x80001520: 06 01 2c 03 lw	s8, 0x60(sp)
0x80001524: 06 41 2c 83 lw	s9, 0x64(sp)
0x80001528: 06 81 2d 03 lw	s10, 0x68(sp)
0x8000152c: 06 c1 2d 83 lw	s11, 0x6c(sp)
0x80001530: 07 01 2e 03 lw	t3, 0x70(sp)
0x80001534: 07 41 2e 83 lw	t4, 0x74(sp)
0x80001538: 07 81 2f 03 lw	t5, 0x78(sp)
0x8000153c: 07 c1 2f 83 lw	t6, 0x7c(sp)
0x80001540: 08 c1 01 13 addi	sp, sp, 0x8c
0x80001544: 30 20 00 73 mret
0x80001400: 00 00 00 73 ecall
0x80001410: f7 41 01 13 addi	sp, sp, -0x8c
0x80001414: 00 11 22 23 sw	ra, 0x4(sp)
0x80001418: 00 31 26 23 sw	gp, 0xc(sp)
0x8000141c: 00 41 28 23 sw	tp, 0x10(sp)
0x80001420: 00 51 2a 23 sw	t0, 0x14(sp)
0x80001424: 00 61 2c 23 sw	t1, 0x18(sp)
0x80001428: 00 71 2e 23 sw	t2, 0x1c(sp)
0x8000142c: 02 81 20 23 sw	s0, 0x20(sp)
0x80001430: 02 91 22 23 sw	s1, 0x24(sp)
0x80001434: 02 a1 24 23 sw	a0, 0x28(sp)
0x80001438: 02 b1 26 23 sw	a1, 0x2c(sp)
0x8000143c: 02 c1 28 23 sw	a2, 0x30(sp)
0x80001440: 02 d1 2a 23 sw	a3, 0x34(sp)
0x80001444: 02 e1 2c 23 sw	a4, 0x38(sp)
0x80001448: 02 f1 2e 23 sw	a5, 0x3c(sp)
0x8000144c: 05 01 20 23 sw	a6, 0x40(sp)
0x80001450: 05 11 22 23 sw	a7, 0x44(sp)
0x80001454: 05 21 24 23 sw	s2, 0x48(sp)
0x80001458: 05 31 26 23 sw	s3, 0x4c(sp)
0x8000145c: 05 41 28 23 sw	s4, 0x50(sp)
0x80001460: 05 51 2a 23 sw	s5, 0x54(sp)
0x80001464: 05 61 2c 23 sw	s6, 0x58(sp)
0x80001468: 05 71 2e 23 sw	s7, 0x5c(sp)
0x8000146c: 07 81 20 23 sw	s8, 0x60(sp)
0x80001470: 07 91 22 23 sw	s9, 0x64(sp)
0x80001474: 07 a1 24 23 sw	s10, 0x68(sp)
0x80001478: 07 b1 26 23 sw	s11, 0x6c(sp)
0x8000147c: 07 c1 28 23 sw	t3, 0x70(sp)
0x80001480: 07 d1 2a 23 sw	t4, 0x74(sp)
0x80001484: 07 e1 2c 23 sw	t5, 0x78(sp)
0x80001488: 07 f1 2e 23 sw	t6, 0x7c(sp)
0x8000148c: 34 20 22 f3 csrrs	t0, mcause, zero
0x80001490: 30 00 23 73 csrrs	t1, mstatus, zero
0x80001494: 34 10 23 f3 csrrs	t2, mepc, zero
0x80001498: 08 51 20 23 sw	t0, 0x80(sp)
0x8000149c: 08 61 22 23 sw	t1, 0x84(sp)
0x800014a0: 08 71 24 23 sw	t2, 0x88(sp)
0x800014a4: 00 02 05 37 lui	a0, 0x20
0x800014a8: 00 a3 63 33 or	t1, t1, a0
0x800014ac: 30 03 10 73 csrrw	zero, mstatus, t1
0x800014b0: 00 01 05 13 addi	a0, sp, 0x0
0x800014b4: e8 5f f0 ef jal	ra, 0x80001338
0x80001338: 00 09 47 97 auipc	a5, 0x94
0x8000133c: c6 07 a7 83 lw	a5, -0x3a0(a5)
0x80001340: 00 05 05 93 addi	a1, a0, 0x0
0x80001344: 06 07 8a 63 beq	a5, zero, 0x800013b8
0x80001348: 08 05 26 03 lw	a2, 0x80(a0)
0x8000134c: fd 01 01 13 addi	sp, sp, -0x30
0x80001350: 02 11 26 23 sw	ra, 0x2c(sp)
0x80001354: 00 01 2a 23 sw	zero, 0x14(sp)
0x80001358: 00 01 2c 23 sw	zero, 0x18(sp)
0x8000135c: 00 01 2e 23 sw	zero, 0x1c(sp)
0x80001360: 00 b0 06 93 addi	a3, zero, 0xb
0x80001364: 00 40 07 13 addi	a4, zero, 0x4
0x80001368: 02 d6 0c 63 beq	a2, a3, 0x800013a0
0x800013a0: 04 45 26 03 lw	a2, 0x44(a0)
0x800013a4: ff f0 06 93 addi	a3, zero, -0x1
0x800013a8: 00 10 07 13 addi	a4, zero, 0x1
0x800013ac: fc d6 00 e3 beq	a2, a3, 0x8000136c
0x8000136c: 00 e1 20 23 sw	a4, 0x0(sp)
0x80001370: 01 41 27 03 lw	a4, 0x14(sp)
0x80001374: 00 01 05 13 addi	a0, sp, 0x0
0x80001378: 00 e1 22 23 sw	a4, 0x4(sp)
0x8000137c: 01 81 27 03 lw	a4, 0x18(sp)
0x80001380: 00 e1 24 23 sw	a4, 0x8(sp)
0x80001384: 01 c1 27 03 lw	a4, 0x1c(sp)
0x80001388: 00 e1 26 23 sw	a4, 0xc(sp)
0x8000138c: 00 07 80 e7 jalr	ra, 0x0(a5)
0x800001e0: 00 05 27 83 lw	a5, 0x0(a0)
0x800001e4: ff 01 01 13 addi	sp, sp, -0x10
0x800001e8: 00 81 24 23 sw	s0, 0x8(sp)
0x800001ec: 00 11 26 23 sw	ra, 0xc(sp)
0x800001f0: 00 50 07 13 addi	a4, zero, 0x5
0x800001f4: 00 05 84 13 addi	s0, a1, 0x0
0x800001f8: 04 e7 86 63 beq	a5, a4, 0x80000244
0x800001fc: 00 60 07 13 addi	a4, zero, 0x6
0x80000200: 02 e7 84 63 beq	a5, a4, 0x80000228
0x80000204: 00 10 07 13 addi	a4, zero, 0x1
0x80000208: 04 e7 9c 63 bne	a5, a4, 0x80000260
0x8000020c: 07 90 05 13 addi	a0, zero, 0x79
0x80000210: 59 90 00 ef jal	ra, 0x80000fa8
0x80000fa8: a0 00 07 b7 lui	a5, 0xa0000
0x80000fac: 3e a7 8c 23 sb	a0, 0x3f8(a5)
0x80000fb0: 00 00 80 67 jalr	zero, 0x0(ra)
0x80000214: 00 c1 20 83 lw	ra, 0xc(sp)
0x80000218: 00 04 05 13 addi	a0, s0, 0x0
0x8000021c: 00 81 24 03 lw	s0, 0x8(sp)
0x80000220: 01 01 01 13 addi	sp, sp, 0x10
0x80000224: 00 00 80 67 jalr	zero, 0x0(ra)
0x80001390: 02 05 06 63 beq	a0, zero, 0x800013bc
0x80001394: 02 c1 20 83 lw	ra, 0x2c(sp)
0x80001398: 03 01 01 13 addi	sp, sp, 0x30
0x8000139c: 00 00 80 67 jalr	zero, 0x0(ra)
0x800014b8: 08 41 23 03 lw	t1, 0x84(sp)
0x800014bc: 08 81 23 83 lw	t2, 0x88(sp)
0x800014c0: 30 03 10 73 csrrw	zero, mstatus, t1
0x800014c4: 34 13 90 73 csrrw	zero, mepc, t2
0x800014c8: 00 41 20 83 lw	ra, 0x4(sp)
0x800014cc: 00 c1 21 83 lw	gp, 0xc(sp)
0x800014d0: 01 01 22 03 lw	tp, 0x10(sp)
0x800014d4: 01 41 22 83 lw	t0, 0x14(sp)
0x800014d8: 01 81 23 03 lw	t1, 0x18(sp)
0x800014dc: 01 c1 23 83 lw	t2, 0x1c(sp)
0x800014e0: 02 01 24 03 lw	s0, 0x20(sp)
0x800014e4: 02 41 24 83 lw	s1, 0x24(sp)
0x800014e8: 02 81 25 03 lw	a0, 0x28(sp)
0x800014ec: 02 c1 25 83 lw	a1, 0x2c(sp)
0x800014f0: 03 01 26 03 lw	a2, 0x30(sp)
0x800014f4: 03 41 26 83 lw	a3, 0x34(sp)
0x800014f8: 03 81 27 03 lw	a4, 0x38(sp)
0x800014fc: 03 c1 27 83 lw	a5, 0x3c(sp)
0x80001500: 04 01 28 03 lw	a6, 0x40(sp)
0x80001504: 04 41 28 83 lw	a7, 0x44(sp)
0x80001508: 04 81 29 03 lw	s2, 0x48(sp)
0x8000150c: 04 c1 29 83 lw	s3, 0x4c(sp)
0x80001510: 05 01 2a 03 lw	s4, 0x50(sp)
0x80001514: 05 41 2a 83 lw	s5, 0x54(sp)
0x80001518: 05 81 2b 03 lw	s6, 0x58(sp)
0x8000151c: 05 c1 2b 83 lw	s7, 0x5c(sp)
0x80001520: 06 01 2c 03 lw	s8, 0x60(sp)
0x80001524: 06 41 2c 83 lw	s9, 0x64(sp)
0x80001528: 06 81 2d 03 lw	s10, 0x68(sp)
0x8000152c: 06 c1 2d 83 lw	s11, 0x6c(sp)
0x80001530: 07 01 2e 03 lw	t3, 0x70(sp)
0x80001534: 07 41 2e 83 lw	t4, 0x74(sp)
0x80001538: 07 81 2f 03 lw	t5, 0x78(sp)
0x8000153c: 07 c1 2f 83 lw	t6, 0x7c(sp)
0x80001540: 08 c1 01 13 addi	sp, sp, 0x8c
0x80001544: 30 20 00 73 mret
0x80001400: 00 00 00 73 ecall
0x80001410: f7 41 01 13 addi	sp, sp, -0x8c
0x80001414: 00 11 22 23 sw	ra, 0x4(sp)
0x80001418: 00 31 26 23 sw	gp, 0xc(sp)
0x8000141c: 00 41 28 23 sw	tp, 0x10(sp)
0x80001420: 00 51 2a 23 sw	t0, 0x14(sp)
0x80001424: 00 61 2c 23 sw	t1, 0x18(sp)
0x80001428: 00 71 2e 23 sw	t2, 0x1c(sp)
0x8000142c: 02 81 20 23 sw	s0, 0x20(sp)
0x80001430: 02 91 22 23 sw	s1, 0x24(sp)
0x80001434: 02 a1 24 23 sw	a0, 0x28(sp)
0x80001438: 02 b1 26 23 sw	a1, 0x2c(sp)
0x8000143c: 02 c1 28 23 sw	a2, 0x30(sp)
0x80001440: 02 d1 2a 23 sw	a3, 0x34(sp)
0x80001444: 02 e1 2c 23 sw	a4, 0x38(sp)
0x80001448: 02 f1 2e 23 sw	a5, 0x3c(sp)
0x8000144c: 05 01 20 23 sw	a6, 0x40(sp)
0x80001450: 05 11 22 23 sw	a7, 0x44(sp)
0x80001454: 05 21 24 23 sw	s2, 0x48(sp)
0x80001458: 05 31 26 23 sw	s3, 0x4c(sp)
0x8000145c: 05 41 28 23 sw	s4, 0x50(sp)
0x80001460: 05 51 2a 23 sw	s5, 0x54(sp)
0x80001464: 05 61 2c 23 sw	s6, 0x58(sp)
0x80001468: 05 71 2e 23 sw	s7, 0x5c(sp)
0x8000146c: 07 81 20 23 sw	s8, 0x60(sp)
0x80001470: 07 91 22 23 sw	s9, 0x64(sp)
0x80001474: 07 a1 24 23 sw	s10, 0x68(sp)
0x80001478: 07 b1 26 23 sw	s11, 0x6c(sp)
0x8000147c: 07 c1 28 23 sw	t3, 0x70(sp)
0x80001480: 07 d1 2a 23 sw	t4, 0x74(sp)
0x80001484: 07 e1 2c 23 sw	t5, 0x78(sp)
0x80001488: 07 f1 2e 23 sw	t6, 0x7c(sp)
0x8000148c: 34 20 22 f3 csrrs	t0, mcause, zero
0x80001490: 30 00 23 73 csrrs	t1, mstatus, zero
0x80001494: 34 10 23 f3 csrrs	t2, mepc, zero
0x80001498: 08 51 20 23 sw	t0, 0x80(sp)
0x8000149c: 08 61 22 23 sw	t1, 0x84(sp)
0x800014a0: 08 71 24 23 sw	t2, 0x88(sp)
0x800014a4: 00 02 05 37 lui	a0, 0x20
0x800014a8: 00 a3 63 33 or	t1, t1, a0
0x800014ac: 30 03 10 73 csrrw	zero, mstatus, t1
0x800014b0: 00 01 05 13 addi	a0, sp, 0x0
0x800014b4: e8 5f f0 ef jal	ra, 0x80001338
0x80001338: 00 09 47 97 auipc	a5, 0x94
0x8000133c: c6 07 a7 83 lw	a5, -0x3a0(a5)
0x80001340: 00 05 05 93 addi	a1, a0, 0x0
0x80001344: 06 07 8a 63 beq	a5, zero, 0x800013b8
0x80001348: 08 05 26 03 lw	a2, 0x80(a0)
0x8000134c: fd 01 01 13 addi	sp, sp, -0x30
0x80001350: 02 11 26 23 sw	ra, 0x2c(sp)
0x80001354: 00 01 2a 23 sw	zero, 0x14(sp)
0x80001358: 00 01 2c 23 sw	zero, 0x18(sp)
0x8000135c: 00 01 2e 23 sw	zero, 0x1c(sp)
0x80001360: 00 b0 06 93 addi	a3, zero, 0xb
0x80001364: 00 40 07 13 addi	a4, zero, 0x4
0x80001368: 02 d6 0c 63 beq	a2, a3, 0x800013a0
0x800013a0: 04 45 26 03 lw	a2, 0x44(a0)
0x800013a4: ff f0 06 93 addi	a3, zero, -0x1
0x800013a8: 00 10 07 13 addi	a4, zero, 0x1
0x800013ac: fc d6 00 e3 beq	a2, a3, 0x8000136c
0x8000136c: 00 e1 20 23 sw	a4, 0x0(sp)
0x80001370: 01 41 27 03 lw	a4, 0x14(sp)
0x80001374: 00 01 05 13 addi	a0, sp, 0x0
0x80001378: 00 e1 22 23 sw	a4, 0x4(sp)
0x8000137c: 01 81 27 03 lw	a4, 0x18(sp)
0x80001380: 00 e1 24 23 sw	a4, 0x8(sp)
0x80001384: 01 c1 27 03 lw	a4, 0x1c(sp)
0x80001388: 00 e1 26 23 sw	a4, 0xc(sp)
0x8000138c: 00 07 80 e7 jalr	ra, 0x0(a5)
0x800001e0: 00 05 27 83 lw	a5, 0x0(a0)
0x800001e4: ff 01 01 13 addi	sp, sp, -0x10
0x800001e8: 00 81 24 23 sw	s0, 0x8(sp)
0x800001ec: 00 11 26 23 sw	ra, 0xc(sp)
0x800001f0: 00 50 07 13 addi	a4, zero, 0x5
0x800001f4: 00 05 84 13 addi	s0, a1, 0x0
0x800001f8: 04 e7 86 63 beq	a5, a4, 0x80000244
0x800001fc: 00 60 07 13 addi	a4, zero, 0x6
0x80000200: 02 e7 84 63 beq	a5, a4, 0x80000228
0x80000204: 00 10 07 13 addi	a4, zero, 0x1
0x80000208: 04 e7 9c 63 bne	a5, a4, 0x80000260
0x8000020c: 07 90 05 13 addi	a0, zero, 0x79
0x80000210: 59 90 00 ef jal	ra, 0x80000fa8
0x80000fa8: a0 00 07 b7 lui	a5, 0xa0000
0x80000fac: 3e a7 8c 23 sb	a0, 0x3f8(a5)
0x80000fb0: 00 00 80 67 jalr	zero, 0x0(ra)
0x80000214: 00 c1 20 83 lw	ra, 0xc(sp)
0x80000218: 00 04 05 13 addi	a0, s0, 0x0
0x8000021c: 00 81 24 03 lw	s0, 0x8(sp)
0x80000220: 01 01 01 13 addi	sp, sp, 0x10
0x80000224: 00 00 80 67 jalr	zero, 0x0(ra)
0x80001390: 02 05 06 63 beq	a0, zero, 0x800013bc
0x80001394: 02 c1 20 83 lw	ra, 0x2c(sp)
0x80001398: 03 01 01 13 addi	sp, sp, 0x30
0x8000139c: 00 00 80 67 jalr	zero, 0x0(ra)
0x800014b8: 08 41 23 03 lw	t1, 0x84(sp)
0x800014bc: 08 81 23 83 lw	t2, 0x88(sp)
0x800014c0: 30 03 10 73 csrrw	zero, mstatus, t1
0x800014c4: 34 13 90 73 csrrw	zero, mepc, t2
0x800014c8: 00 41 20 83 lw	ra, 0x4(sp)
0x800014cc: 00 c1 21 83 lw	gp, 0xc(sp)
0x800014d0: 01 01 22 03 lw	tp, 0x10(sp)
0x800014d4: 01 41 22 83 lw	t0, 0x14(sp)
0x800014d8: 01 81 23 03 lw	t1, 0x18(sp)
0x800014dc: 01 c1 23 83 lw	t2, 0x1c(sp)
0x800014e0: 02 01 24 03 lw	s0, 0x20(sp)
0x800014e4: 02 41 24 83 lw	s1, 0x24(sp)
0x800014e8: 02 81 25 03 lw	a0, 0x28(sp)
0x800014ec: 02 c1 25 83 lw	a1, 0x2c(sp)
0x800014f0: 03 01 26 03 lw	a2, 0x30(sp)
0x800014f4: 03 41 26 83 lw	a3, 0x34(sp)
0x800014f8: 03 81 27 03 lw	a4, 0x38(sp)
0x800014fc: 03 c1 27 83 lw	a5, 0x3c(sp)
0x80001500: 04 01 28 03 lw	a6, 0x40(sp)
0x80001504: 04 41 28 83 lw	a7, 0x44(sp)
0x80001508: 04 81 29 03 lw	s2, 0x48(sp)
0x8000150c: 04 c1 29 83 lw	s3, 0x4c(sp)
0x80001510: 05 01 2a 03 lw	s4, 0x50(sp)
0x80001514: 05 41 2a 83 lw	s5, 0x54(sp)
0x80001518: 05 81 2b 03 lw	s6, 0x58(sp)
0x8000151c: 05 c1 2b 83 lw	s7, 0x5c(sp)
0x80001520: 06 01 2c 03 lw	s8, 0x60(sp)
0x80001524: 06 41 2c 83 lw	s9, 0x64(sp)
0x80001528: 06 81 2d 03 lw	s10, 0x68(sp)
0x8000152c: 06 c1 2d 83 lw	s11, 0x6c(sp)
0x80001530: 07 01 2e 03 lw	t3, 0x70(sp)
0x80001534: 07 41 2e 83 lw	t4, 0x74(sp)
0x80001538: 07 81 2f 03 lw	t5, 0x78(sp)
0x8000153c: 07 c1 2f 83 lw	t6, 0x7c(sp)
0x80001540: 08 c1 01 13 addi	sp, sp, 0x8c
0x80001544: 30 20 00 73 mret
0x80001400: 00 00 00 73 ecall
0x80001410: f7 41 01 13 addi	sp, sp, -0x8c
0x80001414: 00 11 22 23 sw	ra, 0x4(sp)
0x80001418: 00 31 26 23 sw	gp, 0xc(sp)
0x8000141c: 00 41 28 23 sw	tp, 0x10(sp)
0x80001420: 00 51 2a 23 sw	t0, 0x14(sp)
0x80001424: 00 61 2c 23 sw	t1, 0x18(sp)
0x80001428: 00 71 2e 23 sw	t2, 0x1c(sp)
0x8000142c: 02 81 20 23 sw	s0, 0x20(sp)
0x80001430: 02 91 22 23 sw	s1, 0x24(sp)
0x80001434: 02 a1 24 23 sw	a0, 0x28(sp)
0x80001438: 02 b1 26 23 sw	a1, 0x2c(sp)
0x8000143c: 02 c1 28 23 sw	a2, 0x30(sp)
0x80001440: 02 d1 2a 23 sw	a3, 0x34(sp)
0x80001444: 02 e1 2c 23 sw	a4, 0x38(sp)
0x80001448: 02 f1 2e 23 sw	a5, 0x3c(sp)
0x8000144c: 05 01 20 23 sw	a6, 0x40(sp)
0x80001450: 05 11 22 23 sw	a7, 0x44(sp)
0x80001454: 05 21 24 23 sw	s2, 0x48(sp)
0x80001458: 05 31 26 23 sw	s3, 0x4c(sp)
0x8000145c: 05 41 28 23 sw	s4, 0x50(sp)
0x80001460: 05 51 2a 23 sw	s5, 0x54(sp)
0x80001464: 05 61 2c 23 sw	s6, 0x58(sp)
0x80001468: 05 71 2e 23 sw	s7, 0x5c(sp)
0x8000146c: 07 81 20 23 sw	s8, 0x60(sp)
0x80001470: 07 91 22 23 sw	s9, 0x64(sp)
0x80001474: 07 a1 24 23 sw	s10, 0x68(sp)
0x80001478: 07 b1 26 23 sw	s11, 0x6c(sp)
0x8000147c: 07 c1 28 23 sw	t3, 0x70(sp)
0x80001480: 07 d1 2a 23 sw	t4, 0x74(sp)
0x80001484: 07 e1 2c 23 sw	t5, 0x78(sp)
0x80001488: 07 f1 2e 23 sw	t6, 0x7c(sp)
0x8000148c: 34 20 22 f3 csrrs	t0, mcause, zero
0x80001490: 30 00 23 73 csrrs	t1, mstatus, zero
0x80001494: 34 10 23 f3 csrrs	t2, mepc, zero
0x80001498: 08 51 20 23 sw	t0, 0x80(sp)
0x8000149c: 08 61 22 23 sw	t1, 0x84(sp)
0x800014a0: 08 71 24 23 sw	t2, 0x88(sp)
0x800014a4: 00 02 05 37 lui	a0, 0x20
0x800014a8: 00 a3 63 33 or	t1, t1, a0
0x800014ac: 30 03 10 73 csrrw	zero, mstatus, t1
0x800014b0: 00 01 05 13 addi	a0, sp, 0x0
0x800014b4: e8 5f f0 ef jal	ra, 0x80001338
0x80001338: 00 09 47 97 auipc	a5, 0x94
0x8000133c: c6 07 a7 83 lw	a5, -0x3a0(a5)
0x80001340: 00 05 05 93 addi	a1, a0, 0x0
0x80001344: 06 07 8a 63 beq	a5, zero, 0x800013b8
0x80001348: 08 05 26 03 lw	a2, 0x80(a0)
0x8000134c: fd 01 01 13 addi	sp, sp, -0x30
0x80001350: 02 11 26 23 sw	ra, 0x2c(sp)
0x80001354: 00 01 2a 23 sw	zero, 0x14(sp)
0x80001358: 00 01 2c 23 sw	zero, 0x18(sp)
0x8000135c: 00 01 2e 23 sw	zero, 0x1c(sp)
0x80001360: 00 b0 06 93 addi	a3, zero, 0xb
0x80001364: 00 40 07 13 addi	a4, zero, 0x4
0x80001368: 02 d6 0c 63 beq	a2, a3, 0x800013a0
0x800013a0: 04 45 26 03 lw	a2, 0x44(a0)
0x800013a4: ff f0 06 93 addi	a3, zero, -0x1
0x800013a8: 00 10 07 13 addi	a4, zero, 0x1
0x800013ac: fc d6 00 e3 beq	a2, a3, 0x8000136c
0x8000136c: 00 e1 20 23 sw	a4, 0x0(sp)
0x80001370: 01 41 27 03 lw	a4, 0x14(sp)
0x80001374: 00 01 05 13 addi	a0, sp, 0x0
0x80001378: 00 e1 22 23 sw	a4, 0x4(sp)
0x8000137c: 01 81 27 03 lw	a4, 0x18(sp)
0x80001380: 00 e1 24 23 sw	a4, 0x8(sp)
0x80001384: 01 c1 27 03 lw	a4, 0x1c(sp)
0x80001388: 00 e1 26 23 sw	a4, 0xc(sp)
0x8000138c: 00 07 80 e7 jalr	ra, 0x0(a5)
0x800001e0: 00 05 27 83 lw	a5, 0x0(a0)
0x800001e4: ff 01 01 13 addi	sp, sp, -0x10
0x800001e8: 00 81 24 23 sw	s0, 0x8(sp)
0x800001ec: 00 11 26 23 sw	ra, 0xc(sp)
0x800001f0: 00 50 07 13 addi	a4, zero, 0x5
0x800001f4: 00 05 84 13 addi	s0, a1, 0x0
0x800001f8: 04 e7 86 63 beq	a5, a4, 0x80000244
0x800001fc: 00 60 07 13 addi	a4, zero, 0x6
0x80000200: 02 e7 84 63 beq	a5, a4, 0x80000228
0x80000204: 00 10 07 13 addi	a4, zero, 0x1
0x80000208: 04 e7 9c 63 bne	a5, a4, 0x80000260
0x8000020c: 07 90 05 13 addi	a0, zero, 0x79
0x80000210: 59 90 00 ef jal	ra, 0x80000fa8
0x80000fa8: a0 00 07 b7 lui	a5, 0xa0000
0x80000fac: 3e a7 8c 23 sb	a0, 0x3f8(a5)
0x80000fb0: 00 00 80 67 jalr	zero, 0x0(ra)
0x80000214: 00 c1 20 83 lw	ra, 0xc(sp)
0x80000218: 00 04 05 13 addi	a0, s0, 0x0
0x8000021c: 00 81 24 03 lw	s0, 0x8(sp)
0x80000220: 01 01 01 13 addi	sp, sp, 0x10
0x80000224: 00 00 80 67 jalr	zero, 0x0(ra)
0x80001390: 02 05 06 63 beq	a0, zero, 0x800013bc
0x80001394: 02 c1 20 83 lw	ra, 0x2c(sp)
0x80001398: 03 01 01 13 addi	sp, sp, 0x30
0x8000139c: 00 00 80 67 jalr	zero, 0x0(ra)
0x800014b8: 08 41 23 03 lw	t1, 0x84(sp)
0x800014bc: 08 81 23 83 lw	t2, 0x88(sp)
0x800014c0: 30 03 10 73 csrrw	zero, mstatus, t1
0x800014c4: 34 13 90 73 csrrw	zero, mepc, t2
0x800014c8: 00 41 20 83 lw	ra, 0x4(sp)
0x800014cc: 00 c1 21 83 lw	gp, 0xc(sp)
0x800014d0: 01 01 22 03 lw	tp, 0x10(sp)
0x800014d4: 01 41 22 83 lw	t0, 0x14(sp)
0x800014d8: 01 81 23 03 lw	t1, 0x18(sp)
0x800014dc: 01 c1 23 83 lw	t2, 0x1c(sp)
0x800014e0: 02 01 24 03 lw	s0, 0x20(sp)
0x800014e4: 02 41 24 83 lw	s1, 0x24(sp)
0x800014e8: 02 81 25 03 lw	a0, 0x28(sp)
0x800014ec: 02 c1 25 83 lw	a1, 0x2c(sp)
0x800014f0: 03 01 26 03 lw	a2, 0x30(sp)
0x800014f4: 03 41 26 83 lw	a3, 0x34(sp)
0x800014f8: 03 81 27 03 lw	a4, 0x38(sp)
0x800014fc: 03 c1 27 83 lw	a5, 0x3c(sp)
0x80001500: 04 01 28 03 lw	a6, 0x40(sp)
0x80001504: 04 41 28 83 lw	a7, 0x44(sp)
0x80001508: 04 81 29 03 lw	s2, 0x48(sp)
0x8000150c: 04 c1 29 83 lw	s3, 0x4c(sp)
0x80001510: 05 01 2a 03 lw	s4, 0x50(sp)
0x80001514: 05 41 2a 83 lw	s5, 0x54(sp)
0x80001518: 05 81 2b 03 lw	s6, 0x58(sp)
0x8000151c: 05 c1 2b 83 lw	s7, 0x5c(sp)
0x80001520: 06 01 2c 03 lw	s8, 0x60(sp)
0x80001524: 06 41 2c 83 lw	s9, 0x64(sp)
0x80001528: 06 81 2d 03 lw	s10, 0x68(sp)
0x8000152c: 06 c1 2d 83 lw	s11, 0x6c(sp)
0x80001530: 07 01 2e 03 lw	t3, 0x70(sp)
0x80001534: 07 41 2e 83 lw	t4, 0x74(sp)
0x80001538: 07 81 2f 03 lw	t5, 0x78(sp)
0x8000153c: 07 c1 2f 83 lw	t6, 0x7c(sp)
0x80001540: 08 c1 01 13 addi	sp, sp, 0x8c
0x80001544: 30 20 00 73 mret
0x80001400: 00 00 00 73 ecall
0x80001410: f7 41 01 13 addi	sp, sp, -0x8c
0x80001414: 00 11 22 23 sw	ra, 0x4(sp)
0x80001418: 00 31 26 23 sw	gp, 0xc(sp)
0x8000141c: 00 41 28 23 sw	tp, 0x10(sp)
0x80001420: 00 51 2a 23 sw	t0, 0x14(sp)
0x80001424: 00 61 2c 23 sw	t1, 0x18(sp)
0x80001428: 00 71 2e 23 sw	t2, 0x1c(sp)
0x8000142c: 02 81 20 23 sw	s0, 0x20(sp)
0x80001430: 02 91 22 23 sw	s1, 0x24(sp)
0x80001434: 02 a1 24 23 sw	a0, 0x28(sp)
0x80001438: 02 b1 26 23 sw	a1, 0x2c(sp)
0x8000143c: 02 c1 28 23 sw	a2, 0x30(sp)
0x80001440: 02 d1 2a 23 sw	a3, 0x34(sp)
0x80001444: 02 e1 2c 23 sw	a4, 0x38(sp)
0x80001448: 02 f1 2e 23 sw	a5, 0x3c(sp)
0x8000144c: 05 01 20 23 sw	a6, 0x40(sp)
0x80001450: 05 11 22 23 sw	a7, 0x44(sp)
0x80001454: 05 21 24 23 sw	s2, 0x48(sp)
0x80001458: 05 31 26 23 sw	s3, 0x4c(sp)
0x8000145c: 05 41 28 23 sw	s4, 0x50(sp)
0x80001460: 05 51 2a 23 sw	s5, 0x54(sp)
0x80001464: 05 61 2c 23 sw	s6, 0x58(sp)
0x80001468: 05 71 2e 23 sw	s7, 0x5c(sp)
0x8000146c: 07 81 20 23 sw	s8, 0x60(sp)
0x80001470: 07 91 22 23 sw	s9, 0x64(sp)
0x80001474: 07 a1 24 23 sw	s10, 0x68(sp)
0x80001478: 07 b1 26 23 sw	s11, 0x6c(sp)
0x8000147c: 07 c1 28 23 sw	t3, 0x70(sp)
0x80001480: 07 d1 2a 23 sw	t4, 0x74(sp)
0x80001484: 07 e1 2c 23 sw	t5, 0x78(sp)
0x80001488: 07 f1 2e 23 sw	t6, 0x7c(sp)
0x8000148c: 34 20 22 f3 csrrs	t0, mcause, zero
0x80001490: 30 00 23 73 csrrs	t1, mstatus, zero
0x80001494: 34 10 23 f3 csrrs	t2, mepc, zero
0x80001498: 08 51 20 23 sw	t0, 0x80(sp)
0x8000149c: 08 61 22 23 sw	t1, 0x84(sp)
0x800014a0: 08 71 24 23 sw	t2, 0x88(sp)
0x800014a4: 00 02 05 37 lui	a0, 0x20
0x800014a8: 00 a3 63 33 or	t1, t1, a0
0x800014ac: 30 03 10 73 csrrw	zero, mstatus, t1
0x800014b0: 00 01 05 13 addi	a0, sp, 0x0
0x800014b4: e8 5f f0 ef jal	ra, 0x80001338
0x80001338: 00 09 47 97 auipc	a5, 0x94
0x8000133c: c6 07 a7 83 lw	a5, -0x3a0(a5)
0x80001340: 00 05 05 93 addi	a1, a0, 0x0
0x80001344: 06 07 8a 63 beq	a5, zero, 0x800013b8
0x80001348: 08 05 26 03 lw	a2, 0x80(a0)
0x8000134c: fd 01 01 13 addi	sp, sp, -0x30
0x80001350: 02 11 26 23 sw	ra, 0x2c(sp)
0x80001354: 00 01 2a 23 sw	zero, 0x14(sp)
0x80001358: 00 01 2c 23 sw	zero, 0x18(sp)
0x8000135c: 00 01 2e 23 sw	zero, 0x1c(sp)
0x80001360: 00 b0 06 93 addi	a3, zero, 0xb
0x80001364: 00 40 07 13 addi	a4, zero, 0x4
0x80001368: 02 d6 0c 63 beq	a2, a3, 0x800013a0
0x800013a0: 04 45 26 03 lw	a2, 0x44(a0)
0x800013a4: ff f0 06 93 addi	a3, zero, -0x1
0x800013a8: 00 10 07 13 addi	a4, zero, 0x1
0x800013ac: fc d6 00 e3 beq	a2, a3, 0x8000136c
0x8000136c: 00 e1 20 23 sw	a4, 0x0(sp)
0x80001370: 01 41 27 03 lw	a4, 0x14(sp)
0x80001374: 00 01 05 13 addi	a0, sp, 0x0
0x80001378: 00 e1 22 23 sw	a4, 0x4(sp)
0x8000137c: 01 81 27 03 lw	a4, 0x18(sp)
0x80001380: 00 e1 24 23 sw	a4, 0x8(sp)
0x80001384: 01 c1 27 03 lw	a4, 0x1c(sp)
0x80001388: 00 e1 26 23 sw	a4, 0xc(sp)
0x8000138c: 00 07 80 e7 jalr	ra, 0x0(a5)
0x800001e0: 00 05 27 83 lw	a5, 0x0(a0)
0x800001e4: ff 01 01 13 addi	sp, sp, -0x10
0x800001e8: 00 81 24 23 sw	s0, 0x8(sp)
0x800001ec: 00 11 26 23 sw	ra, 0xc(sp)
0x800001f0: 00 50 07 13 addi	a4, zero, 0x5
0x800001f4: 00 05 84 13 addi	s0, a1, 0x0
0x800001f8: 04 e7 86 63 beq	a5, a4, 0x80000244
0x800001fc: 00 60 07 13 addi	a4, zero, 0x6
0x80000200: 02 e7 84 63 beq	a5, a4, 0x80000228
0x80000204: 00 10 07 13 addi	a4, zero, 0x1
0x80000208: 04 e7 9c 63 bne	a5, a4, 0x80000260
0x8000020c: 07 90 05 13 addi	a0, zero, 0x79
0x80000210: 59 90 00 ef jal	ra, 0x80000fa8
0x80000fa8: a0 00 07 b7 lui	a5, 0xa0000
0x80000fac: 3e a7 8c 23 sb	a0, 0x3f8(a5)
0x80000fb0: 00 00 80 67 jalr	zero, 0x0(ra)
0x80000214: 00 c1 20 83 lw	ra, 0xc(sp)
0x80000218: 00 04 05 13 addi	a0, s0, 0x0
0x8000021c: 00 81 24 03 lw	s0, 0x8(sp)
0x80000220: 01 01 01 13 addi	sp, sp, 0x10
0x80000224: 00 00 80 67 jalr	zero, 0x0(ra)
0x80001390: 02 05 06 63 beq	a0, zero, 0x800013bc
0x80001394: 02 c1 20 83 lw	ra, 0x2c(sp)
0x80001398: 03 01 01 13 addi	sp, sp, 0x30
0x8000139c: 00 00 80 67 jalr	zero, 0x0(ra)
0x800014b8: 08 41 23 03 lw	t1, 0x84(sp)
0x800014bc: 08 81 23 83 lw	t2, 0x88(sp)
0x800014c0: 30 03 10 73 csrrw	zero, mstatus, t1
0x800014c4: 34 13 90 73 csrrw	zero, mepc, t2
0x800014c8: 00 41 20 83 lw	ra, 0x4(sp)
0x800014cc: 00 c1 21 83 lw	gp, 0xc(sp)
0x800014d0: 01 01 22 03 lw	tp, 0x10(sp)
0x800014d4: 01 41 22 83 lw	t0, 0x14(sp)
0x800014d8: 01 81 23 03 lw	t1, 0x18(sp)
0x800014dc: 01 c1 23 83 lw	t2, 0x1c(sp)
0x800014e0: 02 01 24 03 lw	s0, 0x20(sp)
0x800014e4: 02 41 24 83 lw	s1, 0x24(sp)
0x800014e8: 02 81 25 03 lw	a0, 0x28(sp)
0x800014ec: 02 c1 25 83 lw	a1, 0x2c(sp)
0x800014f0: 03 01 26 03 lw	a2, 0x30(sp)
0x800014f4: 03 41 26 83 lw	a3, 0x34(sp)
0x800014f8: 03 81 27 03 lw	a4, 0x38(sp)
0x800014fc: 03 c1 27 83 lw	a5, 0x3c(sp)
0x80001500: 04 01 28 03 lw	a6, 0x40(sp)
0x80001504: 04 41 28 83 lw	a7, 0x44(sp)
0x80001508: 04 81 29 03 lw	s2, 0x48(sp)
0x8000150c: 04 c1 29 83 lw	s3, 0x4c(sp)
0x80001510: 05 01 2a 03 lw	s4, 0x50(sp)
0x80001514: 05 41 2a 83 lw	s5, 0x54(sp)
0x80001518: 05 81 2b 03 lw	s6, 0x58(sp)
0x8000151c: 05 c1 2b 83 lw	s7, 0x5c(sp)
0x80001520: 06 01 2c 03 lw	s8, 0x60(sp)
0x80001524: 06 41 2c 83 lw	s9, 0x64(sp)
0x80001528: 06 81 2d 03 lw	s10, 0x68(sp)
0x8000152c: 06 c1 2d 83 lw	s11, 0x6c(sp)
0x80001530: 07 01 2e 03 lw	t3, 0x70(sp)
0x80001534: 07 41 2e 83 lw	t4, 0x74(sp)
0x80001538: 07 81 2f 03 lw	t5, 0x78(sp)
0x8000153c: 07 c1 2f 83 lw	t6, 0x7c(sp)
0x80001540: 08 c1 01 13 addi	sp, sp, 0x8c
0x80001544: 30 20 00 73 mret
0x80001400: 00 00 00 73 ecall
0x80001410: f7 41 01 13 addi	sp, sp, -0x8c
0x80001414: 00 11 22 23 sw	ra, 0x4(sp)
0x80001418: 00 31 26 23 sw	gp, 0xc(sp)
0x8000141c: 00 41 28 23 sw	tp, 0x10(sp)
0x80001420: 00 51 2a 23 sw	t0, 0x14(sp)
0x80001424: 00 61 2c 23 sw	t1, 0x18(sp)
0x80001428: 00 71 2e 23 sw	t2, 0x1c(sp)
0x8000142c: 02 81 20 23 sw	s0, 0x20(sp)
0x80001430: 02 91 22 23 sw	s1, 0x24(sp)
0x80001434: 02 a1 24 23 sw	a0, 0x28(sp)
0x80001438: 02 b1 26 23 sw	a1, 0x2c(sp)
0x8000143c: 02 c1 28 23 sw	a2, 0x30(sp)
0x80001440: 02 d1 2a 23 sw	a3, 0x34(sp)
0x80001444: 02 e1 2c 23 sw	a4, 0x38(sp)
0x80001448: 02 f1 2e 23 sw	a5, 0x3c(sp)
0x8000144c: 05 01 20 23 sw	a6, 0x40(sp)
0x80001450: 05 11 22 23 sw	a7, 0x44(sp)
0x80001454: 05 21 24 23 sw	s2, 0x48(sp)
0x80001458: 05 31 26 23 sw	s3, 0x4c(sp)
0x8000145c: 05 41 28 23 sw	s4, 0x50(sp)
0x80001460: 05 51 2a 23 sw	s5, 0x54(sp)
0x80001464: 05 61 2c 23 sw	s6, 0x58(sp)
0x80001468: 05 71 2e 23 sw	s7, 0x5c(sp)
0x8000146c: 07 81 20 23 sw	s8, 0x60(sp)
0x80001470: 07 91 22 23 sw	s9, 0x64(sp)
0x80001474: 07 a1 24 23 sw	s10, 0x68(sp)
0x80001478: 07 b1 26 23 sw	s11, 0x6c(sp)
0x8000147c: 07 c1 28 23 sw	t3, 0x70(sp)
0x80001480: 07 d1 2a 23 sw	t4, 0x74(sp)
0x80001484: 07 e1 2c 23 sw	t5, 0x78(sp)
0x80001488: 07 f1 2e 23 sw	t6, 0x7c(sp)
0x8000148c: 34 20 22 f3 csrrs	t0, mcause, zero
0x80001490: 30 00 23 73 csrrs	t1, mstatus, zero
0x80001494: 34 10 23 f3 csrrs	t2, mepc, zero
0x80001498: 08 51 20 23 sw	t0, 0x80(sp)
0x8000149c: 08 61 22 23 sw	t1, 0x84(sp)
0x800014a0: 08 71 24 23 sw	t2, 0x88(sp)
0x800014a4: 00 02 05 37 lui	a0, 0x20
0x800014a8: 00 a3 63 33 or	t1, t1, a0
0x800014ac: 30 03 10 73 csrrw	zero, mstatus, t1
0x800014b0: 00 01 05 13 addi	a0, sp, 0x0
0x800014b4: e8 5f f0 ef jal	ra, 0x80001338
0x80001338: 00 09 47 97 auipc	a5, 0x94
0x8000133c: c6 07 a7 83 lw	a5, -0x3a0(a5)
0x80001340: 00 05 05 93 addi	a1, a0, 0x0
0x80001344: 06 07 8a 63 beq	a5, zero, 0x800013b8
0x80001348: 08 05 26 03 lw	a2, 0x80(a0)
0x8000134c: fd 01 01 13 addi	sp, sp, -0x30
0x80001350: 02 11 26 23 sw	ra, 0x2c(sp)
0x80001354: 00 01 2a 23 sw	zero, 0x14(sp)
0x80001358: 00 01 2c 23 sw	zero, 0x18(sp)
0x8000135c: 00 01 2e 23 sw	zero, 0x1c(sp)
0x80001360: 00 b0 06 93 addi	a3, zero, 0xb
0x80001364: 00 40 07 13 addi	a4, zero, 0x4
0x80001368: 02 d6 0c 63 beq	a2, a3, 0x800013a0
0x800013a0: 04 45 26 03 lw	a2, 0x44(a0)
0x800013a4: ff f0 06 93 addi	a3, zero, -0x1
0x800013a8: 00 10 07 13 addi	a4, zero, 0x1
0x800013ac: fc d6 00 e3 beq	a2, a3, 0x8000136c
0x8000136c: 00 e1 20 23 sw	a4, 0x0(sp)
0x80001370: 01 41 27 03 lw	a4, 0x14(sp)
0x80001374: 00 01 05 13 addi	a0, sp, 0x0
0x80001378: 00 e1 22 23 sw	a4, 0x4(sp)
0x8000137c: 01 81 27 03 lw	a4, 0x18(sp)
0x80001380: 00 e1 24 23 sw	a4, 0x8(sp)
0x80001384: 01 c1 27 03 lw	a4, 0x1c(sp)
0x80001388: 00 e1 26 23 sw	a4, 0xc(sp)
0x8000138c: 00 07 80 e7 jalr	ra, 0x0(a5)
0x800001e0: 00 05 27 83 lw	a5, 0x0(a0)
0x800001e4: ff 01 01 13 addi	sp, sp, -0x10
0x800001e8: 00 81 24 23 sw	s0, 0x8(sp)
0x800001ec: 00 11 26 23 sw	ra, 0xc(sp)
0x800001f0: 00 50 07 13 addi	a4, zero, 0x5
0x800001f4: 00 05 84 13 addi	s0, a1, 0x0
0x800001f8: 04 e7 86 63 beq	a5, a4, 0x80000244
0x800001fc: 00 60 07 13 addi	a4, zero, 0x6
0x80000200: 02 e7 84 63 beq	a5, a4, 0x80000228
0x80000204: 00 10 07 13 addi	a4, zero, 0x1
0x80000208: 04 e7 9c 63 bne	a5, a4, 0x80000260
0x8000020c: 07 90 05 13 addi	a0, zero, 0x79
0x80000210: 59 90 00 ef jal	ra, 0x80000fa8
0x80000fa8: a0 00 07 b7 lui	a5, 0xa0000
0x80000fac: 3e a7 8c 23 sb	a0, 0x3f8(a5)
0x80000fb0: 00 00 80 67 jalr	zero, 0x0(ra)
0x80000214: 00 c1 20 83 lw	ra, 0xc(sp)
0x80000218: 00 04 05 13 addi	a0, s0, 0x0
0x8000021c: 00 81 24 03 lw	s0, 0x8(sp)
0x80000220: 01 01 01 13 addi	sp, sp, 0x10
0x80000224: 00 00 80 67 jalr	zero, 0x0(ra)
0x80001390: 02 05 06 63 beq	a0, zero, 0x800013bc
0x80001394: 02 c1 20 83 lw	ra, 0x2c(sp)
0x80001398: 03 01 01 13 addi	sp, sp, 0x30
0x8000139c: 00 00 80 67 jalr	zero, 0x0(ra)
0x800014b8: 08 41 23 03 lw	t1, 0x84(sp)
0x800014bc: 08 81 23 83 lw	t2, 0x88(sp)
0x800014c0: 30 03 10 73 csrrw	zero, mstatus, t1
0x800014c4: 34 13 90 73 csrrw	zero, mepc, t2
0x800014c8: 00 41 20 83 lw	ra, 0x4(sp)
0x800014cc: 00 c1 21 83 lw	gp, 0xc(sp)
0x800014d0: 01 01 22 03 lw	tp, 0x10(sp)
0x800014d4: 01 41 22 83 lw	t0, 0x14(sp)
0x800014d8: 01 81 23 03 lw	t1, 0x18(sp)
0x800014dc: 01 c1 23 83 lw	t2, 0x1c(sp)
0x800014e0: 02 01 24 03 lw	s0, 0x20(sp)
0x800014e4: 02 41 24 83 lw	s1, 0x24(sp)
0x800014e8: 02 81 25 03 lw	a0, 0x28(sp)
0x800014ec: 02 c1 25 83 lw	a1, 0x2c(sp)
0x800014f0: 03 01 26 03 lw	a2, 0x30(sp)
0x800014f4: 03 41 26 83 lw	a3, 0x34(sp)
0x800014f8: 03 81 27 03 lw	a4, 0x38(sp)
0x800014fc: 03 c1 27 83 lw	a5, 0x3c(sp)
0x80001500: 04 01 28 03 lw	a6, 0x40(sp)
0x80001504: 04 41 28 83 lw	a7, 0x44(sp)
0x80001508: 04 81 29 03 lw	s2, 0x48(sp)
0x8000150c: 04 c1 29 83 lw	s3, 0x4c(sp)
0x80001510: 05 01 2a 03 lw	s4, 0x50(sp)
0x80001514: 05 41 2a 83 lw	s5, 0x54(sp)
0x80001518: 05 81 2b 03 lw	s6, 0x58(sp)
0x8000151c: 05 c1 2b 83 lw	s7, 0x5c(sp)
0x80001520: 06 01 2c 03 lw	s8, 0x60(sp)
0x80001524: 06 41 2c 83 lw	s9, 0x64(sp)
0x80001528: 06 81 2d 03 lw	s10, 0x68(sp)
0x8000152c: 06 c1 2d 83 lw	s11, 0x6c(sp)
0x80001530: 07 01 2e 03 lw	t3, 0x70(sp)
0x80001534: 07 41 2e 83 lw	t4, 0x74(sp)
0x80001538: 07 81 2f 03 lw	t5, 0x78(sp)
0x8000153c: 07 c1 2f 83 lw	t6, 0x7c(sp)
0x80001540: 08 c1 01 13 addi	sp, sp, 0x8c
0x80001544: 30 20 00 73 mret
0x80001400: 00 00 00 73 ecall
0x80001410: f7 41 01 13 addi	sp, sp, -0x8c
0x80001414: 00 11 22 23 sw	ra, 0x4(sp)
0x80001418: 00 31 26 23 sw	gp, 0xc(sp)
0x8000141c: 00 41 28 23 sw	tp, 0x10(sp)
0x80001420: 00 51 2a 23 sw	t0, 0x14(sp)
0x80001424: 00 61 2c 23 sw	t1, 0x18(sp)
0x80001428: 00 71 2e 23 sw	t2, 0x1c(sp)
0x8000142c: 02 81 20 23 sw	s0, 0x20(sp)
0x80001430: 02 91 22 23 sw	s1, 0x24(sp)
0x80001434: 02 a1 24 23 sw	a0, 0x28(sp)
0x80001438: 02 b1 26 23 sw	a1, 0x2c(sp)
0x8000143c: 02 c1 28 23 sw	a2, 0x30(sp)
0x80001440: 02 d1 2a 23 sw	a3, 0x34(sp)
0x80001444: 02 e1 2c 23 sw	a4, 0x38(sp)
0x80001448: 02 f1 2e 23 sw	a5, 0x3c(sp)
0x8000144c: 05 01 20 23 sw	a6, 0x40(sp)
0x80001450: 05 11 22 23 sw	a7, 0x44(sp)
0x80001454: 05 21 24 23 sw	s2, 0x48(sp)
0x80001458: 05 31 26 23 sw	s3, 0x4c(sp)
0x8000145c: 05 41 28 23 sw	s4, 0x50(sp)
0x80001460: 05 51 2a 23 sw	s5, 0x54(sp)
0x80001464: 05 61 2c 23 sw	s6, 0x58(sp)
0x80001468: 05 71 2e 23 sw	s7, 0x5c(sp)
0x8000146c: 07 81 20 23 sw	s8, 0x60(sp)
0x80001470: 07 91 22 23 sw	s9, 0x64(sp)
0x80001474: 07 a1 24 23 sw	s10, 0x68(sp)
0x80001478: 07 b1 26 23 sw	s11, 0x6c(sp)
0x8000147c: 07 c1 28 23 sw	t3, 0x70(sp)
0x80001480: 07 d1 2a 23 sw	t4, 0x74(sp)
0x80001484: 07 e1 2c 23 sw	t5, 0x78(sp)
0x80001488: 07 f1 2e 23 sw	t6, 0x7c(sp)
0x8000148c: 34 20 22 f3 csrrs	t0, mcause, zero
0x80001490: 30 00 23 73 csrrs	t1, mstatus, zero
0x80001494: 34 10 23 f3 csrrs	t2, mepc, zero
0x80001498: 08 51 20 23 sw	t0, 0x80(sp)
0x8000149c: 08 61 22 23 sw	t1, 0x84(sp)
0x800014a0: 08 71 24 23 sw	t2, 0x88(sp)
0x800014a4: 00 02 05 37 lui	a0, 0x20
0x800014a8: 00 a3 63 33 or	t1, t1, a0
0x800014ac: 30 03 10 73 csrrw	zero, mstatus, t1
0x800014b0: 00 01 05 13 addi	a0, sp, 0x0
0x800014b4: e8 5f f0 ef jal	ra, 0x80001338
0x80001338: 00 09 47 97 auipc	a5, 0x94
0x8000133c: c6 07 a7 83 lw	a5, -0x3a0(a5)
0x80001340: 00 05 05 93 addi	a1, a0, 0x0
0x80001344: 06 07 8a 63 beq	a5, zero, 0x800013b8
0x80001348: 08 05 26 03 lw	a2, 0x80(a0)
0x8000134c: fd 01 01 13 addi	sp, sp, -0x30
0x80001350: 02 11 26 23 sw	ra, 0x2c(sp)
0x80001354: 00 01 2a 23 sw	zero, 0x14(sp)
0x80001358: 00 01 2c 23 sw	zero, 0x18(sp)
0x8000135c: 00 01 2e 23 sw	zero, 0x1c(sp)
0x80001360: 00 b0 06 93 addi	a3, zero, 0xb
0x80001364: 00 40 07 13 addi	a4, zero, 0x4
0x80001368: 02 d6 0c 63 beq	a2, a3, 0x800013a0
0x800013a0: 04 45 26 03 lw	a2, 0x44(a0)
0x800013a4: ff f0 06 93 addi	a3, zero, -0x1
0x800013a8: 00 10 07 13 addi	a4, zero, 0x1
0x800013ac: fc d6 00 e3 beq	a2, a3, 0x8000136c
0x8000136c: 00 e1 20 23 sw	a4, 0x0(sp)
0x80001370: 01 41 27 03 lw	a4, 0x14(sp)
0x80001374: 00 01 05 13 addi	a0, sp, 0x0
0x80001378: 00 e1 22 23 sw	a4, 0x4(sp)
0x8000137c: 01 81 27 03 lw	a4, 0x18(sp)
0x80001380: 00 e1 24 23 sw	a4, 0x8(sp)
0x80001384: 01 c1 27 03 lw	a4, 0x1c(sp)
0x80001388: 00 e1 26 23 sw	a4, 0xc(sp)
0x8000138c: 00 07 80 e7 jalr	ra, 0x0(a5)
0x800001e0: 00 05 27 83 lw	a5, 0x0(a0)
0x800001e4: ff 01 01 13 addi	sp, sp, -0x10
0x800001e8: 00 81 24 23 sw	s0, 0x8(sp)
0x800001ec: 00 11 26 23 sw	ra, 0xc(sp)
0x800001f0: 00 50 07 13 addi	a4, zero, 0x5
0x800001f4: 00 05 84 13 addi	s0, a1, 0x0
0x800001f8: 04 e7 86 63 beq	a5, a4, 0x80000244
0x800001fc: 00 60 07 13 addi	a4, zero, 0x6
0x80000200: 02 e7 84 63 beq	a5, a4, 0x80000228
0x80000204: 00 10 07 13 addi	a4, zero, 0x1
0x80000208: 04 e7 9c 63 bne	a5, a4, 0x80000260
0x8000020c: 07 90 05 13 addi	a0, zero, 0x79
0x80000210: 59 90 00 ef jal	ra, 0x80000fa8
0x80000fa8: a0 00 07 b7 lui	a5, 0xa0000
0x80000fac: 3e a7 8c 23 sb	a0, 0x3f8(a5)
0x80000fb0: 00 00 80 67 jalr	zero, 0x0(ra)
0x80000214: 00 c1 20 83 lw	ra, 0xc(sp)
0x80000218: 00 04 05 13 addi	a0, s0, 0x0
0x8000021c: 00 81 24 03 lw	s0, 0x8(sp)
0x80000220: 01 01 01 13 addi	sp, sp, 0x10
0x80000224: 00 00 80 67 jalr	zero, 0x0(ra)
0x80001390: 02 05 06 63 beq	a0, zero, 0x800013bc
0x80001394: 02 c1 20 83 lw	ra, 0x2c(sp)
0x80001398: 03 01 01 13 addi	sp, sp, 0x30
0x8000139c: 00 00 80 67 jalr	zero, 0x0(ra)
0x800014b8: 08 41 23 03 lw	t1, 0x84(sp)
0x800014bc: 08 81 23 83 lw	t2, 0x88(sp)
0x800014c0: 30 03 10 73 csrrw	zero, mstatus, t1
0x800014c4: 34 13 90 73 csrrw	zero, mepc, t2
0x800014c8: 00 41 20 83 lw	ra, 0x4(sp)
0x800014cc: 00 c1 21 83 lw	gp, 0xc(sp)
0x800014d0: 01 01 22 03 lw	tp, 0x10(sp)
0x800014d4: 01 41 22 83 lw	t0, 0x14(sp)
0x800014d8: 01 81 23 03 lw	t1, 0x18(sp)
0x800014dc: 01 c1 23 83 lw	t2, 0x1c(sp)
0x800014e0: 02 01 24 03 lw	s0, 0x20(sp)
0x800014e4: 02 41 24 83 lw	s1, 0x24(sp)
0x800014e8: 02 81 25 03 lw	a0, 0x28(sp)
0x800014ec: 02 c1 25 83 lw	a1, 0x2c(sp)
0x800014f0: 03 01 26 03 lw	a2, 0x30(sp)
0x800014f4: 03 41 26 83 lw	a3, 0x34(sp)
0x800014f8: 03 81 27 03 lw	a4, 0x38(sp)
0x800014fc: 03 c1 27 83 lw	a5, 0x3c(sp)
0x80001500: 04 01 28 03 lw	a6, 0x40(sp)
0x80001504: 04 41 28 83 lw	a7, 0x44(sp)
0x80001508: 04 81 29 03 lw	s2, 0x48(sp)
0x8000150c: 04 c1 29 83 lw	s3, 0x4c(sp)
0x80001510: 05 01 2a 03 lw	s4, 0x50(sp)
0x80001514: 05 41 2a 83 lw	s5, 0x54(sp)
0x80001518: 05 81 2b 03 lw	s6, 0x58(sp)
0x8000151c: 05 c1 2b 83 lw	s7, 0x5c(sp)
0x80001520: 06 01 2c 03 lw	s8, 0x60(sp)
0x80001524: 06 41 2c 83 lw	s9, 0x64(sp)
0x80001528: 06 81 2d 03 lw	s10, 0x68(sp)
0x8000152c: 06 c1 2d 83 lw	s11, 0x6c(sp)
0x80001530: 07 01 2e 03 lw	t3, 0x70(sp)
0x80001534: 07 41 2e 83 lw	t4, 0x74(sp)
0x80001538: 07 81 2f 03 lw	t5, 0x78(sp)
0x8000153c: 07 c1 2f 83 lw	t6, 0x7c(sp)
0x80001540: 08 c1 01 13 addi	sp, sp, 0x8c
0x80001544: 30 20 00 73 mret
0x80001400: 00 00 00 73 ecall
0x80001410: f7 41 01 13 addi	sp, sp, -0x8c
0x80001414: 00 11 22 23 sw	ra, 0x4(sp)
0x80001418: 00 31 26 23 sw	gp, 0xc(sp)
0x8000141c: 00 41 28 23 sw	tp, 0x10(sp)
0x80001420: 00 51 2a 23 sw	t0, 0x14(sp)
0x80001424: 00 61 2c 23 sw	t1, 0x18(sp)
0x80001428: 00 71 2e 23 sw	t2, 0x1c(sp)
0x8000142c: 02 81 20 23 sw	s0, 0x20(sp)
0x80001430: 02 91 22 23 sw	s1, 0x24(sp)
0x80001434: 02 a1 24 23 sw	a0, 0x28(sp)
0x80001438: 02 b1 26 23 sw	a1, 0x2c(sp)
0x8000143c: 02 c1 28 23 sw	a2, 0x30(sp)
0x80001440: 02 d1 2a 23 sw	a3, 0x34(sp)
0x80001444: 02 e1 2c 23 sw	a4, 0x38(sp)
0x80001448: 02 f1 2e 23 sw	a5, 0x3c(sp)
0x8000144c: 05 01 20 23 sw	a6, 0x40(sp)
0x80001450: 05 11 22 23 sw	a7, 0x44(sp)
0x80001454: 05 21 24 23 sw	s2, 0x48(sp)
0x80001458: 05 31 26 23 sw	s3, 0x4c(sp)
0x8000145c: 05 41 28 23 sw	s4, 0x50(sp)
0x80001460: 05 51 2a 23 sw	s5, 0x54(sp)
0x80001464: 05 61 2c 23 sw	s6, 0x58(sp)
0x80001468: 05 71 2e 23 sw	s7, 0x5c(sp)
0x8000146c: 07 81 20 23 sw	s8, 0x60(sp)
0x80001470: 07 91 22 23 sw	s9, 0x64(sp)
0x80001474: 07 a1 24 23 sw	s10, 0x68(sp)
0x80001478: 07 b1 26 23 sw	s11, 0x6c(sp)
0x8000147c: 07 c1 28 23 sw	t3, 0x70(sp)
0x80001480: 07 d1 2a 23 sw	t4, 0x74(sp)
0x80001484: 07 e1 2c 23 sw	t5, 0x78(sp)
0x80001488: 07 f1 2e 23 sw	t6, 0x7c(sp)
0x8000148c: 34 20 22 f3 csrrs	t0, mcause, zero
0x80001490: 30 00 23 73 csrrs	t1, mstatus, zero
0x80001494: 34 10 23 f3 csrrs	t2, mepc, zero
0x80001498: 08 51 20 23 sw	t0, 0x80(sp)
0x8000149c: 08 61 22 23 sw	t1, 0x84(sp)
0x800014a0: 08 71 24 23 sw	t2, 0x88(sp)
0x800014a4: 00 02 05 37 lui	a0, 0x20
0x800014a8: 00 a3 63 33 or	t1, t1, a0
0x800014ac: 30 03 10 73 csrrw	zero, mstatus, t1
0x800014b0: 00 01 05 13 addi	a0, sp, 0x0
0x800014b4: e8 5f f0 ef jal	ra, 0x80001338
0x80001338: 00 09 47 97 auipc	a5, 0x94
0x8000133c: c6 07 a7 83 lw	a5, -0x3a0(a5)
0x80001340: 00 05 05 93 addi	a1, a0, 0x0
0x80001344: 06 07 8a 63 beq	a5, zero, 0x800013b8
0x80001348: 08 05 26 03 lw	a2, 0x80(a0)
0x8000134c: fd 01 01 13 addi	sp, sp, -0x30
0x80001350: 02 11 26 23 sw	ra, 0x2c(sp)
0x80001354: 00 01 2a 23 sw	zero, 0x14(sp)
0x80001358: 00 01 2c 23 sw	zero, 0x18(sp)
0x8000135c: 00 01 2e 23 sw	zero, 0x1c(sp)
0x80001360: 00 b0 06 93 addi	a3, zero, 0xb
0x80001364: 00 40 07 13 addi	a4, zero, 0x4
0x80001368: 02 d6 0c 63 beq	a2, a3, 0x800013a0
0x800013a0: 04 45 26 03 lw	a2, 0x44(a0)
0x800013a4: ff f0 06 93 addi	a3, zero, -0x1
0x800013a8: 00 10 07 13 addi	a4, zero, 0x1
0x800013ac: fc d6 00 e3 beq	a2, a3, 0x8000136c
0x8000136c: 00 e1 20 23 sw	a4, 0x0(sp)
0x80001370: 01 41 27 03 lw	a4, 0x14(sp)
0x80001374: 00 01 05 13 addi	a0, sp, 0x0
0x80001378: 00 e1 22 23 sw	a4, 0x4(sp)
0x8000137c: 01 81 27 03 lw	a4, 0x18(sp)
0x80001380: 00 e1 24 23 sw	a4, 0x8(sp)
0x80001384: 01 c1 27 03 lw	a4, 0x1c(sp)
0x80001388: 00 e1 26 23 sw	a4, 0xc(sp)
0x8000138c: 00 07 80 e7 jalr	ra, 0x0(a5)
0x800001e0: 00 05 27 83 lw	a5, 0x0(a0)
0x800001e4: ff 01 01 13 addi	sp, sp, -0x10
0x800001e8: 00 81 24 23 sw	s0, 0x8(sp)
0x800001ec: 00 11 26 23 sw	ra, 0xc(sp)
0x800001f0: 00 50 07 13 addi	a4, zero, 0x5
0x800001f4: 00 05 84 13 addi	s0, a1, 0x0
0x800001f8: 04 e7 86 63 beq	a5, a4, 0x80000244
0x800001fc: 00 60 07 13 addi	a4, zero, 0x6
0x80000200: 02 e7 84 63 beq	a5, a4, 0x80000228
0x80000204: 00 10 07 13 addi	a4, zero, 0x1
0x80000208: 04 e7 9c 63 bne	a5, a4, 0x80000260
0x8000020c: 07 90 05 13 addi	a0, zero, 0x79
0x80000210: 59 90 00 ef jal	ra, 0x80000fa8
0x80000fa8: a0 00 07 b7 lui	a5, 0xa0000
0x80000fac: 3e a7 8c 23 sb	a0, 0x3f8(a5)
0x80000fb0: 00 00 80 67 jalr	zero, 0x0(ra)
0x80000214: 00 c1 20 83 lw	ra, 0xc(sp)
0x80000218: 00 04 05 13 addi	a0, s0, 0x0
0x8000021c: 00 81 24 03 lw	s0, 0x8(sp)
0x80000220: 01 01 01 13 addi	sp, sp, 0x10
0x80000224: 00 00 80 67 jalr	zero, 0x0(ra)
0x80001390: 02 05 06 63 beq	a0, zero, 0x800013bc
0x80001394: 02 c1 20 83 lw	ra, 0x2c(sp)
0x80001398: 03 01 01 13 addi	sp, sp, 0x30
0x8000139c: 00 00 80 67 jalr	zero, 0x0(ra)
0x800014b8: 08 41 23 03 lw	t1, 0x84(sp)
0x800014bc: 08 81 23 83 lw	t2, 0x88(sp)
0x800014c0: 30 03 10 73 csrrw	zero, mstatus, t1
0x800014c4: 34 13 90 73 csrrw	zero, mepc, t2
0x800014c8: 00 41 20 83 lw	ra, 0x4(sp)
0x800014cc: 00 c1 21 83 lw	gp, 0xc(sp)
0x800014d0: 01 01 22 03 lw	tp, 0x10(sp)
0x800014d4: 01 41 22 83 lw	t0, 0x14(sp)
0x800014d8: 01 81 23 03 lw	t1, 0x18(sp)
0x800014dc: 01 c1 23 83 lw	t2, 0x1c(sp)
0x800014e0: 02 01 24 03 lw	s0, 0x20(sp)
0x800014e4: 02 41 24 83 lw	s1, 0x24(sp)
0x800014e8: 02 81 25 03 lw	a0, 0x28(sp)
0x800014ec: 02 c1 25 83 lw	a1, 0x2c(sp)
0x800014f0: 03 01 26 03 lw	a2, 0x30(sp)
0x800014f4: 03 41 26 83 lw	a3, 0x34(sp)
0x800014f8: 03 81 27 03 lw	a4, 0x38(sp)
0x800014fc: 03 c1 27 83 lw	a5, 0x3c(sp)
0x80001500: 04 01 28 03 lw	a6, 0x40(sp)
0x80001504: 04 41 28 83 lw	a7, 0x44(sp)
0x80001508: 04 81 29 03 lw	s2, 0x48(sp)
0x8000150c: 04 c1 29 83 lw	s3, 0x4c(sp)
0x80001510: 05 01 2a 03 lw	s4, 0x50(sp)
0x80001514: 05 41 2a 83 lw	s5, 0x54(sp)
0x80001518: 05 81 2b 03 lw	s6, 0x58(sp)
0x8000151c: 05 c1 2b 83 lw	s7, 0x5c(sp)
0x80001520: 06 01 2c 03 lw	s8, 0x60(sp)
0x80001524: 06 41 2c 83 lw	s9, 0x64(sp)
0x80001528: 06 81 2d 03 lw	s10, 0x68(sp)
0x8000152c: 06 c1 2d 83 lw	s11, 0x6c(sp)
0x80001530: 07 01 2e 03 lw	t3, 0x70(sp)
0x80001534: 07 41 2e 83 lw	t4, 0x74(sp)
0x80001538: 07 81 2f 03 lw	t5, 0x78(sp)
0x8000153c: 07 c1 2f 83 lw	t6, 0x7c(sp)
0x80001540: 08 c1 01 13 addi	sp, sp, 0x8c
0x80001544: 30 20 00 73 mret
0x80001400: 00 00 00 73 ecall
0x80001410: f7 41 01 13 addi	sp, sp, -0x8c
0x80001414: 00 11 22 23 sw	ra, 0x4(sp)
0x80001418: 00 31 26 23 sw	gp, 0xc(sp)
0x8000141c: 00 41 28 23 sw	tp, 0x10(sp)
0x80001420: 00 51 2a 23 sw	t0, 0x14(sp)
0x80001424: 00 61 2c 23 sw	t1, 0x18(sp)
0x80001428: 00 71 2e 23 sw	t2, 0x1c(sp)
0x8000142c: 02 81 20 23 sw	s0, 0x20(sp)
0x80001430: 02 91 22 23 sw	s1, 0x24(sp)
0x80001434: 02 a1 24 23 sw	a0, 0x28(sp)
0x80001438: 02 b1 26 23 sw	a1, 0x2c(sp)
0x8000143c: 02 c1 28 23 sw	a2, 0x30(sp)
0x80001440: 02 d1 2a 23 sw	a3, 0x34(sp)
0x80001444: 02 e1 2c 23 sw	a4, 0x38(sp)
0x80001448: 02 f1 2e 23 sw	a5, 0x3c(sp)
0x8000144c: 05 01 20 23 sw	a6, 0x40(sp)
0x80001450: 05 11 22 23 sw	a7, 0x44(sp)
0x80001454: 05 21 24 23 sw	s2, 0x48(sp)
0x80001458: 05 31 26 23 sw	s3, 0x4c(sp)
0x8000145c: 05 41 28 23 sw	s4, 0x50(sp)
0x80001460: 05 51 2a 23 sw	s5, 0x54(sp)
0x80001464: 05 61 2c 23 sw	s6, 0x58(sp)
0x80001468: 05 71 2e 23 sw	s7, 0x5c(sp)
0x8000146c: 07 81 20 23 sw	s8, 0x60(sp)
0x80001470: 07 91 22 23 sw	s9, 0x64(sp)
0x80001474: 07 a1 24 23 sw	s10, 0x68(sp)
0x80001478: 07 b1 26 23 sw	s11, 0x6c(sp)
0x8000147c: 07 c1 28 23 sw	t3, 0x70(sp)
0x80001480: 07 d1 2a 23 sw	t4, 0x74(sp)
0x80001484: 07 e1 2c 23 sw	t5, 0x78(sp)
0x80001488: 07 f1 2e 23 sw	t6, 0x7c(sp)
0x8000148c: 34 20 22 f3 csrrs	t0, mcause, zero
0x80001490: 30 00 23 73 csrrs	t1, mstatus, zero
0x80001494: 34 10 23 f3 csrrs	t2, mepc, zero
0x80001498: 08 51 20 23 sw	t0, 0x80(sp)
0x8000149c: 08 61 22 23 sw	t1, 0x84(sp)
0x800014a0: 08 71 24 23 sw	t2, 0x88(sp)
0x800014a4: 00 02 05 37 lui	a0, 0x20
0x800014a8: 00 a3 63 33 or	t1, t1, a0
0x800014ac: 30 03 10 73 csrrw	zero, mstatus, t1
0x800014b0: 00 01 05 13 addi	a0, sp, 0x0
0x800014b4: e8 5f f0 ef jal	ra, 0x80001338
0x80001338: 00 09 47 97 auipc	a5, 0x94
0x8000133c: c6 07 a7 83 lw	a5, -0x3a0(a5)
0x80001340: 00 05 05 93 addi	a1, a0, 0x0
0x80001344: 06 07 8a 63 beq	a5, zero, 0x800013b8
0x80001348: 08 05 26 03 lw	a2, 0x80(a0)
0x8000134c: fd 01 01 13 addi	sp, sp, -0x30
0x80001350: 02 11 26 23 sw	ra, 0x2c(sp)
0x80001354: 00 01 2a 23 sw	zero, 0x14(sp)
0x80001358: 00 01 2c 23 sw	zero, 0x18(sp)
0x8000135c: 00 01 2e 23 sw	zero, 0x1c(sp)
0x80001360: 00 b0 06 93 addi	a3, zero, 0xb
0x80001364: 00 40 07 13 addi	a4, zero, 0x4
0x80001368: 02 d6 0c 63 beq	a2, a3, 0x800013a0
0x800013a0: 04 45 26 03 lw	a2, 0x44(a0)
0x800013a4: ff f0 06 93 addi	a3, zero, -0x1
0x800013a8: 00 10 07 13 addi	a4, zero, 0x1
0x800013ac: fc d6 00 e3 beq	a2, a3, 0x8000136c
0x8000136c: 00 e1 20 23 sw	a4, 0x0(sp)
0x80001370: 01 41 27 03 lw	a4, 0x14(sp)
0x80001374: 00 01 05 13 addi	a0, sp, 0x0
0x80001378: 00 e1 22 23 sw	a4, 0x4(sp)
0x8000137c: 01 81 27 03 lw	a4, 0x18(sp)
0x80001380: 00 e1 24 23 sw	a4, 0x8(sp)
0x80001384: 01 c1 27 03 lw	a4, 0x1c(sp)
0x80001388: 00 e1 26 23 sw	a4, 0xc(sp)
0x8000138c: 00 07 80 e7 jalr	ra, 0x0(a5)
0x800001e0: 00 05 27 83 lw	a5, 0x0(a0)
0x800001e4: ff 01 01 13 addi	sp, sp, -0x10
0x800001e8: 00 81 24 23 sw	s0, 0x8(sp)
0x800001ec: 00 11 26 23 sw	ra, 0xc(sp)
0x800001f0: 00 50 07 13 addi	a4, zero, 0x5
0x800001f4: 00 05 84 13 addi	s0, a1, 0x0
0x800001f8: 04 e7 86 63 beq	a5, a4, 0x80000244
0x800001fc: 00 60 07 13 addi	a4, zero, 0x6
0x80000200: 02 e7 84 63 beq	a5, a4, 0x80000228
0x80000204: 00 10 07 13 addi	a4, zero, 0x1
0x80000208: 04 e7 9c 63 bne	a5, a4, 0x80000260
0x8000020c: 07 90 05 13 addi	a0, zero, 0x79
0x80000210: 59 90 00 ef jal	ra, 0x80000fa8
0x80000fa8: a0 00 07 b7 lui	a5, 0xa0000
0x80000fac: 3e a7 8c 23 sb	a0, 0x3f8(a5)
0x80000fb0: 00 00 80 67 jalr	zero, 0x0(ra)
0x80000214: 00 c1 20 83 lw	ra, 0xc(sp)
0x80000218: 00 04 05 13 addi	a0, s0, 0x0
0x8000021c: 00 81 24 03 lw	s0, 0x8(sp)
0x80000220: 01 01 01 13 addi	sp, sp, 0x10
0x80000224: 00 00 80 67 jalr	zero, 0x0(ra)
0x80001390: 02 05 06 63 beq	a0, zero, 0x800013bc
0x80001394: 02 c1 20 83 lw	ra, 0x2c(sp)
0x80001398: 03 01 01 13 addi	sp, sp, 0x30
0x8000139c: 00 00 80 67 jalr	zero, 0x0(ra)
0x800014b8: 08 41 23 03 lw	t1, 0x84(sp)
0x800014bc: 08 81 23 83 lw	t2, 0x88(sp)
0x800014c0: 30 03 10 73 csrrw	zero, mstatus, t1
0x800014c4: 34 13 90 73 csrrw	zero, mepc, t2
0x800014c8: 00 41 20 83 lw	ra, 0x4(sp)
0x800014cc: 00 c1 21 83 lw	gp, 0xc(sp)
0x800014d0: 01 01 22 03 lw	tp, 0x10(sp)
0x800014d4: 01 41 22 83 lw	t0, 0x14(sp)
0x800014d8: 01 81 23 03 lw	t1, 0x18(sp)
0x800014dc: 01 c1 23 83 lw	t2, 0x1c(sp)
0x800014e0: 02 01 24 03 lw	s0, 0x20(sp)
0x800014e4: 02 41 24 83 lw	s1, 0x24(sp)
0x800014e8: 02 81 25 03 lw	a0, 0x28(sp)
0x800014ec: 02 c1 25 83 lw	a1, 0x2c(sp)
0x800014f0: 03 01 26 03 lw	a2, 0x30(sp)
0x800014f4: 03 41 26 83 lw	a3, 0x34(sp)
0x800014f8: 03 81 27 03 lw	a4, 0x38(sp)
0x800014fc: 03 c1 27 83 lw	a5, 0x3c(sp)
0x80001500: 04 01 28 03 lw	a6, 0x40(sp)
0x80001504: 04 41 28 83 lw	a7, 0x44(sp)
0x80001508: 04 81 29 03 lw	s2, 0x48(sp)
0x8000150c: 04 c1 29 83 lw	s3, 0x4c(sp)
0x80001510: 05 01 2a 03 lw	s4, 0x50(sp)
0x80001514: 05 41 2a 83 lw	s5, 0x54(sp)
0x80001518: 05 81 2b 03 lw	s6, 0x58(sp)
0x8000151c: 05 c1 2b 83 lw	s7, 0x5c(sp)
0x80001520: 06 01 2c 03 lw	s8, 0x60(sp)
0x80001524: 06 41 2c 83 lw	s9, 0x64(sp)
0x80001528: 06 81 2d 03 lw	s10, 0x68(sp)
0x8000152c: 06 c1 2d 83 lw	s11, 0x6c(sp)
0x80001530: 07 01 2e 03 lw	t3, 0x70(sp)
0x80001534: 07 41 2e 83 lw	t4, 0x74(sp)
0x80001538: 07 81 2f 03 lw	t5, 0x78(sp)
0x8000153c: 07 c1 2f 83 lw	t6, 0x7c(sp)
0x80001540: 08 c1 01 13 addi	sp, sp, 0x8c
0x80001544: 30 20 00 73 mret
0x80001400: 00 00 00 73 ecall
0x80001410: f7 41 01 13 addi	sp, sp, -0x8c
0x80001414: 00 11 22 23 sw	ra, 0x4(sp)
0x80001418: 00 31 26 23 sw	gp, 0xc(sp)
0x8000141c: 00 41 28 23 sw	tp, 0x10(sp)
0x80001420: 00 51 2a 23 sw	t0, 0x14(sp)
0x80001424: 00 61 2c 23 sw	t1, 0x18(sp)
0x80001428: 00 71 2e 23 sw	t2, 0x1c(sp)
0x8000142c: 02 81 20 23 sw	s0, 0x20(sp)
0x80001430: 02 91 22 23 sw	s1, 0x24(sp)
0x80001434: 02 a1 24 23 sw	a0, 0x28(sp)
0x80001438: 02 b1 26 23 sw	a1, 0x2c(sp)
0x8000143c: 02 c1 28 23 sw	a2, 0x30(sp)
0x80001440: 02 d1 2a 23 sw	a3, 0x34(sp)
0x80001444: 02 e1 2c 23 sw	a4, 0x38(sp)
0x80001448: 02 f1 2e 23 sw	a5, 0x3c(sp)
0x8000144c: 05 01 20 23 sw	a6, 0x40(sp)
0x80001450: 05 11 22 23 sw	a7, 0x44(sp)
0x80001454: 05 21 24 23 sw	s2, 0x48(sp)
0x80001458: 05 31 26 23 sw	s3, 0x4c(sp)
0x8000145c: 05 41 28 23 sw	s4, 0x50(sp)
0x80001460: 05 51 2a 23 sw	s5, 0x54(sp)
0x80001464: 05 61 2c 23 sw	s6, 0x58(sp)
0x80001468: 05 71 2e 23 sw	s7, 0x5c(sp)
0x8000146c: 07 81 20 23 sw	s8, 0x60(sp)
0x80001470: 07 91 22 23 sw	s9, 0x64(sp)
0x80001474: 07 a1 24 23 sw	s10, 0x68(sp)
0x80001478: 07 b1 26 23 sw	s11, 0x6c(sp)
0x8000147c: 07 c1 28 23 sw	t3, 0x70(sp)
0x80001480: 07 d1 2a 23 sw	t4, 0x74(sp)
0x80001484: 07 e1 2c 23 sw	t5, 0x78(sp)
0x80001488: 07 f1 2e 23 sw	t6, 0x7c(sp)
0x8000148c: 34 20 22 f3 csrrs	t0, mcause, zero
0x80001490: 30 00 23 73 csrrs	t1, mstatus, zero
0x80001494: 34 10 23 f3 csrrs	t2, mepc, zero
0x80001498: 08 51 20 23 sw	t0, 0x80(sp)
0x8000149c: 08 61 22 23 sw	t1, 0x84(sp)
0x800014a0: 08 71 24 23 sw	t2, 0x88(sp)
0x800014a4: 00 02 05 37 lui	a0, 0x20
0x800014a8: 00 a3 63 33 or	t1, t1, a0
0x800014ac: 30 03 10 73 csrrw	zero, mstatus, t1
0x800014b0: 00 01 05 13 addi	a0, sp, 0x0
0x800014b4: e8 5f f0 ef jal	ra, 0x80001338
0x80001338: 00 09 47 97 auipc	a5, 0x94
0x8000133c: c6 07 a7 83 lw	a5, -0x3a0(a5)
0x80001340: 00 05 05 93 addi	a1, a0, 0x0
0x80001344: 06 07 8a 63 beq	a5, zero, 0x800013b8
0x80001348: 08 05 26 03 lw	a2, 0x80(a0)
0x8000134c: fd 01 01 13 addi	sp, sp, -0x30
0x80001350: 02 11 26 23 sw	ra, 0x2c(sp)
0x80001354: 00 01 2a 23 sw	zero, 0x14(sp)
0x80001358: 00 01 2c 23 sw	zero, 0x18(sp)
0x8000135c: 00 01 2e 23 sw	zero, 0x1c(sp)
0x80001360: 00 b0 06 93 addi	a3, zero, 0xb
0x80001364: 00 40 07 13 addi	a4, zero, 0x4
0x80001368: 02 d6 0c 63 beq	a2, a3, 0x800013a0
0x800013a0: 04 45 26 03 lw	a2, 0x44(a0)
0x800013a4: ff f0 06 93 addi	a3, zero, -0x1
0x800013a8: 00 10 07 13 addi	a4, zero, 0x1
0x800013ac: fc d6 00 e3 beq	a2, a3, 0x8000136c
0x8000136c: 00 e1 20 23 sw	a4, 0x0(sp)
0x80001370: 01 41 27 03 lw	a4, 0x14(sp)
0x80001374: 00 01 05 13 addi	a0, sp, 0x0
0x80001378: 00 e1 22 23 sw	a4, 0x4(sp)
0x8000137c: 01 81 27 03 lw	a4, 0x18(sp)
0x80001380: 00 e1 24 23 sw	a4, 0x8(sp)
0x80001384: 01 c1 27 03 lw	a4, 0x1c(sp)
0x80001388: 00 e1 26 23 sw	a4, 0xc(sp)
0x8000138c: 00 07 80 e7 jalr	ra, 0x0(a5)
0x800001e0: 00 05 27 83 lw	a5, 0x0(a0)
0x800001e4: ff 01 01 13 addi	sp, sp, -0x10
0x800001e8: 00 81 24 23 sw	s0, 0x8(sp)
0x800001ec: 00 11 26 23 sw	ra, 0xc(sp)
0x800001f0: 00 50 07 13 addi	a4, zero, 0x5
0x800001f4: 00 05 84 13 addi	s0, a1, 0x0
0x800001f8: 04 e7 86 63 beq	a5, a4, 0x80000244
0x800001fc: 00 60 07 13 addi	a4, zero, 0x6
0x80000200: 02 e7 84 63 beq	a5, a4, 0x80000228
0x80000204: 00 10 07 13 addi	a4, zero, 0x1
0x80000208: 04 e7 9c 63 bne	a5, a4, 0x80000260
0x8000020c: 07 90 05 13 addi	a0, zero, 0x79
0x80000210: 59 90 00 ef jal	ra, 0x80000fa8
0x80000fa8: a0 00 07 b7 lui	a5, 0xa0000
0x80000fac: 3e a7 8c 23 sb	a0, 0x3f8(a5)
0x80000fb0: 00 00 80 67 jalr	zero, 0x0(ra)
0x80000214: 00 c1 20 83 lw	ra, 0xc(sp)
0x80000218: 00 04 05 13 addi	a0, s0, 0x0
0x8000021c: 00 81 24 03 lw	s0, 0x8(sp)
0x80000220: 01 01 01 13 addi	sp, sp, 0x10
0x80000224: 00 00 80 67 jalr	zero, 0x0(ra)
0x80001390: 02 05 06 63 beq	a0, zero, 0x800013bc
0x80001394: 02 c1 20 83 lw	ra, 0x2c(sp)
0x80001398: 03 01 01 13 addi	sp, sp, 0x30
0x8000139c: 00 00 80 67 jalr	zero, 0x0(ra)
0x800014b8: 08 41 23 03 lw	t1, 0x84(sp)
0x800014bc: 08 81 23 83 lw	t2, 0x88(sp)
0x800014c0: 30 03 10 73 csrrw	zero, mstatus, t1
0x800014c4: 34 13 90 73 csrrw	zero, mepc, t2
0x800014c8: 00 41 20 83 lw	ra, 0x4(sp)
0x800014cc: 00 c1 21 83 lw	gp, 0xc(sp)
0x800014d0: 01 01 22 03 lw	tp, 0x10(sp)
0x800014d4: 01 41 22 83 lw	t0, 0x14(sp)
0x800014d8: 01 81 23 03 lw	t1, 0x18(sp)
0x800014dc: 01 c1 23 83 lw	t2, 0x1c(sp)
0x800014e0: 02 01 24 03 lw	s0, 0x20(sp)
0x800014e4: 02 41 24 83 lw	s1, 0x24(sp)
0x800014e8: 02 81 25 03 lw	a0, 0x28(sp)
0x800014ec: 02 c1 25 83 lw	a1, 0x2c(sp)
0x800014f0: 03 01 26 03 lw	a2, 0x30(sp)
0x800014f4: 03 41 26 83 lw	a3, 0x34(sp)
0x800014f8: 03 81 27 03 lw	a4, 0x38(sp)
0x800014fc: 03 c1 27 83 lw	a5, 0x3c(sp)
0x80001500: 04 01 28 03 lw	a6, 0x40(sp)
0x80001504: 04 41 28 83 lw	a7, 0x44(sp)
0x80001508: 04 81 29 03 lw	s2, 0x48(sp)
0x8000150c: 04 c1 29 83 lw	s3, 0x4c(sp)
0x80001510: 05 01 2a 03 lw	s4, 0x50(sp)
0x80001514: 05 41 2a 83 lw	s5, 0x54(sp)
0x80001518: 05 81 2b 03 lw	s6, 0x58(sp)
0x8000151c: 05 c1 2b 83 lw	s7, 0x5c(sp)
0x80001520: 06 01 2c 03 lw	s8, 0x60(sp)
0x80001524: 06 41 2c 83 lw	s9, 0x64(sp)
0x80001528: 06 81 2d 03 lw	s10, 0x68(sp)
0x8000152c: 06 c1 2d 83 lw	s11, 0x6c(sp)
0x80001530: 07 01 2e 03 lw	t3, 0x70(sp)
0x80001534: 07 41 2e 83 lw	t4, 0x74(sp)
0x80001538: 07 81 2f 03 lw	t5, 0x78(sp)
0x8000153c: 07 c1 2f 83 lw	t6, 0x7c(sp)
0x80001540: 08 c1 01 13 addi	sp, sp, 0x8c
0x80001544: 30 20 00 73 mret
0x80001400: 00 00 00 73 ecall
0x80001410: f7 41 01 13 addi	sp, sp, -0x8c
0x80001414: 00 11 22 23 sw	ra, 0x4(sp)
0x80001418: 00 31 26 23 sw	gp, 0xc(sp)
0x8000141c: 00 41 28 23 sw	tp, 0x10(sp)
0x80001420: 00 51 2a 23 sw	t0, 0x14(sp)
0x80001424: 00 61 2c 23 sw	t1, 0x18(sp)
0x80001428: 00 71 2e 23 sw	t2, 0x1c(sp)
0x8000142c: 02 81 20 23 sw	s0, 0x20(sp)
0x80001430: 02 91 22 23 sw	s1, 0x24(sp)
0x80001434: 02 a1 24 23 sw	a0, 0x28(sp)
0x80001438: 02 b1 26 23 sw	a1, 0x2c(sp)
0x8000143c: 02 c1 28 23 sw	a2, 0x30(sp)
0x80001440: 02 d1 2a 23 sw	a3, 0x34(sp)
0x80001444: 02 e1 2c 23 sw	a4, 0x38(sp)
0x80001448: 02 f1 2e 23 sw	a5, 0x3c(sp)
0x8000144c: 05 01 20 23 sw	a6, 0x40(sp)
0x80001450: 05 11 22 23 sw	a7, 0x44(sp)
0x80001454: 05 21 24 23 sw	s2, 0x48(sp)
0x80001458: 05 31 26 23 sw	s3, 0x4c(sp)
0x8000145c: 05 41 28 23 sw	s4, 0x50(sp)
0x80001460: 05 51 2a 23 sw	s5, 0x54(sp)
0x80001464: 05 61 2c 23 sw	s6, 0x58(sp)
0x80001468: 05 71 2e 23 sw	s7, 0x5c(sp)
0x8000146c: 07 81 20 23 sw	s8, 0x60(sp)
0x80001470: 07 91 22 23 sw	s9, 0x64(sp)
0x80001474: 07 a1 24 23 sw	s10, 0x68(sp)
0x80001478: 07 b1 26 23 sw	s11, 0x6c(sp)
0x8000147c: 07 c1 28 23 sw	t3, 0x70(sp)
0x80001480: 07 d1 2a 23 sw	t4, 0x74(sp)
0x80001484: 07 e1 2c 23 sw	t5, 0x78(sp)
0x80001488: 07 f1 2e 23 sw	t6, 0x7c(sp)
0x8000148c: 34 20 22 f3 csrrs	t0, mcause, zero
0x80001490: 30 00 23 73 csrrs	t1, mstatus, zero
0x80001494: 34 10 23 f3 csrrs	t2, mepc, zero
0x80001498: 08 51 20 23 sw	t0, 0x80(sp)
0x8000149c: 08 61 22 23 sw	t1, 0x84(sp)
0x800014a0: 08 71 24 23 sw	t2, 0x88(sp)
0x800014a4: 00 02 05 37 lui	a0, 0x20
0x800014a8: 00 a3 63 33 or	t1, t1, a0
0x800014ac: 30 03 10 73 csrrw	zero, mstatus, t1
0x800014b0: 00 01 05 13 addi	a0, sp, 0x0
0x800014b4: e8 5f f0 ef jal	ra, 0x80001338
0x80001338: 00 09 47 97 auipc	a5, 0x94
0x8000133c: c6 07 a7 83 lw	a5, -0x3a0(a5)
0x80001340: 00 05 05 93 addi	a1, a0, 0x0
0x80001344: 06 07 8a 63 beq	a5, zero, 0x800013b8
0x80001348: 08 05 26 03 lw	a2, 0x80(a0)
0x8000134c: fd 01 01 13 addi	sp, sp, -0x30
0x80001350: 02 11 26 23 sw	ra, 0x2c(sp)
0x80001354: 00 01 2a 23 sw	zero, 0x14(sp)
0x80001358: 00 01 2c 23 sw	zero, 0x18(sp)
0x8000135c: 00 01 2e 23 sw	zero, 0x1c(sp)
0x80001360: 00 b0 06 93 addi	a3, zero, 0xb
0x80001364: 00 40 07 13 addi	a4, zero, 0x4
0x80001368: 02 d6 0c 63 beq	a2, a3, 0x800013a0
0x800013a0: 04 45 26 03 lw	a2, 0x44(a0)
0x800013a4: ff f0 06 93 addi	a3, zero, -0x1
0x800013a8: 00 10 07 13 addi	a4, zero, 0x1
0x800013ac: fc d6 00 e3 beq	a2, a3, 0x8000136c
0x8000136c: 00 e1 20 23 sw	a4, 0x0(sp)
0x80001370: 01 41 27 03 lw	a4, 0x14(sp)
0x80001374: 00 01 05 13 addi	a0, sp, 0x0
0x80001378: 00 e1 22 23 sw	a4, 0x4(sp)
0x8000137c: 01 81 27 03 lw	a4, 0x18(sp)
0x80001380: 00 e1 24 23 sw	a4, 0x8(sp)
0x80001384: 01 c1 27 03 lw	a4, 0x1c(sp)
0x80001388: 00 e1 26 23 sw	a4, 0xc(sp)
0x8000138c: 00 07 80 e7 jalr	ra, 0x0(a5)
0x800001e0: 00 05 27 83 lw	a5, 0x0(a0)
0x800001e4: ff 01 01 13 addi	sp, sp, -0x10
0x800001e8: 00 81 24 23 sw	s0, 0x8(sp)
0x800001ec: 00 11 26 23 sw	ra, 0xc(sp)
0x800001f0: 00 50 07 13 addi	a4, zero, 0x5
0x800001f4: 00 05 84 13 addi	s0, a1, 0x0
0x800001f8: 04 e7 86 63 beq	a5, a4, 0x80000244
0x800001fc: 00 60 07 13 addi	a4, zero, 0x6
0x80000200: 02 e7 84 63 beq	a5, a4, 0x80000228
0x80000204: 00 10 07 13 addi	a4, zero, 0x1
0x80000208: 04 e7 9c 63 bne	a5, a4, 0x80000260
0x8000020c: 07 90 05 13 addi	a0, zero, 0x79
0x80000210: 59 90 00 ef jal	ra, 0x80000fa8
0x80000fa8: a0 00 07 b7 lui	a5, 0xa0000
0x80000fac: 3e a7 8c 23 sb	a0, 0x3f8(a5)
0x80000fb0: 00 00 80 67 jalr	zero, 0x0(ra)
0x80000214: 00 c1 20 83 lw	ra, 0xc(sp)
0x80000218: 00 04 05 13 addi	a0, s0, 0x0
0x8000021c: 00 81 24 03 lw	s0, 0x8(sp)
0x80000220: 01 01 01 13 addi	sp, sp, 0x10
0x80000224: 00 00 80 67 jalr	zero, 0x0(ra)
0x80001390: 02 05 06 63 beq	a0, zero, 0x800013bc
0x80001394: 02 c1 20 83 lw	ra, 0x2c(sp)
0x80001398: 03 01 01 13 addi	sp, sp, 0x30
0x8000139c: 00 00 80 67 jalr	zero, 0x0(ra)
0x800014b8: 08 41 23 03 lw	t1, 0x84(sp)
0x800014bc: 08 81 23 83 lw	t2, 0x88(sp)
0x800014c0: 30 03 10 73 csrrw	zero, mstatus, t1
0x800014c4: 34 13 90 73 csrrw	zero, mepc, t2
0x800014c8: 00 41 20 83 lw	ra, 0x4(sp)
0x800014cc: 00 c1 21 83 lw	gp, 0xc(sp)
0x800014d0: 01 01 22 03 lw	tp, 0x10(sp)
0x800014d4: 01 41 22 83 lw	t0, 0x14(sp)
0x800014d8: 01 81 23 03 lw	t1, 0x18(sp)
0x800014dc: 01 c1 23 83 lw	t2, 0x1c(sp)
0x800014e0: 02 01 24 03 lw	s0, 0x20(sp)
0x800014e4: 02 41 24 83 lw	s1, 0x24(sp)
0x800014e8: 02 81 25 03 lw	a0, 0x28(sp)
0x800014ec: 02 c1 25 83 lw	a1, 0x2c(sp)
0x800014f0: 03 01 26 03 lw	a2, 0x30(sp)
0x800014f4: 03 41 26 83 lw	a3, 0x34(sp)
0x800014f8: 03 81 27 03 lw	a4, 0x38(sp)
0x800014fc: 03 c1 27 83 lw	a5, 0x3c(sp)
0x80001500: 04 01 28 03 lw	a6, 0x40(sp)
0x80001504: 04 41 28 83 lw	a7, 0x44(sp)
0x80001508: 04 81 29 03 lw	s2, 0x48(sp)
0x8000150c: 04 c1 29 83 lw	s3, 0x4c(sp)
0x80001510: 05 01 2a 03 lw	s4, 0x50(sp)
0x80001514: 05 41 2a 83 lw	s5, 0x54(sp)
0x80001518: 05 81 2b 03 lw	s6, 0x58(sp)
0x8000151c: 05 c1 2b 83 lw	s7, 0x5c(sp)
0x80001520: 06 01 2c 03 lw	s8, 0x60(sp)
0x80001524: 06 41 2c 83 lw	s9, 0x64(sp)
0x80001528: 06 81 2d 03 lw	s10, 0x68(sp)
0x8000152c: 06 c1 2d 83 lw	s11, 0x6c(sp)
0x80001530: 07 01 2e 03 lw	t3, 0x70(sp)
0x80001534: 07 41 2e 83 lw	t4, 0x74(sp)
0x80001538: 07 81 2f 03 lw	t5, 0x78(sp)
0x8000153c: 07 c1 2f 83 lw	t6, 0x7c(sp)
0x80001540: 08 c1 01 13 addi	sp, sp, 0x8c
0x80001544: 30 20 00 73 mret
0x80001400: 00 00 00 73 ecall
0x80001410: f7 41 01 13 addi	sp, sp, -0x8c
0x80001414: 00 11 22 23 sw	ra, 0x4(sp)
0x80001418: 00 31 26 23 sw	gp, 0xc(sp)
0x8000141c: 00 41 28 23 sw	tp, 0x10(sp)
0x80001420: 00 51 2a 23 sw	t0, 0x14(sp)
0x80001424: 00 61 2c 23 sw	t1, 0x18(sp)
0x80001428: 00 71 2e 23 sw	t2, 0x1c(sp)
0x8000142c: 02 81 20 23 sw	s0, 0x20(sp)
0x80001430: 02 91 22 23 sw	s1, 0x24(sp)
0x80001434: 02 a1 24 23 sw	a0, 0x28(sp)
0x80001438: 02 b1 26 23 sw	a1, 0x2c(sp)
0x8000143c: 02 c1 28 23 sw	a2, 0x30(sp)
0x80001440: 02 d1 2a 23 sw	a3, 0x34(sp)
0x80001444: 02 e1 2c 23 sw	a4, 0x38(sp)
0x80001448: 02 f1 2e 23 sw	a5, 0x3c(sp)
0x8000144c: 05 01 20 23 sw	a6, 0x40(sp)
0x80001450: 05 11 22 23 sw	a7, 0x44(sp)
0x80001454: 05 21 24 23 sw	s2, 0x48(sp)
0x80001458: 05 31 26 23 sw	s3, 0x4c(sp)
0x8000145c: 05 41 28 23 sw	s4, 0x50(sp)
0x80001460: 05 51 2a 23 sw	s5, 0x54(sp)
0x80001464: 05 61 2c 23 sw	s6, 0x58(sp)
0x80001468: 05 71 2e 23 sw	s7, 0x5c(sp)
0x8000146c: 07 81 20 23 sw	s8, 0x60(sp)
0x80001470: 07 91 22 23 sw	s9, 0x64(sp)
0x80001474: 07 a1 24 23 sw	s10, 0x68(sp)
0x80001478: 07 b1 26 23 sw	s11, 0x6c(sp)
0x8000147c: 07 c1 28 23 sw	t3, 0x70(sp)
0x80001480: 07 d1 2a 23 sw	t4, 0x74(sp)
0x80001484: 07 e1 2c 23 sw	t5, 0x78(sp)
0x80001488: 07 f1 2e 23 sw	t6, 0x7c(sp)
0x8000148c: 34 20 22 f3 csrrs	t0, mcause, zero
0x80001490: 30 00 23 73 csrrs	t1, mstatus, zero
0x80001494: 34 10 23 f3 csrrs	t2, mepc, zero
0x80001498: 08 51 20 23 sw	t0, 0x80(sp)
0x8000149c: 08 61 22 23 sw	t1, 0x84(sp)
0x800014a0: 08 71 24 23 sw	t2, 0x88(sp)
0x800014a4: 00 02 05 37 lui	a0, 0x20
0x800014a8: 00 a3 63 33 or	t1, t1, a0
0x800014ac: 30 03 10 73 csrrw	zero, mstatus, t1
0x800014b0: 00 01 05 13 addi	a0, sp, 0x0
0x800014b4: e8 5f f0 ef jal	ra, 0x80001338
0x80001338: 00 09 47 97 auipc	a5, 0x94
0x8000133c: c6 07 a7 83 lw	a5, -0x3a0(a5)
0x80001340: 00 05 05 93 addi	a1, a0, 0x0
0x80001344: 06 07 8a 63 beq	a5, zero, 0x800013b8
0x80001348: 08 05 26 03 lw	a2, 0x80(a0)
0x8000134c: fd 01 01 13 addi	sp, sp, -0x30
0x80001350: 02 11 26 23 sw	ra, 0x2c(sp)
0x80001354: 00 01 2a 23 sw	zero, 0x14(sp)
0x80001358: 00 01 2c 23 sw	zero, 0x18(sp)
0x8000135c: 00 01 2e 23 sw	zero, 0x1c(sp)
0x80001360: 00 b0 06 93 addi	a3, zero, 0xb
0x80001364: 00 40 07 13 addi	a4, zero, 0x4
0x80001368: 02 d6 0c 63 beq	a2, a3, 0x800013a0
0x800013a0: 04 45 26 03 lw	a2, 0x44(a0)
0x800013a4: ff f0 06 93 addi	a3, zero, -0x1
0x800013a8: 00 10 07 13 addi	a4, zero, 0x1
0x800013ac: fc d6 00 e3 beq	a2, a3, 0x8000136c
0x8000136c: 00 e1 20 23 sw	a4, 0x0(sp)
0x80001370: 01 41 27 03 lw	a4, 0x14(sp)
0x80001374: 00 01 05 13 addi	a0, sp, 0x0
0x80001378: 00 e1 22 23 sw	a4, 0x4(sp)
0x8000137c: 01 81 27 03 lw	a4, 0x18(sp)
0x80001380: 00 e1 24 23 sw	a4, 0x8(sp)
0x80001384: 01 c1 27 03 lw	a4, 0x1c(sp)
0x80001388: 00 e1 26 23 sw	a4, 0xc(sp)
0x8000138c: 00 07 80 e7 jalr	ra, 0x0(a5)
0x800001e0: 00 05 27 83 lw	a5, 0x0(a0)
0x800001e4: ff 01 01 13 addi	sp, sp, -0x10
0x800001e8: 00 81 24 23 sw	s0, 0x8(sp)
0x800001ec: 00 11 26 23 sw	ra, 0xc(sp)
0x800001f0: 00 50 07 13 addi	a4, zero, 0x5
0x800001f4: 00 05 84 13 addi	s0, a1, 0x0
0x800001f8: 04 e7 86 63 beq	a5, a4, 0x80000244
0x800001fc: 00 60 07 13 addi	a4, zero, 0x6
0x80000200: 02 e7 84 63 beq	a5, a4, 0x80000228
0x80000204: 00 10 07 13 addi	a4, zero, 0x1
0x80000208: 04 e7 9c 63 bne	a5, a4, 0x80000260
0x8000020c: 07 90 05 13 addi	a0, zero, 0x79
0x80000210: 59 90 00 ef jal	ra, 0x80000fa8
0x80000fa8: a0 00 07 b7 lui	a5, 0xa0000
0x80000fac: 3e a7 8c 23 sb	a0, 0x3f8(a5)
0x80000fb0: 00 00 80 67 jalr	zero, 0x0(ra)
0x80000214: 00 c1 20 83 lw	ra, 0xc(sp)
0x80000218: 00 04 05 13 addi	a0, s0, 0x0
0x8000021c: 00 81 24 03 lw	s0, 0x8(sp)
0x80000220: 01 01 01 13 addi	sp, sp, 0x10
0x80000224: 00 00 80 67 jalr	zero, 0x0(ra)
0x80001390: 02 05 06 63 beq	a0, zero, 0x800013bc
0x80001394: 02 c1 20 83 lw	ra, 0x2c(sp)
0x80001398: 03 01 01 13 addi	sp, sp, 0x30
0x8000139c: 00 00 80 67 jalr	zero, 0x0(ra)
0x800014b8: 08 41 23 03 lw	t1, 0x84(sp)
0x800014bc: 08 81 23 83 lw	t2, 0x88(sp)
0x800014c0: 30 03 10 73 csrrw	zero, mstatus, t1
0x800014c4: 34 13 90 73 csrrw	zero, mepc, t2
0x800014c8: 00 41 20 83 lw	ra, 0x4(sp)
0x800014cc: 00 c1 21 83 lw	gp, 0xc(sp)
0x800014d0: 01 01 22 03 lw	tp, 0x10(sp)
0x800014d4: 01 41 22 83 lw	t0, 0x14(sp)
0x800014d8: 01 81 23 03 lw	t1, 0x18(sp)
0x800014dc: 01 c1 23 83 lw	t2, 0x1c(sp)
0x800014e0: 02 01 24 03 lw	s0, 0x20(sp)
0x800014e4: 02 41 24 83 lw	s1, 0x24(sp)
0x800014e8: 02 81 25 03 lw	a0, 0x28(sp)
0x800014ec: 02 c1 25 83 lw	a1, 0x2c(sp)
0x800014f0: 03 01 26 03 lw	a2, 0x30(sp)
0x800014f4: 03 41 26 83 lw	a3, 0x34(sp)
0x800014f8: 03 81 27 03 lw	a4, 0x38(sp)
0x800014fc: 03 c1 27 83 lw	a5, 0x3c(sp)
0x80001500: 04 01 28 03 lw	a6, 0x40(sp)
0x80001504: 04 41 28 83 lw	a7, 0x44(sp)
0x80001508: 04 81 29 03 lw	s2, 0x48(sp)
0x8000150c: 04 c1 29 83 lw	s3, 0x4c(sp)
0x80001510: 05 01 2a 03 lw	s4, 0x50(sp)
0x80001514: 05 41 2a 83 lw	s5, 0x54(sp)
0x80001518: 05 81 2b 03 lw	s6, 0x58(sp)
0x8000151c: 05 c1 2b 83 lw	s7, 0x5c(sp)
0x80001520: 06 01 2c 03 lw	s8, 0x60(sp)
0x80001524: 06 41 2c 83 lw	s9, 0x64(sp)
0x80001528: 06 81 2d 03 lw	s10, 0x68(sp)
0x8000152c: 06 c1 2d 83 lw	s11, 0x6c(sp)
0x80001530: 07 01 2e 03 lw	t3, 0x70(sp)
0x80001534: 07 41 2e 83 lw	t4, 0x74(sp)
0x80001538: 07 81 2f 03 lw	t5, 0x78(sp)
0x8000153c: 07 c1 2f 83 lw	t6, 0x7c(sp)
0x80001540: 08 c1 01 13 addi	sp, sp, 0x8c
0x80001544: 30 20 00 73 mret
0x80001400: 00 00 00 73 ecall
0x80001410: f7 41 01 13 addi	sp, sp, -0x8c
0x80001414: 00 11 22 23 sw	ra, 0x4(sp)
0x80001418: 00 31 26 23 sw	gp, 0xc(sp)
0x8000141c: 00 41 28 23 sw	tp, 0x10(sp)
0x80001420: 00 51 2a 23 sw	t0, 0x14(sp)
0x80001424: 00 61 2c 23 sw	t1, 0x18(sp)
0x80001428: 00 71 2e 23 sw	t2, 0x1c(sp)
0x8000142c: 02 81 20 23 sw	s0, 0x20(sp)
0x80001430: 02 91 22 23 sw	s1, 0x24(sp)
0x80001434: 02 a1 24 23 sw	a0, 0x28(sp)
0x80001438: 02 b1 26 23 sw	a1, 0x2c(sp)
0x8000143c: 02 c1 28 23 sw	a2, 0x30(sp)
0x80001440: 02 d1 2a 23 sw	a3, 0x34(sp)
0x80001444: 02 e1 2c 23 sw	a4, 0x38(sp)
0x80001448: 02 f1 2e 23 sw	a5, 0x3c(sp)
0x8000144c: 05 01 20 23 sw	a6, 0x40(sp)
0x80001450: 05 11 22 23 sw	a7, 0x44(sp)
0x80001454: 05 21 24 23 sw	s2, 0x48(sp)
0x80001458: 05 31 26 23 sw	s3, 0x4c(sp)
0x8000145c: 05 41 28 23 sw	s4, 0x50(sp)
0x80001460: 05 51 2a 23 sw	s5, 0x54(sp)
0x80001464: 05 61 2c 23 sw	s6, 0x58(sp)
0x80001468: 05 71 2e 23 sw	s7, 0x5c(sp)
0x8000146c: 07 81 20 23 sw	s8, 0x60(sp)
0x80001470: 07 91 22 23 sw	s9, 0x64(sp)
0x80001474: 07 a1 24 23 sw	s10, 0x68(sp)
0x80001478: 07 b1 26 23 sw	s11, 0x6c(sp)
0x8000147c: 07 c1 28 23 sw	t3, 0x70(sp)
0x80001480: 07 d1 2a 23 sw	t4, 0x74(sp)
0x80001484: 07 e1 2c 23 sw	t5, 0x78(sp)
0x80001488: 07 f1 2e 23 sw	t6, 0x7c(sp)
0x8000148c: 34 20 22 f3 csrrs	t0, mcause, zero
0x80001490: 30 00 23 73 csrrs	t1, mstatus, zero
0x80001494: 34 10 23 f3 csrrs	t2, mepc, zero
0x80001498: 08 51 20 23 sw	t0, 0x80(sp)
0x8000149c: 08 61 22 23 sw	t1, 0x84(sp)
0x800014a0: 08 71 24 23 sw	t2, 0x88(sp)
0x800014a4: 00 02 05 37 lui	a0, 0x20
0x800014a8: 00 a3 63 33 or	t1, t1, a0
0x800014ac: 30 03 10 73 csrrw	zero, mstatus, t1
0x800014b0: 00 01 05 13 addi	a0, sp, 0x0
0x800014b4: e8 5f f0 ef jal	ra, 0x80001338
0x80001338: 00 09 47 97 auipc	a5, 0x94
0x8000133c: c6 07 a7 83 lw	a5, -0x3a0(a5)
0x80001340: 00 05 05 93 addi	a1, a0, 0x0
0x80001344: 06 07 8a 63 beq	a5, zero, 0x800013b8
0x80001348: 08 05 26 03 lw	a2, 0x80(a0)
0x8000134c: fd 01 01 13 addi	sp, sp, -0x30
0x80001350: 02 11 26 23 sw	ra, 0x2c(sp)
0x80001354: 00 01 2a 23 sw	zero, 0x14(sp)
0x80001358: 00 01 2c 23 sw	zero, 0x18(sp)
0x8000135c: 00 01 2e 23 sw	zero, 0x1c(sp)
0x80001360: 00 b0 06 93 addi	a3, zero, 0xb
0x80001364: 00 40 07 13 addi	a4, zero, 0x4
0x80001368: 02 d6 0c 63 beq	a2, a3, 0x800013a0
0x800013a0: 04 45 26 03 lw	a2, 0x44(a0)
0x800013a4: ff f0 06 93 addi	a3, zero, -0x1
0x800013a8: 00 10 07 13 addi	a4, zero, 0x1
0x800013ac: fc d6 00 e3 beq	a2, a3, 0x8000136c
0x8000136c: 00 e1 20 23 sw	a4, 0x0(sp)
0x80001370: 01 41 27 03 lw	a4, 0x14(sp)
0x80001374: 00 01 05 13 addi	a0, sp, 0x0
0x80001378: 00 e1 22 23 sw	a4, 0x4(sp)
0x8000137c: 01 81 27 03 lw	a4, 0x18(sp)
0x80001380: 00 e1 24 23 sw	a4, 0x8(sp)
0x80001384: 01 c1 27 03 lw	a4, 0x1c(sp)
0x80001388: 00 e1 26 23 sw	a4, 0xc(sp)
0x8000138c: 00 07 80 e7 jalr	ra, 0x0(a5)
0x800001e0: 00 05 27 83 lw	a5, 0x0(a0)
0x800001e4: ff 01 01 13 addi	sp, sp, -0x10
0x800001e8: 00 81 24 23 sw	s0, 0x8(sp)
0x800001ec: 00 11 26 23 sw	ra, 0xc(sp)
0x800001f0: 00 50 07 13 addi	a4, zero, 0x5
0x800001f4: 00 05 84 13 addi	s0, a1, 0x0
0x800001f8: 04 e7 86 63 beq	a5, a4, 0x80000244
0x800001fc: 00 60 07 13 addi	a4, zero, 0x6
0x80000200: 02 e7 84 63 beq	a5, a4, 0x80000228
0x80000204: 00 10 07 13 addi	a4, zero, 0x1
0x80000208: 04 e7 9c 63 bne	a5, a4, 0x80000260
0x8000020c: 07 90 05 13 addi	a0, zero, 0x79
0x80000210: 59 90 00 ef jal	ra, 0x80000fa8
0x80000fa8: a0 00 07 b7 lui	a5, 0xa0000
0x80000fac: 3e a7 8c 23 sb	a0, 0x3f8(a5)
0x80000fb0: 00 00 80 67 jalr	zero, 0x0(ra)
0x80000214: 00 c1 20 83 lw	ra, 0xc(sp)
0x80000218: 00 04 05 13 addi	a0, s0, 0x0
0x8000021c: 00 81 24 03 lw	s0, 0x8(sp)
0x80000220: 01 01 01 13 addi	sp, sp, 0x10
0x80000224: 00 00 80 67 jalr	zero, 0x0(ra)
0x80001390: 02 05 06 63 beq	a0, zero, 0x800013bc
0x80001394: 02 c1 20 83 lw	ra, 0x2c(sp)
0x80001398: 03 01 01 13 addi	sp, sp, 0x30
0x8000139c: 00 00 80 67 jalr	zero, 0x0(ra)
0x800014b8: 08 41 23 03 lw	t1, 0x84(sp)
0x800014bc: 08 81 23 83 lw	t2, 0x88(sp)
0x800014c0: 30 03 10 73 csrrw	zero, mstatus, t1
0x800014c4: 34 13 90 73 csrrw	zero, mepc, t2
0x800014c8: 00 41 20 83 lw	ra, 0x4(sp)
0x800014cc: 00 c1 21 83 lw	gp, 0xc(sp)
0x800014d0: 01 01 22 03 lw	tp, 0x10(sp)
0x800014d4: 01 41 22 83 lw	t0, 0x14(sp)
0x800014d8: 01 81 23 03 lw	t1, 0x18(sp)
0x800014dc: 01 c1 23 83 lw	t2, 0x1c(sp)
0x800014e0: 02 01 24 03 lw	s0, 0x20(sp)
0x800014e4: 02 41 24 83 lw	s1, 0x24(sp)
0x800014e8: 02 81 25 03 lw	a0, 0x28(sp)
0x800014ec: 02 c1 25 83 lw	a1, 0x2c(sp)
0x800014f0: 03 01 26 03 lw	a2, 0x30(sp)
0x800014f4: 03 41 26 83 lw	a3, 0x34(sp)
0x800014f8: 03 81 27 03 lw	a4, 0x38(sp)
0x800014fc: 03 c1 27 83 lw	a5, 0x3c(sp)
0x80001500: 04 01 28 03 lw	a6, 0x40(sp)
0x80001504: 04 41 28 83 lw	a7, 0x44(sp)
0x80001508: 04 81 29 03 lw	s2, 0x48(sp)
0x8000150c: 04 c1 29 83 lw	s3, 0x4c(sp)
0x80001510: 05 01 2a 03 lw	s4, 0x50(sp)
0x80001514: 05 41 2a 83 lw	s5, 0x54(sp)
0x80001518: 05 81 2b 03 lw	s6, 0x58(sp)
0x8000151c: 05 c1 2b 83 lw	s7, 0x5c(sp)
0x80001520: 06 01 2c 03 lw	s8, 0x60(sp)
0x80001524: 06 41 2c 83 lw	s9, 0x64(sp)
0x80001528: 06 81 2d 03 lw	s10, 0x68(sp)
0x8000152c: 06 c1 2d 83 lw	s11, 0x6c(sp)
0x80001530: 07 01 2e 03 lw	t3, 0x70(sp)
0x80001534: 07 41 2e 83 lw	t4, 0x74(sp)
0x80001538: 07 81 2f 03 lw	t5, 0x78(sp)
0x8000153c: 07 c1 2f 83 lw	t6, 0x7c(sp)
0x80001540: 08 c1 01 13 addi	sp, sp, 0x8c
0x80001544: 30 20 00 73 mret
0x80001400: 00 00 00 73 ecall
0x80001410: f7 41 01 13 addi	sp, sp, -0x8c
0x80001414: 00 11 22 23 sw	ra, 0x4(sp)
0x80001418: 00 31 26 23 sw	gp, 0xc(sp)
0x8000141c: 00 41 28 23 sw	tp, 0x10(sp)
0x80001420: 00 51 2a 23 sw	t0, 0x14(sp)
0x80001424: 00 61 2c 23 sw	t1, 0x18(sp)
0x80001428: 00 71 2e 23 sw	t2, 0x1c(sp)
0x8000142c: 02 81 20 23 sw	s0, 0x20(sp)
0x80001430: 02 91 22 23 sw	s1, 0x24(sp)
0x80001434: 02 a1 24 23 sw	a0, 0x28(sp)
0x80001438: 02 b1 26 23 sw	a1, 0x2c(sp)
0x8000143c: 02 c1 28 23 sw	a2, 0x30(sp)
0x80001440: 02 d1 2a 23 sw	a3, 0x34(sp)
0x80001444: 02 e1 2c 23 sw	a4, 0x38(sp)
0x80001448: 02 f1 2e 23 sw	a5, 0x3c(sp)
0x8000144c: 05 01 20 23 sw	a6, 0x40(sp)
0x80001450: 05 11 22 23 sw	a7, 0x44(sp)
0x80001454: 05 21 24 23 sw	s2, 0x48(sp)
0x80001458: 05 31 26 23 sw	s3, 0x4c(sp)
0x8000145c: 05 41 28 23 sw	s4, 0x50(sp)
0x80001460: 05 51 2a 23 sw	s5, 0x54(sp)
0x80001464: 05 61 2c 23 sw	s6, 0x58(sp)
0x80001468: 05 71 2e 23 sw	s7, 0x5c(sp)
0x8000146c: 07 81 20 23 sw	s8, 0x60(sp)
0x80001470: 07 91 22 23 sw	s9, 0x64(sp)
0x80001474: 07 a1 24 23 sw	s10, 0x68(sp)
0x80001478: 07 b1 26 23 sw	s11, 0x6c(sp)
0x8000147c: 07 c1 28 23 sw	t3, 0x70(sp)
0x80001480: 07 d1 2a 23 sw	t4, 0x74(sp)
0x80001484: 07 e1 2c 23 sw	t5, 0x78(sp)
0x80001488: 07 f1 2e 23 sw	t6, 0x7c(sp)
0x8000148c: 34 20 22 f3 csrrs	t0, mcause, zero
0x80001490: 30 00 23 73 csrrs	t1, mstatus, zero
0x80001494: 34 10 23 f3 csrrs	t2, mepc, zero
0x80001498: 08 51 20 23 sw	t0, 0x80(sp)
0x8000149c: 08 61 22 23 sw	t1, 0x84(sp)
0x800014a0: 08 71 24 23 sw	t2, 0x88(sp)
0x800014a4: 00 02 05 37 lui	a0, 0x20
0x800014a8: 00 a3 63 33 or	t1, t1, a0
0x800014ac: 30 03 10 73 csrrw	zero, mstatus, t1
0x800014b0: 00 01 05 13 addi	a0, sp, 0x0
0x800014b4: e8 5f f0 ef jal	ra, 0x80001338
0x80001338: 00 09 47 97 auipc	a5, 0x94
0x8000133c: c6 07 a7 83 lw	a5, -0x3a0(a5)
0x80001340: 00 05 05 93 addi	a1, a0, 0x0
0x80001344: 06 07 8a 63 beq	a5, zero, 0x800013b8
0x80001348: 08 05 26 03 lw	a2, 0x80(a0)
0x8000134c: fd 01 01 13 addi	sp, sp, -0x30
0x80001350: 02 11 26 23 sw	ra, 0x2c(sp)
0x80001354: 00 01 2a 23 sw	zero, 0x14(sp)
0x80001358: 00 01 2c 23 sw	zero, 0x18(sp)
0x8000135c: 00 01 2e 23 sw	zero, 0x1c(sp)
0x80001360: 00 b0 06 93 addi	a3, zero, 0xb
0x80001364: 00 40 07 13 addi	a4, zero, 0x4
0x80001368: 02 d6 0c 63 beq	a2, a3, 0x800013a0
0x800013a0: 04 45 26 03 lw	a2, 0x44(a0)
0x800013a4: ff f0 06 93 addi	a3, zero, -0x1
0x800013a8: 00 10 07 13 addi	a4, zero, 0x1
0x800013ac: fc d6 00 e3 beq	a2, a3, 0x8000136c
0x8000136c: 00 e1 20 23 sw	a4, 0x0(sp)
0x80001370: 01 41 27 03 lw	a4, 0x14(sp)
0x80001374: 00 01 05 13 addi	a0, sp, 0x0
0x80001378: 00 e1 22 23 sw	a4, 0x4(sp)
0x8000137c: 01 81 27 03 lw	a4, 0x18(sp)
0x80001380: 00 e1 24 23 sw	a4, 0x8(sp)
0x80001384: 01 c1 27 03 lw	a4, 0x1c(sp)
0x80001388: 00 e1 26 23 sw	a4, 0xc(sp)
0x8000138c: 00 07 80 e7 jalr	ra, 0x0(a5)
0x800001e0: 00 05 27 83 lw	a5, 0x0(a0)
0x800001e4: ff 01 01 13 addi	sp, sp, -0x10
0x800001e8: 00 81 24 23 sw	s0, 0x8(sp)
0x800001ec: 00 11 26 23 sw	ra, 0xc(sp)
0x800001f0: 00 50 07 13 addi	a4, zero, 0x5
0x800001f4: 00 05 84 13 addi	s0, a1, 0x0
0x800001f8: 04 e7 86 63 beq	a5, a4, 0x80000244
0x800001fc: 00 60 07 13 addi	a4, zero, 0x6
0x80000200: 02 e7 84 63 beq	a5, a4, 0x80000228
0x80000204: 00 10 07 13 addi	a4, zero, 0x1
0x80000208: 04 e7 9c 63 bne	a5, a4, 0x80000260
0x8000020c: 07 90 05 13 addi	a0, zero, 0x79
0x80000210: 59 90 00 ef jal	ra, 0x80000fa8
0x80000fa8: a0 00 07 b7 lui	a5, 0xa0000
0x80000fac: 3e a7 8c 23 sb	a0, 0x3f8(a5)
0x80000fb0: 00 00 80 67 jalr	zero, 0x0(ra)
0x80000214: 00 c1 20 83 lw	ra, 0xc(sp)
0x80000218: 00 04 05 13 addi	a0, s0, 0x0
0x8000021c: 00 81 24 03 lw	s0, 0x8(sp)
0x80000220: 01 01 01 13 addi	sp, sp, 0x10
0x80000224: 00 00 80 67 jalr	zero, 0x0(ra)
0x80001390: 02 05 06 63 beq	a0, zero, 0x800013bc
0x80001394: 02 c1 20 83 lw	ra, 0x2c(sp)
0x80001398: 03 01 01 13 addi	sp, sp, 0x30
0x8000139c: 00 00 80 67 jalr	zero, 0x0(ra)
0x800014b8: 08 41 23 03 lw	t1, 0x84(sp)
0x800014bc: 08 81 23 83 lw	t2, 0x88(sp)
0x800014c0: 30 03 10 73 csrrw	zero, mstatus, t1
0x800014c4: 34 13 90 73 csrrw	zero, mepc, t2
0x800014c8: 00 41 20 83 lw	ra, 0x4(sp)
0x800014cc: 00 c1 21 83 lw	gp, 0xc(sp)
0x800014d0: 01 01 22 03 lw	tp, 0x10(sp)
0x800014d4: 01 41 22 83 lw	t0, 0x14(sp)
0x800014d8: 01 81 23 03 lw	t1, 0x18(sp)
0x800014dc: 01 c1 23 83 lw	t2, 0x1c(sp)
0x800014e0: 02 01 24 03 lw	s0, 0x20(sp)
0x800014e4: 02 41 24 83 lw	s1, 0x24(sp)
0x800014e8: 02 81 25 03 lw	a0, 0x28(sp)
0x800014ec: 02 c1 25 83 lw	a1, 0x2c(sp)
0x800014f0: 03 01 26 03 lw	a2, 0x30(sp)
0x800014f4: 03 41 26 83 lw	a3, 0x34(sp)
0x800014f8: 03 81 27 03 lw	a4, 0x38(sp)
0x800014fc: 03 c1 27 83 lw	a5, 0x3c(sp)
0x80001500: 04 01 28 03 lw	a6, 0x40(sp)
0x80001504: 04 41 28 83 lw	a7, 0x44(sp)
0x80001508: 04 81 29 03 lw	s2, 0x48(sp)
0x8000150c: 04 c1 29 83 lw	s3, 0x4c(sp)
0x80001510: 05 01 2a 03 lw	s4, 0x50(sp)
0x80001514: 05 41 2a 83 lw	s5, 0x54(sp)
0x80001518: 05 81 2b 03 lw	s6, 0x58(sp)
0x8000151c: 05 c1 2b 83 lw	s7, 0x5c(sp)
0x80001520: 06 01 2c 03 lw	s8, 0x60(sp)
0x80001524: 06 41 2c 83 lw	s9, 0x64(sp)
0x80001528: 06 81 2d 03 lw	s10, 0x68(sp)
0x8000152c: 06 c1 2d 83 lw	s11, 0x6c(sp)
0x80001530: 07 01 2e 03 lw	t3, 0x70(sp)
0x80001534: 07 41 2e 83 lw	t4, 0x74(sp)
0x80001538: 07 81 2f 03 lw	t5, 0x78(sp)
0x8000153c: 07 c1 2f 83 lw	t6, 0x7c(sp)
0x80001540: 08 c1 01 13 addi	sp, sp, 0x8c
0x80001544: 30 20 00 73 mret
0x80001400: 00 00 00 73 ecall
0x80001410: f7 41 01 13 addi	sp, sp, -0x8c
0x80001414: 00 11 22 23 sw	ra, 0x4(sp)
0x80001418: 00 31 26 23 sw	gp, 0xc(sp)
0x8000141c: 00 41 28 23 sw	tp, 0x10(sp)
0x80001420: 00 51 2a 23 sw	t0, 0x14(sp)
0x80001424: 00 61 2c 23 sw	t1, 0x18(sp)
0x80001428: 00 71 2e 23 sw	t2, 0x1c(sp)
0x8000142c: 02 81 20 23 sw	s0, 0x20(sp)
0x80001430: 02 91 22 23 sw	s1, 0x24(sp)
0x80001434: 02 a1 24 23 sw	a0, 0x28(sp)
0x80001438: 02 b1 26 23 sw	a1, 0x2c(sp)
0x8000143c: 02 c1 28 23 sw	a2, 0x30(sp)
0x80001440: 02 d1 2a 23 sw	a3, 0x34(sp)
0x80001444: 02 e1 2c 23 sw	a4, 0x38(sp)
0x80001448: 02 f1 2e 23 sw	a5, 0x3c(sp)
0x8000144c: 05 01 20 23 sw	a6, 0x40(sp)
0x80001450: 05 11 22 23 sw	a7, 0x44(sp)
0x80001454: 05 21 24 23 sw	s2, 0x48(sp)
0x80001458: 05 31 26 23 sw	s3, 0x4c(sp)
0x8000145c: 05 41 28 23 sw	s4, 0x50(sp)
0x80001460: 05 51 2a 23 sw	s5, 0x54(sp)
0x80001464: 05 61 2c 23 sw	s6, 0x58(sp)
0x80001468: 05 71 2e 23 sw	s7, 0x5c(sp)
0x8000146c: 07 81 20 23 sw	s8, 0x60(sp)
0x80001470: 07 91 22 23 sw	s9, 0x64(sp)
0x80001474: 07 a1 24 23 sw	s10, 0x68(sp)
0x80001478: 07 b1 26 23 sw	s11, 0x6c(sp)
0x8000147c: 07 c1 28 23 sw	t3, 0x70(sp)
0x80001480: 07 d1 2a 23 sw	t4, 0x74(sp)
0x80001484: 07 e1 2c 23 sw	t5, 0x78(sp)
0x80001488: 07 f1 2e 23 sw	t6, 0x7c(sp)
0x8000148c: 34 20 22 f3 csrrs	t0, mcause, zero
0x80001490: 30 00 23 73 csrrs	t1, mstatus, zero
0x80001494: 34 10 23 f3 csrrs	t2, mepc, zero
0x80001498: 08 51 20 23 sw	t0, 0x80(sp)
0x8000149c: 08 61 22 23 sw	t1, 0x84(sp)
0x800014a0: 08 71 24 23 sw	t2, 0x88(sp)
0x800014a4: 00 02 05 37 lui	a0, 0x20
0x800014a8: 00 a3 63 33 or	t1, t1, a0
0x800014ac: 30 03 10 73 csrrw	zero, mstatus, t1
0x800014b0: 00 01 05 13 addi	a0, sp, 0x0
0x800014b4: e8 5f f0 ef jal	ra, 0x80001338
0x80001338: 00 09 47 97 auipc	a5, 0x94
0x8000133c: c6 07 a7 83 lw	a5, -0x3a0(a5)
0x80001340: 00 05 05 93 addi	a1, a0, 0x0
0x80001344: 06 07 8a 63 beq	a5, zero, 0x800013b8
0x80001348: 08 05 26 03 lw	a2, 0x80(a0)
0x8000134c: fd 01 01 13 addi	sp, sp, -0x30
0x80001350: 02 11 26 23 sw	ra, 0x2c(sp)
0x80001354: 00 01 2a 23 sw	zero, 0x14(sp)
0x80001358: 00 01 2c 23 sw	zero, 0x18(sp)
0x8000135c: 00 01 2e 23 sw	zero, 0x1c(sp)
0x80001360: 00 b0 06 93 addi	a3, zero, 0xb
0x80001364: 00 40 07 13 addi	a4, zero, 0x4
0x80001368: 02 d6 0c 63 beq	a2, a3, 0x800013a0
0x800013a0: 04 45 26 03 lw	a2, 0x44(a0)
0x800013a4: ff f0 06 93 addi	a3, zero, -0x1
0x800013a8: 00 10 07 13 addi	a4, zero, 0x1
0x800013ac: fc d6 00 e3 beq	a2, a3, 0x8000136c
0x8000136c: 00 e1 20 23 sw	a4, 0x0(sp)
0x80001370: 01 41 27 03 lw	a4, 0x14(sp)
0x80001374: 00 01 05 13 addi	a0, sp, 0x0
0x80001378: 00 e1 22 23 sw	a4, 0x4(sp)
0x8000137c: 01 81 27 03 lw	a4, 0x18(sp)
0x80001380: 00 e1 24 23 sw	a4, 0x8(sp)
0x80001384: 01 c1 27 03 lw	a4, 0x1c(sp)
0x80001388: 00 e1 26 23 sw	a4, 0xc(sp)
0x8000138c: 00 07 80 e7 jalr	ra, 0x0(a5)
0x800001e0: 00 05 27 83 lw	a5, 0x0(a0)
0x800001e4: ff 01 01 13 addi	sp, sp, -0x10
0x800001e8: 00 81 24 23 sw	s0, 0x8(sp)
0x800001ec: 00 11 26 23 sw	ra, 0xc(sp)
0x800001f0: 00 50 07 13 addi	a4, zero, 0x5
0x800001f4: 00 05 84 13 addi	s0, a1, 0x0
0x800001f8: 04 e7 86 63 beq	a5, a4, 0x80000244
0x800001fc: 00 60 07 13 addi	a4, zero, 0x6
0x80000200: 02 e7 84 63 beq	a5, a4, 0x80000228
0x80000204: 00 10 07 13 addi	a4, zero, 0x1
0x80000208: 04 e7 9c 63 bne	a5, a4, 0x80000260
0x8000020c: 07 90 05 13 addi	a0, zero, 0x79
0x80000210: 59 90 00 ef jal	ra, 0x80000fa8
0x80000fa8: a0 00 07 b7 lui	a5, 0xa0000
0x80000fac: 3e a7 8c 23 sb	a0, 0x3f8(a5)
0x80000fb0: 00 00 80 67 jalr	zero, 0x0(ra)
0x80000214: 00 c1 20 83 lw	ra, 0xc(sp)
0x80000218: 00 04 05 13 addi	a0, s0, 0x0
0x8000021c: 00 81 24 03 lw	s0, 0x8(sp)
0x80000220: 01 01 01 13 addi	sp, sp, 0x10
0x80000224: 00 00 80 67 jalr	zero, 0x0(ra)
0x80001390: 02 05 06 63 beq	a0, zero, 0x800013bc
0x80001394: 02 c1 20 83 lw	ra, 0x2c(sp)
0x80001398: 03 01 01 13 addi	sp, sp, 0x30
0x8000139c: 00 00 80 67 jalr	zero, 0x0(ra)
0x800014b8: 08 41 23 03 lw	t1, 0x84(sp)
0x800014bc: 08 81 23 83 lw	t2, 0x88(sp)
0x800014c0: 30 03 10 73 csrrw	zero, mstatus, t1
0x800014c4: 34 13 90 73 csrrw	zero, mepc, t2
0x800014c8: 00 41 20 83 lw	ra, 0x4(sp)
0x800014cc: 00 c1 21 83 lw	gp, 0xc(sp)
0x800014d0: 01 01 22 03 lw	tp, 0x10(sp)
0x800014d4: 01 41 22 83 lw	t0, 0x14(sp)
0x800014d8: 01 81 23 03 lw	t1, 0x18(sp)
0x800014dc: 01 c1 23 83 lw	t2, 0x1c(sp)
0x800014e0: 02 01 24 03 lw	s0, 0x20(sp)
0x800014e4: 02 41 24 83 lw	s1, 0x24(sp)
0x800014e8: 02 81 25 03 lw	a0, 0x28(sp)
0x800014ec: 02 c1 25 83 lw	a1, 0x2c(sp)
0x800014f0: 03 01 26 03 lw	a2, 0x30(sp)
0x800014f4: 03 41 26 83 lw	a3, 0x34(sp)
0x800014f8: 03 81 27 03 lw	a4, 0x38(sp)
0x800014fc: 03 c1 27 83 lw	a5, 0x3c(sp)
0x80001500: 04 01 28 03 lw	a6, 0x40(sp)
0x80001504: 04 41 28 83 lw	a7, 0x44(sp)
0x80001508: 04 81 29 03 lw	s2, 0x48(sp)
0x8000150c: 04 c1 29 83 lw	s3, 0x4c(sp)
0x80001510: 05 01 2a 03 lw	s4, 0x50(sp)
0x80001514: 05 41 2a 83 lw	s5, 0x54(sp)
0x80001518: 05 81 2b 03 lw	s6, 0x58(sp)
0x8000151c: 05 c1 2b 83 lw	s7, 0x5c(sp)
0x80001520: 06 01 2c 03 lw	s8, 0x60(sp)
0x80001524: 06 41 2c 83 lw	s9, 0x64(sp)
0x80001528: 06 81 2d 03 lw	s10, 0x68(sp)
0x8000152c: 06 c1 2d 83 lw	s11, 0x6c(sp)
0x80001530: 07 01 2e 03 lw	t3, 0x70(sp)
0x80001534: 07 41 2e 83 lw	t4, 0x74(sp)
0x80001538: 07 81 2f 03 lw	t5, 0x78(sp)
0x8000153c: 07 c1 2f 83 lw	t6, 0x7c(sp)
0x80001540: 08 c1 01 13 addi	sp, sp, 0x8c
0x80001544: 30 20 00 73 mret
0x80001400: 00 00 00 73 ecall
0x80001410: f7 41 01 13 addi	sp, sp, -0x8c
0x80001414: 00 11 22 23 sw	ra, 0x4(sp)
0x80001418: 00 31 26 23 sw	gp, 0xc(sp)
0x8000141c: 00 41 28 23 sw	tp, 0x10(sp)
0x80001420: 00 51 2a 23 sw	t0, 0x14(sp)
0x80001424: 00 61 2c 23 sw	t1, 0x18(sp)
0x80001428: 00 71 2e 23 sw	t2, 0x1c(sp)
0x8000142c: 02 81 20 23 sw	s0, 0x20(sp)
0x80001430: 02 91 22 23 sw	s1, 0x24(sp)
0x80001434: 02 a1 24 23 sw	a0, 0x28(sp)
0x80001438: 02 b1 26 23 sw	a1, 0x2c(sp)
0x8000143c: 02 c1 28 23 sw	a2, 0x30(sp)
0x80001440: 02 d1 2a 23 sw	a3, 0x34(sp)
0x80001444: 02 e1 2c 23 sw	a4, 0x38(sp)
0x80001448: 02 f1 2e 23 sw	a5, 0x3c(sp)
0x8000144c: 05 01 20 23 sw	a6, 0x40(sp)
0x80001450: 05 11 22 23 sw	a7, 0x44(sp)
0x80001454: 05 21 24 23 sw	s2, 0x48(sp)
0x80001458: 05 31 26 23 sw	s3, 0x4c(sp)
0x8000145c: 05 41 28 23 sw	s4, 0x50(sp)
0x80001460: 05 51 2a 23 sw	s5, 0x54(sp)
0x80001464: 05 61 2c 23 sw	s6, 0x58(sp)
0x80001468: 05 71 2e 23 sw	s7, 0x5c(sp)
0x8000146c: 07 81 20 23 sw	s8, 0x60(sp)
0x80001470: 07 91 22 23 sw	s9, 0x64(sp)
0x80001474: 07 a1 24 23 sw	s10, 0x68(sp)
0x80001478: 07 b1 26 23 sw	s11, 0x6c(sp)
0x8000147c: 07 c1 28 23 sw	t3, 0x70(sp)
0x80001480: 07 d1 2a 23 sw	t4, 0x74(sp)
0x80001484: 07 e1 2c 23 sw	t5, 0x78(sp)
0x80001488: 07 f1 2e 23 sw	t6, 0x7c(sp)
0x8000148c: 34 20 22 f3 csrrs	t0, mcause, zero
0x80001490: 30 00 23 73 csrrs	t1, mstatus, zero
0x80001494: 34 10 23 f3 csrrs	t2, mepc, zero
0x80001498: 08 51 20 23 sw	t0, 0x80(sp)
0x8000149c: 08 61 22 23 sw	t1, 0x84(sp)
0x800014a0: 08 71 24 23 sw	t2, 0x88(sp)
0x800014a4: 00 02 05 37 lui	a0, 0x20
0x800014a8: 00 a3 63 33 or	t1, t1, a0
0x800014ac: 30 03 10 73 csrrw	zero, mstatus, t1
0x800014b0: 00 01 05 13 addi	a0, sp, 0x0
0x800014b4: e8 5f f0 ef jal	ra, 0x80001338
0x80001338: 00 09 47 97 auipc	a5, 0x94
0x8000133c: c6 07 a7 83 lw	a5, -0x3a0(a5)
0x80001340: 00 05 05 93 addi	a1, a0, 0x0
0x80001344: 06 07 8a 63 beq	a5, zero, 0x800013b8
0x80001348: 08 05 26 03 lw	a2, 0x80(a0)
0x8000134c: fd 01 01 13 addi	sp, sp, -0x30
0x80001350: 02 11 26 23 sw	ra, 0x2c(sp)
0x80001354: 00 01 2a 23 sw	zero, 0x14(sp)
0x80001358: 00 01 2c 23 sw	zero, 0x18(sp)
0x8000135c: 00 01 2e 23 sw	zero, 0x1c(sp)
0x80001360: 00 b0 06 93 addi	a3, zero, 0xb
0x80001364: 00 40 07 13 addi	a4, zero, 0x4
0x80001368: 02 d6 0c 63 beq	a2, a3, 0x800013a0
0x800013a0: 04 45 26 03 lw	a2, 0x44(a0)
0x800013a4: ff f0 06 93 addi	a3, zero, -0x1
0x800013a8: 00 10 07 13 addi	a4, zero, 0x1
0x800013ac: fc d6 00 e3 beq	a2, a3, 0x8000136c
0x8000136c: 00 e1 20 23 sw	a4, 0x0(sp)
0x80001370: 01 41 27 03 lw	a4, 0x14(sp)
0x80001374: 00 01 05 13 addi	a0, sp, 0x0
0x80001378: 00 e1 22 23 sw	a4, 0x4(sp)
0x8000137c: 01 81 27 03 lw	a4, 0x18(sp)
0x80001380: 00 e1 24 23 sw	a4, 0x8(sp)
0x80001384: 01 c1 27 03 lw	a4, 0x1c(sp)
0x80001388: 00 e1 26 23 sw	a4, 0xc(sp)
0x8000138c: 00 07 80 e7 jalr	ra, 0x0(a5)
0x800001e0: 00 05 27 83 lw	a5, 0x0(a0)
0x800001e4: ff 01 01 13 addi	sp, sp, -0x10
0x800001e8: 00 81 24 23 sw	s0, 0x8(sp)
0x800001ec: 00 11 26 23 sw	ra, 0xc(sp)
0x800001f0: 00 50 07 13 addi	a4, zero, 0x5
0x800001f4: 00 05 84 13 addi	s0, a1, 0x0
0x800001f8: 04 e7 86 63 beq	a5, a4, 0x80000244
0x800001fc: 00 60 07 13 addi	a4, zero, 0x6
0x80000200: 02 e7 84 63 beq	a5, a4, 0x80000228
0x80000204: 00 10 07 13 addi	a4, zero, 0x1
0x80000208: 04 e7 9c 63 bne	a5, a4, 0x80000260
0x8000020c: 07 90 05 13 addi	a0, zero, 0x79
0x80000210: 59 90 00 ef jal	ra, 0x80000fa8
0x80000fa8: a0 00 07 b7 lui	a5, 0xa0000
0x80000fac: 3e a7 8c 23 sb	a0, 0x3f8(a5)
0x80000fb0: 00 00 80 67 jalr	zero, 0x0(ra)
0x80000214: 00 c1 20 83 lw	ra, 0xc(sp)
0x80000218: 00 04 05 13 addi	a0, s0, 0x0
0x8000021c: 00 81 24 03 lw	s0, 0x8(sp)
0x80000220: 01 01 01 13 addi	sp, sp, 0x10
0x80000224: 00 00 80 67 jalr	zero, 0x0(ra)
0x80001390: 02 05 06 63 beq	a0, zero, 0x800013bc
0x80001394: 02 c1 20 83 lw	ra, 0x2c(sp)
0x80001398: 03 01 01 13 addi	sp, sp, 0x30
0x8000139c: 00 00 80 67 jalr	zero, 0x0(ra)
0x800014b8: 08 41 23 03 lw	t1, 0x84(sp)
0x800014bc: 08 81 23 83 lw	t2, 0x88(sp)
0x800014c0: 30 03 10 73 csrrw	zero, mstatus, t1
0x800014c4: 34 13 90 73 csrrw	zero, mepc, t2
0x800014c8: 00 41 20 83 lw	ra, 0x4(sp)
0x800014cc: 00 c1 21 83 lw	gp, 0xc(sp)
0x800014d0: 01 01 22 03 lw	tp, 0x10(sp)
0x800014d4: 01 41 22 83 lw	t0, 0x14(sp)
0x800014d8: 01 81 23 03 lw	t1, 0x18(sp)
0x800014dc: 01 c1 23 83 lw	t2, 0x1c(sp)
0x800014e0: 02 01 24 03 lw	s0, 0x20(sp)
0x800014e4: 02 41 24 83 lw	s1, 0x24(sp)
0x800014e8: 02 81 25 03 lw	a0, 0x28(sp)
0x800014ec: 02 c1 25 83 lw	a1, 0x2c(sp)
0x800014f0: 03 01 26 03 lw	a2, 0x30(sp)
0x800014f4: 03 41 26 83 lw	a3, 0x34(sp)
0x800014f8: 03 81 27 03 lw	a4, 0x38(sp)
0x800014fc: 03 c1 27 83 lw	a5, 0x3c(sp)
0x80001500: 04 01 28 03 lw	a6, 0x40(sp)
0x80001504: 04 41 28 83 lw	a7, 0x44(sp)
0x80001508: 04 81 29 03 lw	s2, 0x48(sp)
0x8000150c: 04 c1 29 83 lw	s3, 0x4c(sp)
0x80001510: 05 01 2a 03 lw	s4, 0x50(sp)
0x80001514: 05 41 2a 83 lw	s5, 0x54(sp)
0x80001518: 05 81 2b 03 lw	s6, 0x58(sp)
0x8000151c: 05 c1 2b 83 lw	s7, 0x5c(sp)
0x80001520: 06 01 2c 03 lw	s8, 0x60(sp)
0x80001524: 06 41 2c 83 lw	s9, 0x64(sp)
0x80001528: 06 81 2d 03 lw	s10, 0x68(sp)
0x8000152c: 06 c1 2d 83 lw	s11, 0x6c(sp)
0x80001530: 07 01 2e 03 lw	t3, 0x70(sp)
0x80001534: 07 41 2e 83 lw	t4, 0x74(sp)
0x80001538: 07 81 2f 03 lw	t5, 0x78(sp)
0x8000153c: 07 c1 2f 83 lw	t6, 0x7c(sp)
0x80001540: 08 c1 01 13 addi	sp, sp, 0x8c
0x80001544: 30 20 00 73 mret
0x80001400: 00 00 00 73 ecall
0x80001410: f7 41 01 13 addi	sp, sp, -0x8c
0x80001414: 00 11 22 23 sw	ra, 0x4(sp)
0x80001418: 00 31 26 23 sw	gp, 0xc(sp)
0x8000141c: 00 41 28 23 sw	tp, 0x10(sp)
0x80001420: 00 51 2a 23 sw	t0, 0x14(sp)
0x80001424: 00 61 2c 23 sw	t1, 0x18(sp)
0x80001428: 00 71 2e 23 sw	t2, 0x1c(sp)
0x8000142c: 02 81 20 23 sw	s0, 0x20(sp)
0x80001430: 02 91 22 23 sw	s1, 0x24(sp)
0x80001434: 02 a1 24 23 sw	a0, 0x28(sp)
0x80001438: 02 b1 26 23 sw	a1, 0x2c(sp)
0x8000143c: 02 c1 28 23 sw	a2, 0x30(sp)
0x80001440: 02 d1 2a 23 sw	a3, 0x34(sp)
0x80001444: 02 e1 2c 23 sw	a4, 0x38(sp)
0x80001448: 02 f1 2e 23 sw	a5, 0x3c(sp)
0x8000144c: 05 01 20 23 sw	a6, 0x40(sp)
0x80001450: 05 11 22 23 sw	a7, 0x44(sp)
0x80001454: 05 21 24 23 sw	s2, 0x48(sp)
0x80001458: 05 31 26 23 sw	s3, 0x4c(sp)
0x8000145c: 05 41 28 23 sw	s4, 0x50(sp)
0x80001460: 05 51 2a 23 sw	s5, 0x54(sp)
0x80001464: 05 61 2c 23 sw	s6, 0x58(sp)
0x80001468: 05 71 2e 23 sw	s7, 0x5c(sp)
0x8000146c: 07 81 20 23 sw	s8, 0x60(sp)
0x80001470: 07 91 22 23 sw	s9, 0x64(sp)
0x80001474: 07 a1 24 23 sw	s10, 0x68(sp)
0x80001478: 07 b1 26 23 sw	s11, 0x6c(sp)
0x8000147c: 07 c1 28 23 sw	t3, 0x70(sp)
0x80001480: 07 d1 2a 23 sw	t4, 0x74(sp)
0x80001484: 07 e1 2c 23 sw	t5, 0x78(sp)
0x80001488: 07 f1 2e 23 sw	t6, 0x7c(sp)
0x8000148c: 34 20 22 f3 csrrs	t0, mcause, zero
0x80001490: 30 00 23 73 csrrs	t1, mstatus, zero
0x80001494: 34 10 23 f3 csrrs	t2, mepc, zero
0x80001498: 08 51 20 23 sw	t0, 0x80(sp)
0x8000149c: 08 61 22 23 sw	t1, 0x84(sp)
0x800014a0: 08 71 24 23 sw	t2, 0x88(sp)
0x800014a4: 00 02 05 37 lui	a0, 0x20
0x800014a8: 00 a3 63 33 or	t1, t1, a0
0x800014ac: 30 03 10 73 csrrw	zero, mstatus, t1
0x800014b0: 00 01 05 13 addi	a0, sp, 0x0
0x800014b4: e8 5f f0 ef jal	ra, 0x80001338
0x80001338: 00 09 47 97 auipc	a5, 0x94
0x8000133c: c6 07 a7 83 lw	a5, -0x3a0(a5)
0x80001340: 00 05 05 93 addi	a1, a0, 0x0
0x80001344: 06 07 8a 63 beq	a5, zero, 0x800013b8
0x80001348: 08 05 26 03 lw	a2, 0x80(a0)
0x8000134c: fd 01 01 13 addi	sp, sp, -0x30
0x80001350: 02 11 26 23 sw	ra, 0x2c(sp)
0x80001354: 00 01 2a 23 sw	zero, 0x14(sp)
0x80001358: 00 01 2c 23 sw	zero, 0x18(sp)
0x8000135c: 00 01 2e 23 sw	zero, 0x1c(sp)
0x80001360: 00 b0 06 93 addi	a3, zero, 0xb
0x80001364: 00 40 07 13 addi	a4, zero, 0x4
0x80001368: 02 d6 0c 63 beq	a2, a3, 0x800013a0
0x800013a0: 04 45 26 03 lw	a2, 0x44(a0)
0x800013a4: ff f0 06 93 addi	a3, zero, -0x1
0x800013a8: 00 10 07 13 addi	a4, zero, 0x1
0x800013ac: fc d6 00 e3 beq	a2, a3, 0x8000136c
0x8000136c: 00 e1 20 23 sw	a4, 0x0(sp)
0x80001370: 01 41 27 03 lw	a4, 0x14(sp)
0x80001374: 00 01 05 13 addi	a0, sp, 0x0
0x80001378: 00 e1 22 23 sw	a4, 0x4(sp)
0x8000137c: 01 81 27 03 lw	a4, 0x18(sp)
0x80001380: 00 e1 24 23 sw	a4, 0x8(sp)
0x80001384: 01 c1 27 03 lw	a4, 0x1c(sp)
0x80001388: 00 e1 26 23 sw	a4, 0xc(sp)
0x8000138c: 00 07 80 e7 jalr	ra, 0x0(a5)
0x800001e0: 00 05 27 83 lw	a5, 0x0(a0)
0x800001e4: ff 01 01 13 addi	sp, sp, -0x10
0x800001e8: 00 81 24 23 sw	s0, 0x8(sp)
0x800001ec: 00 11 26 23 sw	ra, 0xc(sp)
0x800001f0: 00 50 07 13 addi	a4, zero, 0x5
0x800001f4: 00 05 84 13 addi	s0, a1, 0x0
0x800001f8: 04 e7 86 63 beq	a5, a4, 0x80000244
0x800001fc: 00 60 07 13 addi	a4, zero, 0x6
0x80000200: 02 e7 84 63 beq	a5, a4, 0x80000228
0x80000204: 00 10 07 13 addi	a4, zero, 0x1
0x80000208: 04 e7 9c 63 bne	a5, a4, 0x80000260
0x8000020c: 07 90 05 13 addi	a0, zero, 0x79
0x80000210: 59 90 00 ef jal	ra, 0x80000fa8
0x80000fa8: a0 00 07 b7 lui	a5, 0xa0000
0x80000fac: 3e a7 8c 23 sb	a0, 0x3f8(a5)
0x80000fb0: 00 00 80 67 jalr	zero, 0x0(ra)
0x80000214: 00 c1 20 83 lw	ra, 0xc(sp)
0x80000218: 00 04 05 13 addi	a0, s0, 0x0
0x8000021c: 00 81 24 03 lw	s0, 0x8(sp)
0x80000220: 01 01 01 13 addi	sp, sp, 0x10
0x80000224: 00 00 80 67 jalr	zero, 0x0(ra)
0x80001390: 02 05 06 63 beq	a0, zero, 0x800013bc
0x80001394: 02 c1 20 83 lw	ra, 0x2c(sp)
0x80001398: 03 01 01 13 addi	sp, sp, 0x30
0x8000139c: 00 00 80 67 jalr	zero, 0x0(ra)
0x800014b8: 08 41 23 03 lw	t1, 0x84(sp)
0x800014bc: 08 81 23 83 lw	t2, 0x88(sp)
0x800014c0: 30 03 10 73 csrrw	zero, mstatus, t1
0x800014c4: 34 13 90 73 csrrw	zero, mepc, t2
0x800014c8: 00 41 20 83 lw	ra, 0x4(sp)
0x800014cc: 00 c1 21 83 lw	gp, 0xc(sp)
0x800014d0: 01 01 22 03 lw	tp, 0x10(sp)
0x800014d4: 01 41 22 83 lw	t0, 0x14(sp)
0x800014d8: 01 81 23 03 lw	t1, 0x18(sp)
0x800014dc: 01 c1 23 83 lw	t2, 0x1c(sp)
0x800014e0: 02 01 24 03 lw	s0, 0x20(sp)
0x800014e4: 02 41 24 83 lw	s1, 0x24(sp)
0x800014e8: 02 81 25 03 lw	a0, 0x28(sp)
0x800014ec: 02 c1 25 83 lw	a1, 0x2c(sp)
0x800014f0: 03 01 26 03 lw	a2, 0x30(sp)
0x800014f4: 03 41 26 83 lw	a3, 0x34(sp)
0x800014f8: 03 81 27 03 lw	a4, 0x38(sp)
0x800014fc: 03 c1 27 83 lw	a5, 0x3c(sp)
0x80001500: 04 01 28 03 lw	a6, 0x40(sp)
0x80001504: 04 41 28 83 lw	a7, 0x44(sp)
0x80001508: 04 81 29 03 lw	s2, 0x48(sp)
0x8000150c: 04 c1 29 83 lw	s3, 0x4c(sp)
0x80001510: 05 01 2a 03 lw	s4, 0x50(sp)
0x80001514: 05 41 2a 83 lw	s5, 0x54(sp)
0x80001518: 05 81 2b 03 lw	s6, 0x58(sp)
0x8000151c: 05 c1 2b 83 lw	s7, 0x5c(sp)
0x80001520: 06 01 2c 03 lw	s8, 0x60(sp)
0x80001524: 06 41 2c 83 lw	s9, 0x64(sp)
0x80001528: 06 81 2d 03 lw	s10, 0x68(sp)
0x8000152c: 06 c1 2d 83 lw	s11, 0x6c(sp)
0x80001530: 07 01 2e 03 lw	t3, 0x70(sp)
0x80001534: 07 41 2e 83 lw	t4, 0x74(sp)
0x80001538: 07 81 2f 03 lw	t5, 0x78(sp)
0x8000153c: 07 c1 2f 83 lw	t6, 0x7c(sp)
0x80001540: 08 c1 01 13 addi	sp, sp, 0x8c
0x80001544: 30 20 00 73 mret
0x80001400: 00 00 00 73 ecall
0x80001410: f7 41 01 13 addi	sp, sp, -0x8c
0x80001414: 00 11 22 23 sw	ra, 0x4(sp)
0x80001418: 00 31 26 23 sw	gp, 0xc(sp)
0x8000141c: 00 41 28 23 sw	tp, 0x10(sp)
0x80001420: 00 51 2a 23 sw	t0, 0x14(sp)
0x80001424: 00 61 2c 23 sw	t1, 0x18(sp)
0x80001428: 00 71 2e 23 sw	t2, 0x1c(sp)
0x8000142c: 02 81 20 23 sw	s0, 0x20(sp)
0x80001430: 02 91 22 23 sw	s1, 0x24(sp)
0x80001434: 02 a1 24 23 sw	a0, 0x28(sp)
0x80001438: 02 b1 26 23 sw	a1, 0x2c(sp)
0x8000143c: 02 c1 28 23 sw	a2, 0x30(sp)
0x80001440: 02 d1 2a 23 sw	a3, 0x34(sp)
0x80001444: 02 e1 2c 23 sw	a4, 0x38(sp)
0x80001448: 02 f1 2e 23 sw	a5, 0x3c(sp)
0x8000144c: 05 01 20 23 sw	a6, 0x40(sp)
0x80001450: 05 11 22 23 sw	a7, 0x44(sp)
0x80001454: 05 21 24 23 sw	s2, 0x48(sp)
0x80001458: 05 31 26 23 sw	s3, 0x4c(sp)
0x8000145c: 05 41 28 23 sw	s4, 0x50(sp)
0x80001460: 05 51 2a 23 sw	s5, 0x54(sp)
0x80001464: 05 61 2c 23 sw	s6, 0x58(sp)
0x80001468: 05 71 2e 23 sw	s7, 0x5c(sp)
0x8000146c: 07 81 20 23 sw	s8, 0x60(sp)
0x80001470: 07 91 22 23 sw	s9, 0x64(sp)
0x80001474: 07 a1 24 23 sw	s10, 0x68(sp)
0x80001478: 07 b1 26 23 sw	s11, 0x6c(sp)
0x8000147c: 07 c1 28 23 sw	t3, 0x70(sp)
0x80001480: 07 d1 2a 23 sw	t4, 0x74(sp)
0x80001484: 07 e1 2c 23 sw	t5, 0x78(sp)
0x80001488: 07 f1 2e 23 sw	t6, 0x7c(sp)
0x8000148c: 34 20 22 f3 csrrs	t0, mcause, zero
0x80001490: 30 00 23 73 csrrs	t1, mstatus, zero
0x80001494: 34 10 23 f3 csrrs	t2, mepc, zero
0x80001498: 08 51 20 23 sw	t0, 0x80(sp)
0x8000149c: 08 61 22 23 sw	t1, 0x84(sp)
0x800014a0: 08 71 24 23 sw	t2, 0x88(sp)
0x800014a4: 00 02 05 37 lui	a0, 0x20
0x800014a8: 00 a3 63 33 or	t1, t1, a0
0x800014ac: 30 03 10 73 csrrw	zero, mstatus, t1
0x800014b0: 00 01 05 13 addi	a0, sp, 0x0
0x800014b4: e8 5f f0 ef jal	ra, 0x80001338
0x80001338: 00 09 47 97 auipc	a5, 0x94
0x8000133c: c6 07 a7 83 lw	a5, -0x3a0(a5)
0x80001340: 00 05 05 93 addi	a1, a0, 0x0
0x80001344: 06 07 8a 63 beq	a5, zero, 0x800013b8
0x80001348: 08 05 26 03 lw	a2, 0x80(a0)
0x8000134c: fd 01 01 13 addi	sp, sp, -0x30
0x80001350: 02 11 26 23 sw	ra, 0x2c(sp)
0x80001354: 00 01 2a 23 sw	zero, 0x14(sp)
0x80001358: 00 01 2c 23 sw	zero, 0x18(sp)
0x8000135c: 00 01 2e 23 sw	zero, 0x1c(sp)
0x80001360: 00 b0 06 93 addi	a3, zero, 0xb
0x80001364: 00 40 07 13 addi	a4, zero, 0x4
0x80001368: 02 d6 0c 63 beq	a2, a3, 0x800013a0
0x800013a0: 04 45 26 03 lw	a2, 0x44(a0)
0x800013a4: ff f0 06 93 addi	a3, zero, -0x1
0x800013a8: 00 10 07 13 addi	a4, zero, 0x1
0x800013ac: fc d6 00 e3 beq	a2, a3, 0x8000136c
0x8000136c: 00 e1 20 23 sw	a4, 0x0(sp)
0x80001370: 01 41 27 03 lw	a4, 0x14(sp)
0x80001374: 00 01 05 13 addi	a0, sp, 0x0
0x80001378: 00 e1 22 23 sw	a4, 0x4(sp)
0x8000137c: 01 81 27 03 lw	a4, 0x18(sp)
0x80001380: 00 e1 24 23 sw	a4, 0x8(sp)
0x80001384: 01 c1 27 03 lw	a4, 0x1c(sp)
0x80001388: 00 e1 26 23 sw	a4, 0xc(sp)
0x8000138c: 00 07 80 e7 jalr	ra, 0x0(a5)
0x800001e0: 00 05 27 83 lw	a5, 0x0(a0)
0x800001e4: ff 01 01 13 addi	sp, sp, -0x10
0x800001e8: 00 81 24 23 sw	s0, 0x8(sp)
0x800001ec: 00 11 26 23 sw	ra, 0xc(sp)
0x800001f0: 00 50 07 13 addi	a4, zero, 0x5
0x800001f4: 00 05 84 13 addi	s0, a1, 0x0
0x800001f8: 04 e7 86 63 beq	a5, a4, 0x80000244
0x800001fc: 00 60 07 13 addi	a4, zero, 0x6
0x80000200: 02 e7 84 63 beq	a5, a4, 0x80000228
0x80000204: 00 10 07 13 addi	a4, zero, 0x1
0x80000208: 04 e7 9c 63 bne	a5, a4, 0x80000260
0x8000020c: 07 90 05 13 addi	a0, zero, 0x79
0x80000210: 59 90 00 ef jal	ra, 0x80000fa8
0x80000fa8: a0 00 07 b7 lui	a5, 0xa0000
0x80000fac: 3e a7 8c 23 sb	a0, 0x3f8(a5)
0x80000fb0: 00 00 80 67 jalr	zero, 0x0(ra)
0x80000214: 00 c1 20 83 lw	ra, 0xc(sp)
0x80000218: 00 04 05 13 addi	a0, s0, 0x0
0x8000021c: 00 81 24 03 lw	s0, 0x8(sp)
0x80000220: 01 01 01 13 addi	sp, sp, 0x10
0x80000224: 00 00 80 67 jalr	zero, 0x0(ra)
0x80001390: 02 05 06 63 beq	a0, zero, 0x800013bc
0x80001394: 02 c1 20 83 lw	ra, 0x2c(sp)
0x80001398: 03 01 01 13 addi	sp, sp, 0x30
0x8000139c: 00 00 80 67 jalr	zero, 0x0(ra)
0x800014b8: 08 41 23 03 lw	t1, 0x84(sp)
0x800014bc: 08 81 23 83 lw	t2, 0x88(sp)
0x800014c0: 30 03 10 73 csrrw	zero, mstatus, t1
0x800014c4: 34 13 90 73 csrrw	zero, mepc, t2
0x800014c8: 00 41 20 83 lw	ra, 0x4(sp)
0x800014cc: 00 c1 21 83 lw	gp, 0xc(sp)
0x800014d0: 01 01 22 03 lw	tp, 0x10(sp)
0x800014d4: 01 41 22 83 lw	t0, 0x14(sp)
0x800014d8: 01 81 23 03 lw	t1, 0x18(sp)
0x800014dc: 01 c1 23 83 lw	t2, 0x1c(sp)
0x800014e0: 02 01 24 03 lw	s0, 0x20(sp)
0x800014e4: 02 41 24 83 lw	s1, 0x24(sp)
0x800014e8: 02 81 25 03 lw	a0, 0x28(sp)
0x800014ec: 02 c1 25 83 lw	a1, 0x2c(sp)
0x800014f0: 03 01 26 03 lw	a2, 0x30(sp)
0x800014f4: 03 41 26 83 lw	a3, 0x34(sp)
0x800014f8: 03 81 27 03 lw	a4, 0x38(sp)
0x800014fc: 03 c1 27 83 lw	a5, 0x3c(sp)
0x80001500: 04 01 28 03 lw	a6, 0x40(sp)
0x80001504: 04 41 28 83 lw	a7, 0x44(sp)
0x80001508: 04 81 29 03 lw	s2, 0x48(sp)
0x8000150c: 04 c1 29 83 lw	s3, 0x4c(sp)
0x80001510: 05 01 2a 03 lw	s4, 0x50(sp)
0x80001514: 05 41 2a 83 lw	s5, 0x54(sp)
0x80001518: 05 81 2b 03 lw	s6, 0x58(sp)
0x8000151c: 05 c1 2b 83 lw	s7, 0x5c(sp)
0x80001520: 06 01 2c 03 lw	s8, 0x60(sp)
0x80001524: 06 41 2c 83 lw	s9, 0x64(sp)
0x80001528: 06 81 2d 03 lw	s10, 0x68(sp)
0x8000152c: 06 c1 2d 83 lw	s11, 0x6c(sp)
0x80001530: 07 01 2e 03 lw	t3, 0x70(sp)
0x80001534: 07 41 2e 83 lw	t4, 0x74(sp)
0x80001538: 07 81 2f 03 lw	t5, 0x78(sp)
0x8000153c: 07 c1 2f 83 lw	t6, 0x7c(sp)
0x80001540: 08 c1 01 13 addi	sp, sp, 0x8c
0x80001544: 30 20 00 73 mret
0x80001400: 00 00 00 73 ecall
0x80001410: f7 41 01 13 addi	sp, sp, -0x8c
0x80001414: 00 11 22 23 sw	ra, 0x4(sp)
0x80001418: 00 31 26 23 sw	gp, 0xc(sp)
0x8000141c: 00 41 28 23 sw	tp, 0x10(sp)
0x80001420: 00 51 2a 23 sw	t0, 0x14(sp)
0x80001424: 00 61 2c 23 sw	t1, 0x18(sp)
0x80001428: 00 71 2e 23 sw	t2, 0x1c(sp)
0x8000142c: 02 81 20 23 sw	s0, 0x20(sp)
0x80001430: 02 91 22 23 sw	s1, 0x24(sp)
0x80001434: 02 a1 24 23 sw	a0, 0x28(sp)
0x80001438: 02 b1 26 23 sw	a1, 0x2c(sp)
0x8000143c: 02 c1 28 23 sw	a2, 0x30(sp)
0x80001440: 02 d1 2a 23 sw	a3, 0x34(sp)
0x80001444: 02 e1 2c 23 sw	a4, 0x38(sp)
0x80001448: 02 f1 2e 23 sw	a5, 0x3c(sp)
0x8000144c: 05 01 20 23 sw	a6, 0x40(sp)
0x80001450: 05 11 22 23 sw	a7, 0x44(sp)
0x80001454: 05 21 24 23 sw	s2, 0x48(sp)
0x80001458: 05 31 26 23 sw	s3, 0x4c(sp)
0x8000145c: 05 41 28 23 sw	s4, 0x50(sp)
0x80001460: 05 51 2a 23 sw	s5, 0x54(sp)
0x80001464: 05 61 2c 23 sw	s6, 0x58(sp)
0x80001468: 05 71 2e 23 sw	s7, 0x5c(sp)
0x8000146c: 07 81 20 23 sw	s8, 0x60(sp)
0x80001470: 07 91 22 23 sw	s9, 0x64(sp)
0x80001474: 07 a1 24 23 sw	s10, 0x68(sp)
0x80001478: 07 b1 26 23 sw	s11, 0x6c(sp)
0x8000147c: 07 c1 28 23 sw	t3, 0x70(sp)
0x80001480: 07 d1 2a 23 sw	t4, 0x74(sp)
0x80001484: 07 e1 2c 23 sw	t5, 0x78(sp)
0x80001488: 07 f1 2e 23 sw	t6, 0x7c(sp)
0x8000148c: 34 20 22 f3 csrrs	t0, mcause, zero
0x80001490: 30 00 23 73 csrrs	t1, mstatus, zero
0x80001494: 34 10 23 f3 csrrs	t2, mepc, zero
0x80001498: 08 51 20 23 sw	t0, 0x80(sp)
0x8000149c: 08 61 22 23 sw	t1, 0x84(sp)
0x800014a0: 08 71 24 23 sw	t2, 0x88(sp)
0x800014a4: 00 02 05 37 lui	a0, 0x20
0x800014a8: 00 a3 63 33 or	t1, t1, a0
0x800014ac: 30 03 10 73 csrrw	zero, mstatus, t1
0x800014b0: 00 01 05 13 addi	a0, sp, 0x0
0x800014b4: e8 5f f0 ef jal	ra, 0x80001338
0x80001338: 00 09 47 97 auipc	a5, 0x94
0x8000133c: c6 07 a7 83 lw	a5, -0x3a0(a5)
0x80001340: 00 05 05 93 addi	a1, a0, 0x0
0x80001344: 06 07 8a 63 beq	a5, zero, 0x800013b8
0x80001348: 08 05 26 03 lw	a2, 0x80(a0)
0x8000134c: fd 01 01 13 addi	sp, sp, -0x30
0x80001350: 02 11 26 23 sw	ra, 0x2c(sp)
0x80001354: 00 01 2a 23 sw	zero, 0x14(sp)
0x80001358: 00 01 2c 23 sw	zero, 0x18(sp)
0x8000135c: 00 01 2e 23 sw	zero, 0x1c(sp)
0x80001360: 00 b0 06 93 addi	a3, zero, 0xb
0x80001364: 00 40 07 13 addi	a4, zero, 0x4
0x80001368: 02 d6 0c 63 beq	a2, a3, 0x800013a0
0x800013a0: 04 45 26 03 lw	a2, 0x44(a0)
0x800013a4: ff f0 06 93 addi	a3, zero, -0x1
0x800013a8: 00 10 07 13 addi	a4, zero, 0x1
0x800013ac: fc d6 00 e3 beq	a2, a3, 0x8000136c
0x8000136c: 00 e1 20 23 sw	a4, 0x0(sp)
0x80001370: 01 41 27 03 lw	a4, 0x14(sp)
0x80001374: 00 01 05 13 addi	a0, sp, 0x0
0x80001378: 00 e1 22 23 sw	a4, 0x4(sp)
0x8000137c: 01 81 27 03 lw	a4, 0x18(sp)
0x80001380: 00 e1 24 23 sw	a4, 0x8(sp)
0x80001384: 01 c1 27 03 lw	a4, 0x1c(sp)
0x80001388: 00 e1 26 23 sw	a4, 0xc(sp)
0x8000138c: 00 07 80 e7 jalr	ra, 0x0(a5)
0x800001e0: 00 05 27 83 lw	a5, 0x0(a0)
0x800001e4: ff 01 01 13 addi	sp, sp, -0x10
0x800001e8: 00 81 24 23 sw	s0, 0x8(sp)
0x800001ec: 00 11 26 23 sw	ra, 0xc(sp)
0x800001f0: 00 50 07 13 addi	a4, zero, 0x5
0x800001f4: 00 05 84 13 addi	s0, a1, 0x0
0x800001f8: 04 e7 86 63 beq	a5, a4, 0x80000244
0x800001fc: 00 60 07 13 addi	a4, zero, 0x6
0x80000200: 02 e7 84 63 beq	a5, a4, 0x80000228
0x80000204: 00 10 07 13 addi	a4, zero, 0x1
0x80000208: 04 e7 9c 63 bne	a5, a4, 0x80000260
0x8000020c: 07 90 05 13 addi	a0, zero, 0x79
0x80000210: 59 90 00 ef jal	ra, 0x80000fa8
0x80000fa8: a0 00 07 b7 lui	a5, 0xa0000
0x80000fac: 3e a7 8c 23 sb	a0, 0x3f8(a5)
0x80000fb0: 00 00 80 67 jalr	zero, 0x0(ra)
0x80000214: 00 c1 20 83 lw	ra, 0xc(sp)
0x80000218: 00 04 05 13 addi	a0, s0, 0x0
0x8000021c: 00 81 24 03 lw	s0, 0x8(sp)
0x80000220: 01 01 01 13 addi	sp, sp, 0x10
0x80000224: 00 00 80 67 jalr	zero, 0x0(ra)
0x80001390: 02 05 06 63 beq	a0, zero, 0x800013bc
0x80001394: 02 c1 20 83 lw	ra, 0x2c(sp)
0x80001398: 03 01 01 13 addi	sp, sp, 0x30
0x8000139c: 00 00 80 67 jalr	zero, 0x0(ra)
0x800014b8: 08 41 23 03 lw	t1, 0x84(sp)
0x800014bc: 08 81 23 83 lw	t2, 0x88(sp)
0x800014c0: 30 03 10 73 csrrw	zero, mstatus, t1
0x800014c4: 34 13 90 73 csrrw	zero, mepc, t2
0x800014c8: 00 41 20 83 lw	ra, 0x4(sp)
0x800014cc: 00 c1 21 83 lw	gp, 0xc(sp)
0x800014d0: 01 01 22 03 lw	tp, 0x10(sp)
0x800014d4: 01 41 22 83 lw	t0, 0x14(sp)
0x800014d8: 01 81 23 03 lw	t1, 0x18(sp)
0x800014dc: 01 c1 23 83 lw	t2, 0x1c(sp)
0x800014e0: 02 01 24 03 lw	s0, 0x20(sp)
0x800014e4: 02 41 24 83 lw	s1, 0x24(sp)
0x800014e8: 02 81 25 03 lw	a0, 0x28(sp)
0x800014ec: 02 c1 25 83 lw	a1, 0x2c(sp)
0x800014f0: 03 01 26 03 lw	a2, 0x30(sp)
0x800014f4: 03 41 26 83 lw	a3, 0x34(sp)
0x800014f8: 03 81 27 03 lw	a4, 0x38(sp)
0x800014fc: 03 c1 27 83 lw	a5, 0x3c(sp)
0x80001500: 04 01 28 03 lw	a6, 0x40(sp)
0x80001504: 04 41 28 83 lw	a7, 0x44(sp)
0x80001508: 04 81 29 03 lw	s2, 0x48(sp)
0x8000150c: 04 c1 29 83 lw	s3, 0x4c(sp)
0x80001510: 05 01 2a 03 lw	s4, 0x50(sp)
0x80001514: 05 41 2a 83 lw	s5, 0x54(sp)
0x80001518: 05 81 2b 03 lw	s6, 0x58(sp)
0x8000151c: 05 c1 2b 83 lw	s7, 0x5c(sp)
0x80001520: 06 01 2c 03 lw	s8, 0x60(sp)
0x80001524: 06 41 2c 83 lw	s9, 0x64(sp)
0x80001528: 06 81 2d 03 lw	s10, 0x68(sp)
0x8000152c: 06 c1 2d 83 lw	s11, 0x6c(sp)
0x80001530: 07 01 2e 03 lw	t3, 0x70(sp)
0x80001534: 07 41 2e 83 lw	t4, 0x74(sp)
0x80001538: 07 81 2f 03 lw	t5, 0x78(sp)
0x8000153c: 07 c1 2f 83 lw	t6, 0x7c(sp)
0x80001540: 08 c1 01 13 addi	sp, sp, 0x8c
0x80001544: 30 20 00 73 mret
0x80001400: 00 00 00 73 ecall
0x80001410: f7 41 01 13 addi	sp, sp, -0x8c
0x80001414: 00 11 22 23 sw	ra, 0x4(sp)
0x80001418: 00 31 26 23 sw	gp, 0xc(sp)
0x8000141c: 00 41 28 23 sw	tp, 0x10(sp)
0x80001420: 00 51 2a 23 sw	t0, 0x14(sp)
0x80001424: 00 61 2c 23 sw	t1, 0x18(sp)
0x80001428: 00 71 2e 23 sw	t2, 0x1c(sp)
0x8000142c: 02 81 20 23 sw	s0, 0x20(sp)
0x80001430: 02 91 22 23 sw	s1, 0x24(sp)
0x80001434: 02 a1 24 23 sw	a0, 0x28(sp)
0x80001438: 02 b1 26 23 sw	a1, 0x2c(sp)
0x8000143c: 02 c1 28 23 sw	a2, 0x30(sp)
0x80001440: 02 d1 2a 23 sw	a3, 0x34(sp)
0x80001444: 02 e1 2c 23 sw	a4, 0x38(sp)
0x80001448: 02 f1 2e 23 sw	a5, 0x3c(sp)
0x8000144c: 05 01 20 23 sw	a6, 0x40(sp)
0x80001450: 05 11 22 23 sw	a7, 0x44(sp)
0x80001454: 05 21 24 23 sw	s2, 0x48(sp)
0x80001458: 05 31 26 23 sw	s3, 0x4c(sp)
0x8000145c: 05 41 28 23 sw	s4, 0x50(sp)
0x80001460: 05 51 2a 23 sw	s5, 0x54(sp)
0x80001464: 05 61 2c 23 sw	s6, 0x58(sp)
0x80001468: 05 71 2e 23 sw	s7, 0x5c(sp)
0x8000146c: 07 81 20 23 sw	s8, 0x60(sp)
0x80001470: 07 91 22 23 sw	s9, 0x64(sp)
0x80001474: 07 a1 24 23 sw	s10, 0x68(sp)
0x80001478: 07 b1 26 23 sw	s11, 0x6c(sp)
0x8000147c: 07 c1 28 23 sw	t3, 0x70(sp)
0x80001480: 07 d1 2a 23 sw	t4, 0x74(sp)
0x80001484: 07 e1 2c 23 sw	t5, 0x78(sp)
0x80001488: 07 f1 2e 23 sw	t6, 0x7c(sp)
0x8000148c: 34 20 22 f3 csrrs	t0, mcause, zero
0x80001490: 30 00 23 73 csrrs	t1, mstatus, zero
0x80001494: 34 10 23 f3 csrrs	t2, mepc, zero
0x80001498: 08 51 20 23 sw	t0, 0x80(sp)
0x8000149c: 08 61 22 23 sw	t1, 0x84(sp)
0x800014a0: 08 71 24 23 sw	t2, 0x88(sp)
0x800014a4: 00 02 05 37 lui	a0, 0x20
0x800014a8: 00 a3 63 33 or	t1, t1, a0
0x800014ac: 30 03 10 73 csrrw	zero, mstatus, t1
0x800014b0: 00 01 05 13 addi	a0, sp, 0x0
0x800014b4: e8 5f f0 ef jal	ra, 0x80001338
0x80001338: 00 09 47 97 auipc	a5, 0x94
0x8000133c: c6 07 a7 83 lw	a5, -0x3a0(a5)
0x80001340: 00 05 05 93 addi	a1, a0, 0x0
0x80001344: 06 07 8a 63 beq	a5, zero, 0x800013b8
0x80001348: 08 05 26 03 lw	a2, 0x80(a0)
0x8000134c: fd 01 01 13 addi	sp, sp, -0x30
0x80001350: 02 11 26 23 sw	ra, 0x2c(sp)
0x80001354: 00 01 2a 23 sw	zero, 0x14(sp)
0x80001358: 00 01 2c 23 sw	zero, 0x18(sp)
0x8000135c: 00 01 2e 23 sw	zero, 0x1c(sp)
0x80001360: 00 b0 06 93 addi	a3, zero, 0xb
0x80001364: 00 40 07 13 addi	a4, zero, 0x4
0x80001368: 02 d6 0c 63 beq	a2, a3, 0x800013a0
0x800013a0: 04 45 26 03 lw	a2, 0x44(a0)
0x800013a4: ff f0 06 93 addi	a3, zero, -0x1
0x800013a8: 00 10 07 13 addi	a4, zero, 0x1
0x800013ac: fc d6 00 e3 beq	a2, a3, 0x8000136c
0x8000136c: 00 e1 20 23 sw	a4, 0x0(sp)
0x80001370: 01 41 27 03 lw	a4, 0x14(sp)
0x80001374: 00 01 05 13 addi	a0, sp, 0x0
0x80001378: 00 e1 22 23 sw	a4, 0x4(sp)
0x8000137c: 01 81 27 03 lw	a4, 0x18(sp)
0x80001380: 00 e1 24 23 sw	a4, 0x8(sp)
0x80001384: 01 c1 27 03 lw	a4, 0x1c(sp)
0x80001388: 00 e1 26 23 sw	a4, 0xc(sp)
0x8000138c: 00 07 80 e7 jalr	ra, 0x0(a5)
0x800001e0: 00 05 27 83 lw	a5, 0x0(a0)
0x800001e4: ff 01 01 13 addi	sp, sp, -0x10
0x800001e8: 00 81 24 23 sw	s0, 0x8(sp)
0x800001ec: 00 11 26 23 sw	ra, 0xc(sp)
0x800001f0: 00 50 07 13 addi	a4, zero, 0x5
0x800001f4: 00 05 84 13 addi	s0, a1, 0x0
0x800001f8: 04 e7 86 63 beq	a5, a4, 0x80000244
0x800001fc: 00 60 07 13 addi	a4, zero, 0x6
0x80000200: 02 e7 84 63 beq	a5, a4, 0x80000228
0x80000204: 00 10 07 13 addi	a4, zero, 0x1
0x80000208: 04 e7 9c 63 bne	a5, a4, 0x80000260
0x8000020c: 07 90 05 13 addi	a0, zero, 0x79
0x80000210: 59 90 00 ef jal	ra, 0x80000fa8
0x80000fa8: a0 00 07 b7 lui	a5, 0xa0000
0x80000fac: 3e a7 8c 23 sb	a0, 0x3f8(a5)
0x80000fb0: 00 00 80 67 jalr	zero, 0x0(ra)
0x80000214: 00 c1 20 83 lw	ra, 0xc(sp)
0x80000218: 00 04 05 13 addi	a0, s0, 0x0
0x8000021c: 00 81 24 03 lw	s0, 0x8(sp)
0x80000220: 01 01 01 13 addi	sp, sp, 0x10
0x80000224: 00 00 80 67 jalr	zero, 0x0(ra)
0x80001390: 02 05 06 63 beq	a0, zero, 0x800013bc
0x80001394: 02 c1 20 83 lw	ra, 0x2c(sp)
0x80001398: 03 01 01 13 addi	sp, sp, 0x30
0x8000139c: 00 00 80 67 jalr	zero, 0x0(ra)
0x800014b8: 08 41 23 03 lw	t1, 0x84(sp)
0x800014bc: 08 81 23 83 lw	t2, 0x88(sp)
0x800014c0: 30 03 10 73 csrrw	zero, mstatus, t1
0x800014c4: 34 13 90 73 csrrw	zero, mepc, t2
0x800014c8: 00 41 20 83 lw	ra, 0x4(sp)
0x800014cc: 00 c1 21 83 lw	gp, 0xc(sp)
0x800014d0: 01 01 22 03 lw	tp, 0x10(sp)
0x800014d4: 01 41 22 83 lw	t0, 0x14(sp)
0x800014d8: 01 81 23 03 lw	t1, 0x18(sp)
0x800014dc: 01 c1 23 83 lw	t2, 0x1c(sp)
0x800014e0: 02 01 24 03 lw	s0, 0x20(sp)
0x800014e4: 02 41 24 83 lw	s1, 0x24(sp)
0x800014e8: 02 81 25 03 lw	a0, 0x28(sp)
0x800014ec: 02 c1 25 83 lw	a1, 0x2c(sp)
0x800014f0: 03 01 26 03 lw	a2, 0x30(sp)
0x800014f4: 03 41 26 83 lw	a3, 0x34(sp)
0x800014f8: 03 81 27 03 lw	a4, 0x38(sp)
0x800014fc: 03 c1 27 83 lw	a5, 0x3c(sp)
0x80001500: 04 01 28 03 lw	a6, 0x40(sp)
0x80001504: 04 41 28 83 lw	a7, 0x44(sp)
0x80001508: 04 81 29 03 lw	s2, 0x48(sp)
0x8000150c: 04 c1 29 83 lw	s3, 0x4c(sp)
0x80001510: 05 01 2a 03 lw	s4, 0x50(sp)
0x80001514: 05 41 2a 83 lw	s5, 0x54(sp)
0x80001518: 05 81 2b 03 lw	s6, 0x58(sp)
0x8000151c: 05 c1 2b 83 lw	s7, 0x5c(sp)
0x80001520: 06 01 2c 03 lw	s8, 0x60(sp)
0x80001524: 06 41 2c 83 lw	s9, 0x64(sp)
0x80001528: 06 81 2d 03 lw	s10, 0x68(sp)
0x8000152c: 06 c1 2d 83 lw	s11, 0x6c(sp)
0x80001530: 07 01 2e 03 lw	t3, 0x70(sp)
0x80001534: 07 41 2e 83 lw	t4, 0x74(sp)
0x80001538: 07 81 2f 03 lw	t5, 0x78(sp)
0x8000153c: 07 c1 2f 83 lw	t6, 0x7c(sp)
0x80001540: 08 c1 01 13 addi	sp, sp, 0x8c
0x80001544: 30 20 00 73 mret
0x80001400: 00 00 00 73 ecall
0x80001410: f7 41 01 13 addi	sp, sp, -0x8c
0x80001414: 00 11 22 23 sw	ra, 0x4(sp)
0x80001418: 00 31 26 23 sw	gp, 0xc(sp)
0x8000141c: 00 41 28 23 sw	tp, 0x10(sp)
0x80001420: 00 51 2a 23 sw	t0, 0x14(sp)
0x80001424: 00 61 2c 23 sw	t1, 0x18(sp)
0x80001428: 00 71 2e 23 sw	t2, 0x1c(sp)
0x8000142c: 02 81 20 23 sw	s0, 0x20(sp)
0x80001430: 02 91 22 23 sw	s1, 0x24(sp)
0x80001434: 02 a1 24 23 sw	a0, 0x28(sp)
0x80001438: 02 b1 26 23 sw	a1, 0x2c(sp)
0x8000143c: 02 c1 28 23 sw	a2, 0x30(sp)
0x80001440: 02 d1 2a 23 sw	a3, 0x34(sp)
0x80001444: 02 e1 2c 23 sw	a4, 0x38(sp)
0x80001448: 02 f1 2e 23 sw	a5, 0x3c(sp)
0x8000144c: 05 01 20 23 sw	a6, 0x40(sp)
0x80001450: 05 11 22 23 sw	a7, 0x44(sp)
0x80001454: 05 21 24 23 sw	s2, 0x48(sp)
0x80001458: 05 31 26 23 sw	s3, 0x4c(sp)
0x8000145c: 05 41 28 23 sw	s4, 0x50(sp)
0x80001460: 05 51 2a 23 sw	s5, 0x54(sp)
0x80001464: 05 61 2c 23 sw	s6, 0x58(sp)
0x80001468: 05 71 2e 23 sw	s7, 0x5c(sp)
0x8000146c: 07 81 20 23 sw	s8, 0x60(sp)
0x80001470: 07 91 22 23 sw	s9, 0x64(sp)
0x80001474: 07 a1 24 23 sw	s10, 0x68(sp)
0x80001478: 07 b1 26 23 sw	s11, 0x6c(sp)
0x8000147c: 07 c1 28 23 sw	t3, 0x70(sp)
0x80001480: 07 d1 2a 23 sw	t4, 0x74(sp)
0x80001484: 07 e1 2c 23 sw	t5, 0x78(sp)
0x80001488: 07 f1 2e 23 sw	t6, 0x7c(sp)
0x8000148c: 34 20 22 f3 csrrs	t0, mcause, zero
0x80001490: 30 00 23 73 csrrs	t1, mstatus, zero
0x80001494: 34 10 23 f3 csrrs	t2, mepc, zero
0x80001498: 08 51 20 23 sw	t0, 0x80(sp)
0x8000149c: 08 61 22 23 sw	t1, 0x84(sp)
0x800014a0: 08 71 24 23 sw	t2, 0x88(sp)
0x800014a4: 00 02 05 37 lui	a0, 0x20
0x800014a8: 00 a3 63 33 or	t1, t1, a0
0x800014ac: 30 03 10 73 csrrw	zero, mstatus, t1
0x800014b0: 00 01 05 13 addi	a0, sp, 0x0
0x800014b4: e8 5f f0 ef jal	ra, 0x80001338
0x80001338: 00 09 47 97 auipc	a5, 0x94
0x8000133c: c6 07 a7 83 lw	a5, -0x3a0(a5)
0x80001340: 00 05 05 93 addi	a1, a0, 0x0
0x80001344: 06 07 8a 63 beq	a5, zero, 0x800013b8
0x80001348: 08 05 26 03 lw	a2, 0x80(a0)
0x8000134c: fd 01 01 13 addi	sp, sp, -0x30
0x80001350: 02 11 26 23 sw	ra, 0x2c(sp)
0x80001354: 00 01 2a 23 sw	zero, 0x14(sp)
0x80001358: 00 01 2c 23 sw	zero, 0x18(sp)
0x8000135c: 00 01 2e 23 sw	zero, 0x1c(sp)
0x80001360: 00 b0 06 93 addi	a3, zero, 0xb
0x80001364: 00 40 07 13 addi	a4, zero, 0x4
0x80001368: 02 d6 0c 63 beq	a2, a3, 0x800013a0
0x800013a0: 04 45 26 03 lw	a2, 0x44(a0)
0x800013a4: ff f0 06 93 addi	a3, zero, -0x1
0x800013a8: 00 10 07 13 addi	a4, zero, 0x1
0x800013ac: fc d6 00 e3 beq	a2, a3, 0x8000136c
0x8000136c: 00 e1 20 23 sw	a4, 0x0(sp)
0x80001370: 01 41 27 03 lw	a4, 0x14(sp)
0x80001374: 00 01 05 13 addi	a0, sp, 0x0
0x80001378: 00 e1 22 23 sw	a4, 0x4(sp)
0x8000137c: 01 81 27 03 lw	a4, 0x18(sp)
0x80001380: 00 e1 24 23 sw	a4, 0x8(sp)
0x80001384: 01 c1 27 03 lw	a4, 0x1c(sp)
0x80001388: 00 e1 26 23 sw	a4, 0xc(sp)
0x8000138c: 00 07 80 e7 jalr	ra, 0x0(a5)
0x800001e0: 00 05 27 83 lw	a5, 0x0(a0)
0x800001e4: ff 01 01 13 addi	sp, sp, -0x10
0x800001e8: 00 81 24 23 sw	s0, 0x8(sp)
0x800001ec: 00 11 26 23 sw	ra, 0xc(sp)
0x800001f0: 00 50 07 13 addi	a4, zero, 0x5
0x800001f4: 00 05 84 13 addi	s0, a1, 0x0
0x800001f8: 04 e7 86 63 beq	a5, a4, 0x80000244
0x800001fc: 00 60 07 13 addi	a4, zero, 0x6
0x80000200: 02 e7 84 63 beq	a5, a4, 0x80000228
0x80000204: 00 10 07 13 addi	a4, zero, 0x1
0x80000208: 04 e7 9c 63 bne	a5, a4, 0x80000260
0x8000020c: 07 90 05 13 addi	a0, zero, 0x79
0x80000210: 59 90 00 ef jal	ra, 0x80000fa8
0x80000fa8: a0 00 07 b7 lui	a5, 0xa0000
0x80000fac: 3e a7 8c 23 sb	a0, 0x3f8(a5)
0x80000fb0: 00 00 80 67 jalr	zero, 0x0(ra)
0x80000214: 00 c1 20 83 lw	ra, 0xc(sp)
0x80000218: 00 04 05 13 addi	a0, s0, 0x0
0x8000021c: 00 81 24 03 lw	s0, 0x8(sp)
0x80000220: 01 01 01 13 addi	sp, sp, 0x10
0x80000224: 00 00 80 67 jalr	zero, 0x0(ra)
0x80001390: 02 05 06 63 beq	a0, zero, 0x800013bc
0x80001394: 02 c1 20 83 lw	ra, 0x2c(sp)
0x80001398: 03 01 01 13 addi	sp, sp, 0x30
0x8000139c: 00 00 80 67 jalr	zero, 0x0(ra)
0x800014b8: 08 41 23 03 lw	t1, 0x84(sp)
0x800014bc: 08 81 23 83 lw	t2, 0x88(sp)
0x800014c0: 30 03 10 73 csrrw	zero, mstatus, t1
0x800014c4: 34 13 90 73 csrrw	zero, mepc, t2
0x800014c8: 00 41 20 83 lw	ra, 0x4(sp)
0x800014cc: 00 c1 21 83 lw	gp, 0xc(sp)
0x800014d0: 01 01 22 03 lw	tp, 0x10(sp)
0x800014d4: 01 41 22 83 lw	t0, 0x14(sp)
0x800014d8: 01 81 23 03 lw	t1, 0x18(sp)
0x800014dc: 01 c1 23 83 lw	t2, 0x1c(sp)
0x800014e0: 02 01 24 03 lw	s0, 0x20(sp)
0x800014e4: 02 41 24 83 lw	s1, 0x24(sp)
0x800014e8: 02 81 25 03 lw	a0, 0x28(sp)
0x800014ec: 02 c1 25 83 lw	a1, 0x2c(sp)
0x800014f0: 03 01 26 03 lw	a2, 0x30(sp)
0x800014f4: 03 41 26 83 lw	a3, 0x34(sp)
0x800014f8: 03 81 27 03 lw	a4, 0x38(sp)
0x800014fc: 03 c1 27 83 lw	a5, 0x3c(sp)
0x80001500: 04 01 28 03 lw	a6, 0x40(sp)
0x80001504: 04 41 28 83 lw	a7, 0x44(sp)
0x80001508: 04 81 29 03 lw	s2, 0x48(sp)
0x8000150c: 04 c1 29 83 lw	s3, 0x4c(sp)
0x80001510: 05 01 2a 03 lw	s4, 0x50(sp)
0x80001514: 05 41 2a 83 lw	s5, 0x54(sp)
0x80001518: 05 81 2b 03 lw	s6, 0x58(sp)
0x8000151c: 05 c1 2b 83 lw	s7, 0x5c(sp)
0x80001520: 06 01 2c 03 lw	s8, 0x60(sp)
0x80001524: 06 41 2c 83 lw	s9, 0x64(sp)
0x80001528: 06 81 2d 03 lw	s10, 0x68(sp)
0x8000152c: 06 c1 2d 83 lw	s11, 0x6c(sp)
0x80001530: 07 01 2e 03 lw	t3, 0x70(sp)
0x80001534: 07 41 2e 83 lw	t4, 0x74(sp)
0x80001538: 07 81 2f 03 lw	t5, 0x78(sp)
0x8000153c: 07 c1 2f 83 lw	t6, 0x7c(sp)
0x80001540: 08 c1 01 13 addi	sp, sp, 0x8c
0x80001544: 30 20 00 73 mret
0x80001400: 00 00 00 73 ecall
0x80001410: f7 41 01 13 addi	sp, sp, -0x8c
0x80001414: 00 11 22 23 sw	ra, 0x4(sp)
0x80001418: 00 31 26 23 sw	gp, 0xc(sp)
0x8000141c: 00 41 28 23 sw	tp, 0x10(sp)
0x80001420: 00 51 2a 23 sw	t0, 0x14(sp)
0x80001424: 00 61 2c 23 sw	t1, 0x18(sp)
0x80001428: 00 71 2e 23 sw	t2, 0x1c(sp)
0x8000142c: 02 81 20 23 sw	s0, 0x20(sp)
0x80001430: 02 91 22 23 sw	s1, 0x24(sp)
0x80001434: 02 a1 24 23 sw	a0, 0x28(sp)
0x80001438: 02 b1 26 23 sw	a1, 0x2c(sp)
0x8000143c: 02 c1 28 23 sw	a2, 0x30(sp)
0x80001440: 02 d1 2a 23 sw	a3, 0x34(sp)
0x80001444: 02 e1 2c 23 sw	a4, 0x38(sp)
0x80001448: 02 f1 2e 23 sw	a5, 0x3c(sp)
0x8000144c: 05 01 20 23 sw	a6, 0x40(sp)
0x80001450: 05 11 22 23 sw	a7, 0x44(sp)
0x80001454: 05 21 24 23 sw	s2, 0x48(sp)
0x80001458: 05 31 26 23 sw	s3, 0x4c(sp)
0x8000145c: 05 41 28 23 sw	s4, 0x50(sp)
0x80001460: 05 51 2a 23 sw	s5, 0x54(sp)
0x80001464: 05 61 2c 23 sw	s6, 0x58(sp)
0x80001468: 05 71 2e 23 sw	s7, 0x5c(sp)
0x8000146c: 07 81 20 23 sw	s8, 0x60(sp)
0x80001470: 07 91 22 23 sw	s9, 0x64(sp)
0x80001474: 07 a1 24 23 sw	s10, 0x68(sp)
0x80001478: 07 b1 26 23 sw	s11, 0x6c(sp)
0x8000147c: 07 c1 28 23 sw	t3, 0x70(sp)
0x80001480: 07 d1 2a 23 sw	t4, 0x74(sp)
0x80001484: 07 e1 2c 23 sw	t5, 0x78(sp)
0x80001488: 07 f1 2e 23 sw	t6, 0x7c(sp)
0x8000148c: 34 20 22 f3 csrrs	t0, mcause, zero
0x80001490: 30 00 23 73 csrrs	t1, mstatus, zero
0x80001494: 34 10 23 f3 csrrs	t2, mepc, zero
0x80001498: 08 51 20 23 sw	t0, 0x80(sp)
0x8000149c: 08 61 22 23 sw	t1, 0x84(sp)
0x800014a0: 08 71 24 23 sw	t2, 0x88(sp)
0x800014a4: 00 02 05 37 lui	a0, 0x20
0x800014a8: 00 a3 63 33 or	t1, t1, a0
0x800014ac: 30 03 10 73 csrrw	zero, mstatus, t1
0x800014b0: 00 01 05 13 addi	a0, sp, 0x0
0x800014b4: e8 5f f0 ef jal	ra, 0x80001338
0x80001338: 00 09 47 97 auipc	a5, 0x94
0x8000133c: c6 07 a7 83 lw	a5, -0x3a0(a5)
0x80001340: 00 05 05 93 addi	a1, a0, 0x0
0x80001344: 06 07 8a 63 beq	a5, zero, 0x800013b8
0x80001348: 08 05 26 03 lw	a2, 0x80(a0)
0x8000134c: fd 01 01 13 addi	sp, sp, -0x30
0x80001350: 02 11 26 23 sw	ra, 0x2c(sp)
0x80001354: 00 01 2a 23 sw	zero, 0x14(sp)
0x80001358: 00 01 2c 23 sw	zero, 0x18(sp)
0x8000135c: 00 01 2e 23 sw	zero, 0x1c(sp)
0x80001360: 00 b0 06 93 addi	a3, zero, 0xb
0x80001364: 00 40 07 13 addi	a4, zero, 0x4
0x80001368: 02 d6 0c 63 beq	a2, a3, 0x800013a0
0x800013a0: 04 45 26 03 lw	a2, 0x44(a0)
0x800013a4: ff f0 06 93 addi	a3, zero, -0x1
0x800013a8: 00 10 07 13 addi	a4, zero, 0x1
0x800013ac: fc d6 00 e3 beq	a2, a3, 0x8000136c
0x8000136c: 00 e1 20 23 sw	a4, 0x0(sp)
0x80001370: 01 41 27 03 lw	a4, 0x14(sp)
0x80001374: 00 01 05 13 addi	a0, sp, 0x0
0x80001378: 00 e1 22 23 sw	a4, 0x4(sp)
0x8000137c: 01 81 27 03 lw	a4, 0x18(sp)
0x80001380: 00 e1 24 23 sw	a4, 0x8(sp)
0x80001384: 01 c1 27 03 lw	a4, 0x1c(sp)
0x80001388: 00 e1 26 23 sw	a4, 0xc(sp)
0x8000138c: 00 07 80 e7 jalr	ra, 0x0(a5)
0x800001e0: 00 05 27 83 lw	a5, 0x0(a0)
0x800001e4: ff 01 01 13 addi	sp, sp, -0x10
0x800001e8: 00 81 24 23 sw	s0, 0x8(sp)
0x800001ec: 00 11 26 23 sw	ra, 0xc(sp)
0x800001f0: 00 50 07 13 addi	a4, zero, 0x5
0x800001f4: 00 05 84 13 addi	s0, a1, 0x0
0x800001f8: 04 e7 86 63 beq	a5, a4, 0x80000244
0x800001fc: 00 60 07 13 addi	a4, zero, 0x6
0x80000200: 02 e7 84 63 beq	a5, a4, 0x80000228
0x80000204: 00 10 07 13 addi	a4, zero, 0x1
0x80000208: 04 e7 9c 63 bne	a5, a4, 0x80000260
0x8000020c: 07 90 05 13 addi	a0, zero, 0x79
0x80000210: 59 90 00 ef jal	ra, 0x80000fa8
0x80000fa8: a0 00 07 b7 lui	a5, 0xa0000
0x80000fac: 3e a7 8c 23 sb	a0, 0x3f8(a5)
0x80000fb0: 00 00 80 67 jalr	zero, 0x0(ra)
0x80000214: 00 c1 20 83 lw	ra, 0xc(sp)
0x80000218: 00 04 05 13 addi	a0, s0, 0x0
0x8000021c: 00 81 24 03 lw	s0, 0x8(sp)
0x80000220: 01 01 01 13 addi	sp, sp, 0x10
0x80000224: 00 00 80 67 jalr	zero, 0x0(ra)
0x80001390: 02 05 06 63 beq	a0, zero, 0x800013bc
0x80001394: 02 c1 20 83 lw	ra, 0x2c(sp)
0x80001398: 03 01 01 13 addi	sp, sp, 0x30
0x8000139c: 00 00 80 67 jalr	zero, 0x0(ra)
0x800014b8: 08 41 23 03 lw	t1, 0x84(sp)
0x800014bc: 08 81 23 83 lw	t2, 0x88(sp)
0x800014c0: 30 03 10 73 csrrw	zero, mstatus, t1
0x800014c4: 34 13 90 73 csrrw	zero, mepc, t2
0x800014c8: 00 41 20 83 lw	ra, 0x4(sp)
0x800014cc: 00 c1 21 83 lw	gp, 0xc(sp)
0x800014d0: 01 01 22 03 lw	tp, 0x10(sp)
0x800014d4: 01 41 22 83 lw	t0, 0x14(sp)
0x800014d8: 01 81 23 03 lw	t1, 0x18(sp)
0x800014dc: 01 c1 23 83 lw	t2, 0x1c(sp)
0x800014e0: 02 01 24 03 lw	s0, 0x20(sp)
0x800014e4: 02 41 24 83 lw	s1, 0x24(sp)
0x800014e8: 02 81 25 03 lw	a0, 0x28(sp)
0x800014ec: 02 c1 25 83 lw	a1, 0x2c(sp)
0x800014f0: 03 01 26 03 lw	a2, 0x30(sp)
0x800014f4: 03 41 26 83 lw	a3, 0x34(sp)
0x800014f8: 03 81 27 03 lw	a4, 0x38(sp)
0x800014fc: 03 c1 27 83 lw	a5, 0x3c(sp)
0x80001500: 04 01 28 03 lw	a6, 0x40(sp)
0x80001504: 04 41 28 83 lw	a7, 0x44(sp)
0x80001508: 04 81 29 03 lw	s2, 0x48(sp)
0x8000150c: 04 c1 29 83 lw	s3, 0x4c(sp)
0x80001510: 05 01 2a 03 lw	s4, 0x50(sp)
0x80001514: 05 41 2a 83 lw	s5, 0x54(sp)
0x80001518: 05 81 2b 03 lw	s6, 0x58(sp)
0x8000151c: 05 c1 2b 83 lw	s7, 0x5c(sp)
0x80001520: 06 01 2c 03 lw	s8, 0x60(sp)
0x80001524: 06 41 2c 83 lw	s9, 0x64(sp)
0x80001528: 06 81 2d 03 lw	s10, 0x68(sp)
0x8000152c: 06 c1 2d 83 lw	s11, 0x6c(sp)
0x80001530: 07 01 2e 03 lw	t3, 0x70(sp)
0x80001534: 07 41 2e 83 lw	t4, 0x74(sp)
0x80001538: 07 81 2f 03 lw	t5, 0x78(sp)
0x8000153c: 07 c1 2f 83 lw	t6, 0x7c(sp)
0x80001540: 08 c1 01 13 addi	sp, sp, 0x8c
0x80001544: 30 20 00 73 mret
0x80001400: 00 00 00 73 ecall
0x80001410: f7 41 01 13 addi	sp, sp, -0x8c
0x80001414: 00 11 22 23 sw	ra, 0x4(sp)
0x80001418: 00 31 26 23 sw	gp, 0xc(sp)
0x8000141c: 00 41 28 23 sw	tp, 0x10(sp)
0x80001420: 00 51 2a 23 sw	t0, 0x14(sp)
0x80001424: 00 61 2c 23 sw	t1, 0x18(sp)
0x80001428: 00 71 2e 23 sw	t2, 0x1c(sp)
0x8000142c: 02 81 20 23 sw	s0, 0x20(sp)
0x80001430: 02 91 22 23 sw	s1, 0x24(sp)
0x80001434: 02 a1 24 23 sw	a0, 0x28(sp)
0x80001438: 02 b1 26 23 sw	a1, 0x2c(sp)
0x8000143c: 02 c1 28 23 sw	a2, 0x30(sp)
0x80001440: 02 d1 2a 23 sw	a3, 0x34(sp)
0x80001444: 02 e1 2c 23 sw	a4, 0x38(sp)
0x80001448: 02 f1 2e 23 sw	a5, 0x3c(sp)
0x8000144c: 05 01 20 23 sw	a6, 0x40(sp)
0x80001450: 05 11 22 23 sw	a7, 0x44(sp)
0x80001454: 05 21 24 23 sw	s2, 0x48(sp)
0x80001458: 05 31 26 23 sw	s3, 0x4c(sp)
0x8000145c: 05 41 28 23 sw	s4, 0x50(sp)
0x80001460: 05 51 2a 23 sw	s5, 0x54(sp)
0x80001464: 05 61 2c 23 sw	s6, 0x58(sp)
0x80001468: 05 71 2e 23 sw	s7, 0x5c(sp)
0x8000146c: 07 81 20 23 sw	s8, 0x60(sp)
0x80001470: 07 91 22 23 sw	s9, 0x64(sp)
0x80001474: 07 a1 24 23 sw	s10, 0x68(sp)
0x80001478: 07 b1 26 23 sw	s11, 0x6c(sp)
0x8000147c: 07 c1 28 23 sw	t3, 0x70(sp)
0x80001480: 07 d1 2a 23 sw	t4, 0x74(sp)
0x80001484: 07 e1 2c 23 sw	t5, 0x78(sp)
0x80001488: 07 f1 2e 23 sw	t6, 0x7c(sp)
0x8000148c: 34 20 22 f3 csrrs	t0, mcause, zero
0x80001490: 30 00 23 73 csrrs	t1, mstatus, zero
0x80001494: 34 10 23 f3 csrrs	t2, mepc, zero
0x80001498: 08 51 20 23 sw	t0, 0x80(sp)
0x8000149c: 08 61 22 23 sw	t1, 0x84(sp)
0x800014a0: 08 71 24 23 sw	t2, 0x88(sp)
0x800014a4: 00 02 05 37 lui	a0, 0x20
0x800014a8: 00 a3 63 33 or	t1, t1, a0
0x800014ac: 30 03 10 73 csrrw	zero, mstatus, t1
0x800014b0: 00 01 05 13 addi	a0, sp, 0x0
0x800014b4: e8 5f f0 ef jal	ra, 0x80001338
0x80001338: 00 09 47 97 auipc	a5, 0x94
0x8000133c: c6 07 a7 83 lw	a5, -0x3a0(a5)
0x80001340: 00 05 05 93 addi	a1, a0, 0x0
0x80001344: 06 07 8a 63 beq	a5, zero, 0x800013b8
0x80001348: 08 05 26 03 lw	a2, 0x80(a0)
0x8000134c: fd 01 01 13 addi	sp, sp, -0x30
0x80001350: 02 11 26 23 sw	ra, 0x2c(sp)
0x80001354: 00 01 2a 23 sw	zero, 0x14(sp)
0x80001358: 00 01 2c 23 sw	zero, 0x18(sp)
0x8000135c: 00 01 2e 23 sw	zero, 0x1c(sp)
0x80001360: 00 b0 06 93 addi	a3, zero, 0xb
0x80001364: 00 40 07 13 addi	a4, zero, 0x4
0x80001368: 02 d6 0c 63 beq	a2, a3, 0x800013a0
0x800013a0: 04 45 26 03 lw	a2, 0x44(a0)
0x800013a4: ff f0 06 93 addi	a3, zero, -0x1
0x800013a8: 00 10 07 13 addi	a4, zero, 0x1
0x800013ac: fc d6 00 e3 beq	a2, a3, 0x8000136c
0x8000136c: 00 e1 20 23 sw	a4, 0x0(sp)
0x80001370: 01 41 27 03 lw	a4, 0x14(sp)
0x80001374: 00 01 05 13 addi	a0, sp, 0x0
0x80001378: 00 e1 22 23 sw	a4, 0x4(sp)
0x8000137c: 01 81 27 03 lw	a4, 0x18(sp)
0x80001380: 00 e1 24 23 sw	a4, 0x8(sp)
0x80001384: 01 c1 27 03 lw	a4, 0x1c(sp)
0x80001388: 00 e1 26 23 sw	a4, 0xc(sp)
0x8000138c: 00 07 80 e7 jalr	ra, 0x0(a5)
0x800001e0: 00 05 27 83 lw	a5, 0x0(a0)
0x800001e4: ff 01 01 13 addi	sp, sp, -0x10
0x800001e8: 00 81 24 23 sw	s0, 0x8(sp)
0x800001ec: 00 11 26 23 sw	ra, 0xc(sp)
0x800001f0: 00 50 07 13 addi	a4, zero, 0x5
0x800001f4: 00 05 84 13 addi	s0, a1, 0x0
0x800001f8: 04 e7 86 63 beq	a5, a4, 0x80000244
0x800001fc: 00 60 07 13 addi	a4, zero, 0x6
0x80000200: 02 e7 84 63 beq	a5, a4, 0x80000228
0x80000204: 00 10 07 13 addi	a4, zero, 0x1
0x80000208: 04 e7 9c 63 bne	a5, a4, 0x80000260
0x8000020c: 07 90 05 13 addi	a0, zero, 0x79
0x80000210: 59 90 00 ef jal	ra, 0x80000fa8
0x80000fa8: a0 00 07 b7 lui	a5, 0xa0000
0x80000fac: 3e a7 8c 23 sb	a0, 0x3f8(a5)
0x80000fb0: 00 00 80 67 jalr	zero, 0x0(ra)
0x80000214: 00 c1 20 83 lw	ra, 0xc(sp)
0x80000218: 00 04 05 13 addi	a0, s0, 0x0
0x8000021c: 00 81 24 03 lw	s0, 0x8(sp)
0x80000220: 01 01 01 13 addi	sp, sp, 0x10
0x80000224: 00 00 80 67 jalr	zero, 0x0(ra)
0x80001390: 02 05 06 63 beq	a0, zero, 0x800013bc
0x80001394: 02 c1 20 83 lw	ra, 0x2c(sp)
0x80001398: 03 01 01 13 addi	sp, sp, 0x30
0x8000139c: 00 00 80 67 jalr	zero, 0x0(ra)
0x800014b8: 08 41 23 03 lw	t1, 0x84(sp)
0x800014bc: 08 81 23 83 lw	t2, 0x88(sp)
0x800014c0: 30 03 10 73 csrrw	zero, mstatus, t1
0x800014c4: 34 13 90 73 csrrw	zero, mepc, t2
0x800014c8: 00 41 20 83 lw	ra, 0x4(sp)
0x800014cc: 00 c1 21 83 lw	gp, 0xc(sp)
0x800014d0: 01 01 22 03 lw	tp, 0x10(sp)
0x800014d4: 01 41 22 83 lw	t0, 0x14(sp)
0x800014d8: 01 81 23 03 lw	t1, 0x18(sp)
0x800014dc: 01 c1 23 83 lw	t2, 0x1c(sp)
0x800014e0: 02 01 24 03 lw	s0, 0x20(sp)
0x800014e4: 02 41 24 83 lw	s1, 0x24(sp)
0x800014e8: 02 81 25 03 lw	a0, 0x28(sp)
0x800014ec: 02 c1 25 83 lw	a1, 0x2c(sp)
0x800014f0: 03 01 26 03 lw	a2, 0x30(sp)
0x800014f4: 03 41 26 83 lw	a3, 0x34(sp)
0x800014f8: 03 81 27 03 lw	a4, 0x38(sp)
0x800014fc: 03 c1 27 83 lw	a5, 0x3c(sp)
0x80001500: 04 01 28 03 lw	a6, 0x40(sp)
0x80001504: 04 41 28 83 lw	a7, 0x44(sp)
0x80001508: 04 81 29 03 lw	s2, 0x48(sp)
0x8000150c: 04 c1 29 83 lw	s3, 0x4c(sp)
0x80001510: 05 01 2a 03 lw	s4, 0x50(sp)
0x80001514: 05 41 2a 83 lw	s5, 0x54(sp)
0x80001518: 05 81 2b 03 lw	s6, 0x58(sp)
0x8000151c: 05 c1 2b 83 lw	s7, 0x5c(sp)
0x80001520: 06 01 2c 03 lw	s8, 0x60(sp)
0x80001524: 06 41 2c 83 lw	s9, 0x64(sp)
0x80001528: 06 81 2d 03 lw	s10, 0x68(sp)
0x8000152c: 06 c1 2d 83 lw	s11, 0x6c(sp)
0x80001530: 07 01 2e 03 lw	t3, 0x70(sp)
0x80001534: 07 41 2e 83 lw	t4, 0x74(sp)
0x80001538: 07 81 2f 03 lw	t5, 0x78(sp)
0x8000153c: 07 c1 2f 83 lw	t6, 0x7c(sp)
0x80001540: 08 c1 01 13 addi	sp, sp, 0x8c
0x80001544: 30 20 00 73 mret
0x80001400: 00 00 00 73 ecall
0x80001410: f7 41 01 13 addi	sp, sp, -0x8c
0x80001414: 00 11 22 23 sw	ra, 0x4(sp)
0x80001418: 00 31 26 23 sw	gp, 0xc(sp)
0x8000141c: 00 41 28 23 sw	tp, 0x10(sp)
0x80001420: 00 51 2a 23 sw	t0, 0x14(sp)
0x80001424: 00 61 2c 23 sw	t1, 0x18(sp)
0x80001428: 00 71 2e 23 sw	t2, 0x1c(sp)
0x8000142c: 02 81 20 23 sw	s0, 0x20(sp)
0x80001430: 02 91 22 23 sw	s1, 0x24(sp)
0x80001434: 02 a1 24 23 sw	a0, 0x28(sp)
0x80001438: 02 b1 26 23 sw	a1, 0x2c(sp)
0x8000143c: 02 c1 28 23 sw	a2, 0x30(sp)
0x80001440: 02 d1 2a 23 sw	a3, 0x34(sp)
0x80001444: 02 e1 2c 23 sw	a4, 0x38(sp)
0x80001448: 02 f1 2e 23 sw	a5, 0x3c(sp)
0x8000144c: 05 01 20 23 sw	a6, 0x40(sp)
0x80001450: 05 11 22 23 sw	a7, 0x44(sp)
0x80001454: 05 21 24 23 sw	s2, 0x48(sp)
0x80001458: 05 31 26 23 sw	s3, 0x4c(sp)
0x8000145c: 05 41 28 23 sw	s4, 0x50(sp)
0x80001460: 05 51 2a 23 sw	s5, 0x54(sp)
0x80001464: 05 61 2c 23 sw	s6, 0x58(sp)
0x80001468: 05 71 2e 23 sw	s7, 0x5c(sp)
0x8000146c: 07 81 20 23 sw	s8, 0x60(sp)
0x80001470: 07 91 22 23 sw	s9, 0x64(sp)
0x80001474: 07 a1 24 23 sw	s10, 0x68(sp)
0x80001478: 07 b1 26 23 sw	s11, 0x6c(sp)
0x8000147c: 07 c1 28 23 sw	t3, 0x70(sp)
0x80001480: 07 d1 2a 23 sw	t4, 0x74(sp)
0x80001484: 07 e1 2c 23 sw	t5, 0x78(sp)
0x80001488: 07 f1 2e 23 sw	t6, 0x7c(sp)
0x8000148c: 34 20 22 f3 csrrs	t0, mcause, zero
0x80001490: 30 00 23 73 csrrs	t1, mstatus, zero
0x80001494: 34 10 23 f3 csrrs	t2, mepc, zero
0x80001498: 08 51 20 23 sw	t0, 0x80(sp)
0x8000149c: 08 61 22 23 sw	t1, 0x84(sp)
0x800014a0: 08 71 24 23 sw	t2, 0x88(sp)
0x800014a4: 00 02 05 37 lui	a0, 0x20
0x800014a8: 00 a3 63 33 or	t1, t1, a0
0x800014ac: 30 03 10 73 csrrw	zero, mstatus, t1
0x800014b0: 00 01 05 13 addi	a0, sp, 0x0
0x800014b4: e8 5f f0 ef jal	ra, 0x80001338
0x80001338: 00 09 47 97 auipc	a5, 0x94
0x8000133c: c6 07 a7 83 lw	a5, -0x3a0(a5)
0x80001340: 00 05 05 93 addi	a1, a0, 0x0
0x80001344: 06 07 8a 63 beq	a5, zero, 0x800013b8
0x80001348: 08 05 26 03 lw	a2, 0x80(a0)
0x8000134c: fd 01 01 13 addi	sp, sp, -0x30
0x80001350: 02 11 26 23 sw	ra, 0x2c(sp)
0x80001354: 00 01 2a 23 sw	zero, 0x14(sp)
0x80001358: 00 01 2c 23 sw	zero, 0x18(sp)
0x8000135c: 00 01 2e 23 sw	zero, 0x1c(sp)
0x80001360: 00 b0 06 93 addi	a3, zero, 0xb
0x80001364: 00 40 07 13 addi	a4, zero, 0x4
0x80001368: 02 d6 0c 63 beq	a2, a3, 0x800013a0
0x800013a0: 04 45 26 03 lw	a2, 0x44(a0)
0x800013a4: ff f0 06 93 addi	a3, zero, -0x1
0x800013a8: 00 10 07 13 addi	a4, zero, 0x1
0x800013ac: fc d6 00 e3 beq	a2, a3, 0x8000136c
0x8000136c: 00 e1 20 23 sw	a4, 0x0(sp)
0x80001370: 01 41 27 03 lw	a4, 0x14(sp)
0x80001374: 00 01 05 13 addi	a0, sp, 0x0
0x80001378: 00 e1 22 23 sw	a4, 0x4(sp)
0x8000137c: 01 81 27 03 lw	a4, 0x18(sp)
0x80001380: 00 e1 24 23 sw	a4, 0x8(sp)
0x80001384: 01 c1 27 03 lw	a4, 0x1c(sp)
0x80001388: 00 e1 26 23 sw	a4, 0xc(sp)
0x8000138c: 00 07 80 e7 jalr	ra, 0x0(a5)
0x800001e0: 00 05 27 83 lw	a5, 0x0(a0)
0x800001e4: ff 01 01 13 addi	sp, sp, -0x10
0x800001e8: 00 81 24 23 sw	s0, 0x8(sp)
0x800001ec: 00 11 26 23 sw	ra, 0xc(sp)
0x800001f0: 00 50 07 13 addi	a4, zero, 0x5
0x800001f4: 00 05 84 13 addi	s0, a1, 0x0
0x800001f8: 04 e7 86 63 beq	a5, a4, 0x80000244
0x800001fc: 00 60 07 13 addi	a4, zero, 0x6
0x80000200: 02 e7 84 63 beq	a5, a4, 0x80000228
0x80000204: 00 10 07 13 addi	a4, zero, 0x1
0x80000208: 04 e7 9c 63 bne	a5, a4, 0x80000260
0x8000020c: 07 90 05 13 addi	a0, zero, 0x79
0x80000210: 59 90 00 ef jal	ra, 0x80000fa8
0x80000fa8: a0 00 07 b7 lui	a5, 0xa0000
0x80000fac: 3e a7 8c 23 sb	a0, 0x3f8(a5)
0x80000fb0: 00 00 80 67 jalr	zero, 0x0(ra)
0x80000214: 00 c1 20 83 lw	ra, 0xc(sp)
0x80000218: 00 04 05 13 addi	a0, s0, 0x0
0x8000021c: 00 81 24 03 lw	s0, 0x8(sp)
0x80000220: 01 01 01 13 addi	sp, sp, 0x10
0x80000224: 00 00 80 67 jalr	zero, 0x0(ra)
0x80001390: 02 05 06 63 beq	a0, zero, 0x800013bc
0x80001394: 02 c1 20 83 lw	ra, 0x2c(sp)
0x80001398: 03 01 01 13 addi	sp, sp, 0x30
0x8000139c: 00 00 80 67 jalr	zero, 0x0(ra)
0x800014b8: 08 41 23 03 lw	t1, 0x84(sp)
0x800014bc: 08 81 23 83 lw	t2, 0x88(sp)
0x800014c0: 30 03 10 73 csrrw	zero, mstatus, t1
0x800014c4: 34 13 90 73 csrrw	zero, mepc, t2
0x800014c8: 00 41 20 83 lw	ra, 0x4(sp)
0x800014cc: 00 c1 21 83 lw	gp, 0xc(sp)
0x800014d0: 01 01 22 03 lw	tp, 0x10(sp)
0x800014d4: 01 41 22 83 lw	t0, 0x14(sp)
0x800014d8: 01 81 23 03 lw	t1, 0x18(sp)
0x800014dc: 01 c1 23 83 lw	t2, 0x1c(sp)
0x800014e0: 02 01 24 03 lw	s0, 0x20(sp)
0x800014e4: 02 41 24 83 lw	s1, 0x24(sp)
0x800014e8: 02 81 25 03 lw	a0, 0x28(sp)
0x800014ec: 02 c1 25 83 lw	a1, 0x2c(sp)
0x800014f0: 03 01 26 03 lw	a2, 0x30(sp)
0x800014f4: 03 41 26 83 lw	a3, 0x34(sp)
0x800014f8: 03 81 27 03 lw	a4, 0x38(sp)
0x800014fc: 03 c1 27 83 lw	a5, 0x3c(sp)
0x80001500: 04 01 28 03 lw	a6, 0x40(sp)
0x80001504: 04 41 28 83 lw	a7, 0x44(sp)
0x80001508: 04 81 29 03 lw	s2, 0x48(sp)
0x8000150c: 04 c1 29 83 lw	s3, 0x4c(sp)
0x80001510: 05 01 2a 03 lw	s4, 0x50(sp)
0x80001514: 05 41 2a 83 lw	s5, 0x54(sp)
0x80001518: 05 81 2b 03 lw	s6, 0x58(sp)
0x8000151c: 05 c1 2b 83 lw	s7, 0x5c(sp)
0x80001520: 06 01 2c 03 lw	s8, 0x60(sp)
0x80001524: 06 41 2c 83 lw	s9, 0x64(sp)
0x80001528: 06 81 2d 03 lw	s10, 0x68(sp)
0x8000152c: 06 c1 2d 83 lw	s11, 0x6c(sp)
0x80001530: 07 01 2e 03 lw	t3, 0x70(sp)
0x80001534: 07 41 2e 83 lw	t4, 0x74(sp)
0x80001538: 07 81 2f 03 lw	t5, 0x78(sp)
0x8000153c: 07 c1 2f 83 lw	t6, 0x7c(sp)
0x80001540: 08 c1 01 13 addi	sp, sp, 0x8c
0x80001544: 30 20 00 73 mret
0x80001400: 00 00 00 73 ecall
0x80001410: f7 41 01 13 addi	sp, sp, -0x8c
0x80001414: 00 11 22 23 sw	ra, 0x4(sp)
0x80001418: 00 31 26 23 sw	gp, 0xc(sp)
0x8000141c: 00 41 28 23 sw	tp, 0x10(sp)
0x80001420: 00 51 2a 23 sw	t0, 0x14(sp)
0x80001424: 00 61 2c 23 sw	t1, 0x18(sp)
0x80001428: 00 71 2e 23 sw	t2, 0x1c(sp)
0x8000142c: 02 81 20 23 sw	s0, 0x20(sp)
0x80001430: 02 91 22 23 sw	s1, 0x24(sp)
0x80001434: 02 a1 24 23 sw	a0, 0x28(sp)
0x80001438: 02 b1 26 23 sw	a1, 0x2c(sp)
0x8000143c: 02 c1 28 23 sw	a2, 0x30(sp)
0x80001440: 02 d1 2a 23 sw	a3, 0x34(sp)
0x80001444: 02 e1 2c 23 sw	a4, 0x38(sp)
0x80001448: 02 f1 2e 23 sw	a5, 0x3c(sp)
0x8000144c: 05 01 20 23 sw	a6, 0x40(sp)
0x80001450: 05 11 22 23 sw	a7, 0x44(sp)
0x80001454: 05 21 24 23 sw	s2, 0x48(sp)
0x80001458: 05 31 26 23 sw	s3, 0x4c(sp)
0x8000145c: 05 41 28 23 sw	s4, 0x50(sp)
0x80001460: 05 51 2a 23 sw	s5, 0x54(sp)
0x80001464: 05 61 2c 23 sw	s6, 0x58(sp)
0x80001468: 05 71 2e 23 sw	s7, 0x5c(sp)
0x8000146c: 07 81 20 23 sw	s8, 0x60(sp)
0x80001470: 07 91 22 23 sw	s9, 0x64(sp)
0x80001474: 07 a1 24 23 sw	s10, 0x68(sp)
0x80001478: 07 b1 26 23 sw	s11, 0x6c(sp)
0x8000147c: 07 c1 28 23 sw	t3, 0x70(sp)
0x80001480: 07 d1 2a 23 sw	t4, 0x74(sp)
0x80001484: 07 e1 2c 23 sw	t5, 0x78(sp)
0x80001488: 07 f1 2e 23 sw	t6, 0x7c(sp)
0x8000148c: 34 20 22 f3 csrrs	t0, mcause, zero
0x80001490: 30 00 23 73 csrrs	t1, mstatus, zero
0x80001494: 34 10 23 f3 csrrs	t2, mepc, zero
0x80001498: 08 51 20 23 sw	t0, 0x80(sp)
0x8000149c: 08 61 22 23 sw	t1, 0x84(sp)
0x800014a0: 08 71 24 23 sw	t2, 0x88(sp)
0x800014a4: 00 02 05 37 lui	a0, 0x20
0x800014a8: 00 a3 63 33 or	t1, t1, a0
0x800014ac: 30 03 10 73 csrrw	zero, mstatus, t1
0x800014b0: 00 01 05 13 addi	a0, sp, 0x0
0x800014b4: e8 5f f0 ef jal	ra, 0x80001338
0x80001338: 00 09 47 97 auipc	a5, 0x94
0x8000133c: c6 07 a7 83 lw	a5, -0x3a0(a5)
0x80001340: 00 05 05 93 addi	a1, a0, 0x0
0x80001344: 06 07 8a 63 beq	a5, zero, 0x800013b8
0x80001348: 08 05 26 03 lw	a2, 0x80(a0)
0x8000134c: fd 01 01 13 addi	sp, sp, -0x30
0x80001350: 02 11 26 23 sw	ra, 0x2c(sp)
0x80001354: 00 01 2a 23 sw	zero, 0x14(sp)
0x80001358: 00 01 2c 23 sw	zero, 0x18(sp)
0x8000135c: 00 01 2e 23 sw	zero, 0x1c(sp)
0x80001360: 00 b0 06 93 addi	a3, zero, 0xb
0x80001364: 00 40 07 13 addi	a4, zero, 0x4
0x80001368: 02 d6 0c 63 beq	a2, a3, 0x800013a0
0x800013a0: 04 45 26 03 lw	a2, 0x44(a0)
0x800013a4: ff f0 06 93 addi	a3, zero, -0x1
0x800013a8: 00 10 07 13 addi	a4, zero, 0x1
0x800013ac: fc d6 00 e3 beq	a2, a3, 0x8000136c
0x8000136c: 00 e1 20 23 sw	a4, 0x0(sp)
0x80001370: 01 41 27 03 lw	a4, 0x14(sp)
0x80001374: 00 01 05 13 addi	a0, sp, 0x0
0x80001378: 00 e1 22 23 sw	a4, 0x4(sp)
0x8000137c: 01 81 27 03 lw	a4, 0x18(sp)
0x80001380: 00 e1 24 23 sw	a4, 0x8(sp)
0x80001384: 01 c1 27 03 lw	a4, 0x1c(sp)
0x80001388: 00 e1 26 23 sw	a4, 0xc(sp)
0x8000138c: 00 07 80 e7 jalr	ra, 0x0(a5)
0x800001e0: 00 05 27 83 lw	a5, 0x0(a0)
0x800001e4: ff 01 01 13 addi	sp, sp, -0x10
0x800001e8: 00 81 24 23 sw	s0, 0x8(sp)
0x800001ec: 00 11 26 23 sw	ra, 0xc(sp)
0x800001f0: 00 50 07 13 addi	a4, zero, 0x5
0x800001f4: 00 05 84 13 addi	s0, a1, 0x0
0x800001f8: 04 e7 86 63 beq	a5, a4, 0x80000244
0x800001fc: 00 60 07 13 addi	a4, zero, 0x6
0x80000200: 02 e7 84 63 beq	a5, a4, 0x80000228
0x80000204: 00 10 07 13 addi	a4, zero, 0x1
0x80000208: 04 e7 9c 63 bne	a5, a4, 0x80000260
0x8000020c: 07 90 05 13 addi	a0, zero, 0x79
0x80000210: 59 90 00 ef jal	ra, 0x80000fa8
0x80000fa8: a0 00 07 b7 lui	a5, 0xa0000
0x80000fac: 3e a7 8c 23 sb	a0, 0x3f8(a5)
0x80000fb0: 00 00 80 67 jalr	zero, 0x0(ra)
0x80000214: 00 c1 20 83 lw	ra, 0xc(sp)
0x80000218: 00 04 05 13 addi	a0, s0, 0x0
0x8000021c: 00 81 24 03 lw	s0, 0x8(sp)
0x80000220: 01 01 01 13 addi	sp, sp, 0x10
0x80000224: 00 00 80 67 jalr	zero, 0x0(ra)
0x80001390: 02 05 06 63 beq	a0, zero, 0x800013bc
0x80001394: 02 c1 20 83 lw	ra, 0x2c(sp)
0x80001398: 03 01 01 13 addi	sp, sp, 0x30
0x8000139c: 00 00 80 67 jalr	zero, 0x0(ra)
0x800014b8: 08 41 23 03 lw	t1, 0x84(sp)
0x800014bc: 08 81 23 83 lw	t2, 0x88(sp)
0x800014c0: 30 03 10 73 csrrw	zero, mstatus, t1
0x800014c4: 34 13 90 73 csrrw	zero, mepc, t2
0x800014c8: 00 41 20 83 lw	ra, 0x4(sp)
0x800014cc: 00 c1 21 83 lw	gp, 0xc(sp)
0x800014d0: 01 01 22 03 lw	tp, 0x10(sp)
0x800014d4: 01 41 22 83 lw	t0, 0x14(sp)
0x800014d8: 01 81 23 03 lw	t1, 0x18(sp)
0x800014dc: 01 c1 23 83 lw	t2, 0x1c(sp)
0x800014e0: 02 01 24 03 lw	s0, 0x20(sp)
0x800014e4: 02 41 24 83 lw	s1, 0x24(sp)
0x800014e8: 02 81 25 03 lw	a0, 0x28(sp)
0x800014ec: 02 c1 25 83 lw	a1, 0x2c(sp)
0x800014f0: 03 01 26 03 lw	a2, 0x30(sp)
0x800014f4: 03 41 26 83 lw	a3, 0x34(sp)
0x800014f8: 03 81 27 03 lw	a4, 0x38(sp)
0x800014fc: 03 c1 27 83 lw	a5, 0x3c(sp)
0x80001500: 04 01 28 03 lw	a6, 0x40(sp)
0x80001504: 04 41 28 83 lw	a7, 0x44(sp)
0x80001508: 04 81 29 03 lw	s2, 0x48(sp)
0x8000150c: 04 c1 29 83 lw	s3, 0x4c(sp)
0x80001510: 05 01 2a 03 lw	s4, 0x50(sp)
0x80001514: 05 41 2a 83 lw	s5, 0x54(sp)
0x80001518: 05 81 2b 03 lw	s6, 0x58(sp)
0x8000151c: 05 c1 2b 83 lw	s7, 0x5c(sp)
0x80001520: 06 01 2c 03 lw	s8, 0x60(sp)
0x80001524: 06 41 2c 83 lw	s9, 0x64(sp)
0x80001528: 06 81 2d 03 lw	s10, 0x68(sp)
0x8000152c: 06 c1 2d 83 lw	s11, 0x6c(sp)
0x80001530: 07 01 2e 03 lw	t3, 0x70(sp)
0x80001534: 07 41 2e 83 lw	t4, 0x74(sp)
0x80001538: 07 81 2f 03 lw	t5, 0x78(sp)
0x8000153c: 07 c1 2f 83 lw	t6, 0x7c(sp)
0x80001540: 08 c1 01 13 addi	sp, sp, 0x8c
0x80001544: 30 20 00 73 mret
0x80001400: 00 00 00 73 ecall
0x80001410: f7 41 01 13 addi	sp, sp, -0x8c
0x80001414: 00 11 22 23 sw	ra, 0x4(sp)
0x80001418: 00 31 26 23 sw	gp, 0xc(sp)
0x8000141c: 00 41 28 23 sw	tp, 0x10(sp)
0x80001420: 00 51 2a 23 sw	t0, 0x14(sp)
0x80001424: 00 61 2c 23 sw	t1, 0x18(sp)
0x80001428: 00 71 2e 23 sw	t2, 0x1c(sp)
0x8000142c: 02 81 20 23 sw	s0, 0x20(sp)
0x80001430: 02 91 22 23 sw	s1, 0x24(sp)
0x80001434: 02 a1 24 23 sw	a0, 0x28(sp)
0x80001438: 02 b1 26 23 sw	a1, 0x2c(sp)
0x8000143c: 02 c1 28 23 sw	a2, 0x30(sp)
0x80001440: 02 d1 2a 23 sw	a3, 0x34(sp)
0x80001444: 02 e1 2c 23 sw	a4, 0x38(sp)
0x80001448: 02 f1 2e 23 sw	a5, 0x3c(sp)
0x8000144c: 05 01 20 23 sw	a6, 0x40(sp)
0x80001450: 05 11 22 23 sw	a7, 0x44(sp)
0x80001454: 05 21 24 23 sw	s2, 0x48(sp)
0x80001458: 05 31 26 23 sw	s3, 0x4c(sp)
0x8000145c: 05 41 28 23 sw	s4, 0x50(sp)
0x80001460: 05 51 2a 23 sw	s5, 0x54(sp)
0x80001464: 05 61 2c 23 sw	s6, 0x58(sp)
0x80001468: 05 71 2e 23 sw	s7, 0x5c(sp)
0x8000146c: 07 81 20 23 sw	s8, 0x60(sp)
0x80001470: 07 91 22 23 sw	s9, 0x64(sp)
0x80001474: 07 a1 24 23 sw	s10, 0x68(sp)
0x80001478: 07 b1 26 23 sw	s11, 0x6c(sp)
0x8000147c: 07 c1 28 23 sw	t3, 0x70(sp)
0x80001480: 07 d1 2a 23 sw	t4, 0x74(sp)
0x80001484: 07 e1 2c 23 sw	t5, 0x78(sp)
0x80001488: 07 f1 2e 23 sw	t6, 0x7c(sp)
0x8000148c: 34 20 22 f3 csrrs	t0, mcause, zero
0x80001490: 30 00 23 73 csrrs	t1, mstatus, zero
0x80001494: 34 10 23 f3 csrrs	t2, mepc, zero
0x80001498: 08 51 20 23 sw	t0, 0x80(sp)
0x8000149c: 08 61 22 23 sw	t1, 0x84(sp)
0x800014a0: 08 71 24 23 sw	t2, 0x88(sp)
0x800014a4: 00 02 05 37 lui	a0, 0x20
0x800014a8: 00 a3 63 33 or	t1, t1, a0
0x800014ac: 30 03 10 73 csrrw	zero, mstatus, t1
0x800014b0: 00 01 05 13 addi	a0, sp, 0x0
0x800014b4: e8 5f f0 ef jal	ra, 0x80001338
0x80001338: 00 09 47 97 auipc	a5, 0x94
0x8000133c: c6 07 a7 83 lw	a5, -0x3a0(a5)
0x80001340: 00 05 05 93 addi	a1, a0, 0x0
0x80001344: 06 07 8a 63 beq	a5, zero, 0x800013b8
0x80001348: 08 05 26 03 lw	a2, 0x80(a0)
0x8000134c: fd 01 01 13 addi	sp, sp, -0x30
0x80001350: 02 11 26 23 sw	ra, 0x2c(sp)
0x80001354: 00 01 2a 23 sw	zero, 0x14(sp)
0x80001358: 00 01 2c 23 sw	zero, 0x18(sp)
0x8000135c: 00 01 2e 23 sw	zero, 0x1c(sp)
0x80001360: 00 b0 06 93 addi	a3, zero, 0xb
0x80001364: 00 40 07 13 addi	a4, zero, 0x4
0x80001368: 02 d6 0c 63 beq	a2, a3, 0x800013a0
0x800013a0: 04 45 26 03 lw	a2, 0x44(a0)
0x800013a4: ff f0 06 93 addi	a3, zero, -0x1
0x800013a8: 00 10 07 13 addi	a4, zero, 0x1
0x800013ac: fc d6 00 e3 beq	a2, a3, 0x8000136c
0x8000136c: 00 e1 20 23 sw	a4, 0x0(sp)
0x80001370: 01 41 27 03 lw	a4, 0x14(sp)
0x80001374: 00 01 05 13 addi	a0, sp, 0x0
0x80001378: 00 e1 22 23 sw	a4, 0x4(sp)
0x8000137c: 01 81 27 03 lw	a4, 0x18(sp)
0x80001380: 00 e1 24 23 sw	a4, 0x8(sp)
0x80001384: 01 c1 27 03 lw	a4, 0x1c(sp)
0x80001388: 00 e1 26 23 sw	a4, 0xc(sp)
0x8000138c: 00 07 80 e7 jalr	ra, 0x0(a5)
0x800001e0: 00 05 27 83 lw	a5, 0x0(a0)
0x800001e4: ff 01 01 13 addi	sp, sp, -0x10
0x800001e8: 00 81 24 23 sw	s0, 0x8(sp)
0x800001ec: 00 11 26 23 sw	ra, 0xc(sp)
0x800001f0: 00 50 07 13 addi	a4, zero, 0x5
0x800001f4: 00 05 84 13 addi	s0, a1, 0x0
0x800001f8: 04 e7 86 63 beq	a5, a4, 0x80000244
0x800001fc: 00 60 07 13 addi	a4, zero, 0x6
0x80000200: 02 e7 84 63 beq	a5, a4, 0x80000228
0x80000204: 00 10 07 13 addi	a4, zero, 0x1
0x80000208: 04 e7 9c 63 bne	a5, a4, 0x80000260
0x8000020c: 07 90 05 13 addi	a0, zero, 0x79
0x80000210: 59 90 00 ef jal	ra, 0x80000fa8
0x80000fa8: a0 00 07 b7 lui	a5, 0xa0000
0x80000fac: 3e a7 8c 23 sb	a0, 0x3f8(a5)
0x80000fb0: 00 00 80 67 jalr	zero, 0x0(ra)
0x80000214: 00 c1 20 83 lw	ra, 0xc(sp)
0x80000218: 00 04 05 13 addi	a0, s0, 0x0
0x8000021c: 00 81 24 03 lw	s0, 0x8(sp)
0x80000220: 01 01 01 13 addi	sp, sp, 0x10
0x80000224: 00 00 80 67 jalr	zero, 0x0(ra)
0x80001390: 02 05 06 63 beq	a0, zero, 0x800013bc
0x80001394: 02 c1 20 83 lw	ra, 0x2c(sp)
0x80001398: 03 01 01 13 addi	sp, sp, 0x30
0x8000139c: 00 00 80 67 jalr	zero, 0x0(ra)
0x800014b8: 08 41 23 03 lw	t1, 0x84(sp)
0x800014bc: 08 81 23 83 lw	t2, 0x88(sp)
0x800014c0: 30 03 10 73 csrrw	zero, mstatus, t1
0x800014c4: 34 13 90 73 csrrw	zero, mepc, t2
0x800014c8: 00 41 20 83 lw	ra, 0x4(sp)
0x800014cc: 00 c1 21 83 lw	gp, 0xc(sp)
0x800014d0: 01 01 22 03 lw	tp, 0x10(sp)
0x800014d4: 01 41 22 83 lw	t0, 0x14(sp)
0x800014d8: 01 81 23 03 lw	t1, 0x18(sp)
0x800014dc: 01 c1 23 83 lw	t2, 0x1c(sp)
0x800014e0: 02 01 24 03 lw	s0, 0x20(sp)
0x800014e4: 02 41 24 83 lw	s1, 0x24(sp)
0x800014e8: 02 81 25 03 lw	a0, 0x28(sp)
0x800014ec: 02 c1 25 83 lw	a1, 0x2c(sp)
0x800014f0: 03 01 26 03 lw	a2, 0x30(sp)
0x800014f4: 03 41 26 83 lw	a3, 0x34(sp)
0x800014f8: 03 81 27 03 lw	a4, 0x38(sp)
0x800014fc: 03 c1 27 83 lw	a5, 0x3c(sp)
0x80001500: 04 01 28 03 lw	a6, 0x40(sp)
0x80001504: 04 41 28 83 lw	a7, 0x44(sp)
0x80001508: 04 81 29 03 lw	s2, 0x48(sp)
0x8000150c: 04 c1 29 83 lw	s3, 0x4c(sp)
0x80001510: 05 01 2a 03 lw	s4, 0x50(sp)
0x80001514: 05 41 2a 83 lw	s5, 0x54(sp)
0x80001518: 05 81 2b 03 lw	s6, 0x58(sp)
0x8000151c: 05 c1 2b 83 lw	s7, 0x5c(sp)
0x80001520: 06 01 2c 03 lw	s8, 0x60(sp)
0x80001524: 06 41 2c 83 lw	s9, 0x64(sp)
0x80001528: 06 81 2d 03 lw	s10, 0x68(sp)
0x8000152c: 06 c1 2d 83 lw	s11, 0x6c(sp)
0x80001530: 07 01 2e 03 lw	t3, 0x70(sp)
0x80001534: 07 41 2e 83 lw	t4, 0x74(sp)
0x80001538: 07 81 2f 03 lw	t5, 0x78(sp)
0x8000153c: 07 c1 2f 83 lw	t6, 0x7c(sp)
0x80001540: 08 c1 01 13 addi	sp, sp, 0x8c
0x80001544: 30 20 00 73 mret
0x80001400: 00 00 00 73 ecall
0x80001410: f7 41 01 13 addi	sp, sp, -0x8c
0x80001414: 00 11 22 23 sw	ra, 0x4(sp)
0x80001418: 00 31 26 23 sw	gp, 0xc(sp)
0x8000141c: 00 41 28 23 sw	tp, 0x10(sp)
0x80001420: 00 51 2a 23 sw	t0, 0x14(sp)
0x80001424: 00 61 2c 23 sw	t1, 0x18(sp)
0x80001428: 00 71 2e 23 sw	t2, 0x1c(sp)
0x8000142c: 02 81 20 23 sw	s0, 0x20(sp)
0x80001430: 02 91 22 23 sw	s1, 0x24(sp)
0x80001434: 02 a1 24 23 sw	a0, 0x28(sp)
0x80001438: 02 b1 26 23 sw	a1, 0x2c(sp)
0x8000143c: 02 c1 28 23 sw	a2, 0x30(sp)
0x80001440: 02 d1 2a 23 sw	a3, 0x34(sp)
0x80001444: 02 e1 2c 23 sw	a4, 0x38(sp)
0x80001448: 02 f1 2e 23 sw	a5, 0x3c(sp)
0x8000144c: 05 01 20 23 sw	a6, 0x40(sp)
0x80001450: 05 11 22 23 sw	a7, 0x44(sp)
0x80001454: 05 21 24 23 sw	s2, 0x48(sp)
0x80001458: 05 31 26 23 sw	s3, 0x4c(sp)
0x8000145c: 05 41 28 23 sw	s4, 0x50(sp)
0x80001460: 05 51 2a 23 sw	s5, 0x54(sp)
0x80001464: 05 61 2c 23 sw	s6, 0x58(sp)
0x80001468: 05 71 2e 23 sw	s7, 0x5c(sp)
0x8000146c: 07 81 20 23 sw	s8, 0x60(sp)
0x80001470: 07 91 22 23 sw	s9, 0x64(sp)
0x80001474: 07 a1 24 23 sw	s10, 0x68(sp)
0x80001478: 07 b1 26 23 sw	s11, 0x6c(sp)
0x8000147c: 07 c1 28 23 sw	t3, 0x70(sp)
0x80001480: 07 d1 2a 23 sw	t4, 0x74(sp)
0x80001484: 07 e1 2c 23 sw	t5, 0x78(sp)
0x80001488: 07 f1 2e 23 sw	t6, 0x7c(sp)
0x8000148c: 34 20 22 f3 csrrs	t0, mcause, zero
0x80001490: 30 00 23 73 csrrs	t1, mstatus, zero
0x80001494: 34 10 23 f3 csrrs	t2, mepc, zero
0x80001498: 08 51 20 23 sw	t0, 0x80(sp)
0x8000149c: 08 61 22 23 sw	t1, 0x84(sp)
0x800014a0: 08 71 24 23 sw	t2, 0x88(sp)
0x800014a4: 00 02 05 37 lui	a0, 0x20
0x800014a8: 00 a3 63 33 or	t1, t1, a0
0x800014ac: 30 03 10 73 csrrw	zero, mstatus, t1
0x800014b0: 00 01 05 13 addi	a0, sp, 0x0
0x800014b4: e8 5f f0 ef jal	ra, 0x80001338
0x80001338: 00 09 47 97 auipc	a5, 0x94
0x8000133c: c6 07 a7 83 lw	a5, -0x3a0(a5)
0x80001340: 00 05 05 93 addi	a1, a0, 0x0
0x80001344: 06 07 8a 63 beq	a5, zero, 0x800013b8
0x80001348: 08 05 26 03 lw	a2, 0x80(a0)
0x8000134c: fd 01 01 13 addi	sp, sp, -0x30
0x80001350: 02 11 26 23 sw	ra, 0x2c(sp)
0x80001354: 00 01 2a 23 sw	zero, 0x14(sp)
0x80001358: 00 01 2c 23 sw	zero, 0x18(sp)
0x8000135c: 00 01 2e 23 sw	zero, 0x1c(sp)
0x80001360: 00 b0 06 93 addi	a3, zero, 0xb
0x80001364: 00 40 07 13 addi	a4, zero, 0x4
0x80001368: 02 d6 0c 63 beq	a2, a3, 0x800013a0
0x800013a0: 04 45 26 03 lw	a2, 0x44(a0)
0x800013a4: ff f0 06 93 addi	a3, zero, -0x1
0x800013a8: 00 10 07 13 addi	a4, zero, 0x1
0x800013ac: fc d6 00 e3 beq	a2, a3, 0x8000136c
0x8000136c: 00 e1 20 23 sw	a4, 0x0(sp)
0x80001370: 01 41 27 03 lw	a4, 0x14(sp)
0x80001374: 00 01 05 13 addi	a0, sp, 0x0
0x80001378: 00 e1 22 23 sw	a4, 0x4(sp)
0x8000137c: 01 81 27 03 lw	a4, 0x18(sp)
0x80001380: 00 e1 24 23 sw	a4, 0x8(sp)
0x80001384: 01 c1 27 03 lw	a4, 0x1c(sp)
0x80001388: 00 e1 26 23 sw	a4, 0xc(sp)
0x8000138c: 00 07 80 e7 jalr	ra, 0x0(a5)
0x800001e0: 00 05 27 83 lw	a5, 0x0(a0)
0x800001e4: ff 01 01 13 addi	sp, sp, -0x10
0x800001e8: 00 81 24 23 sw	s0, 0x8(sp)
0x800001ec: 00 11 26 23 sw	ra, 0xc(sp)
0x800001f0: 00 50 07 13 addi	a4, zero, 0x5
0x800001f4: 00 05 84 13 addi	s0, a1, 0x0
0x800001f8: 04 e7 86 63 beq	a5, a4, 0x80000244
0x800001fc: 00 60 07 13 addi	a4, zero, 0x6
0x80000200: 02 e7 84 63 beq	a5, a4, 0x80000228
0x80000204: 00 10 07 13 addi	a4, zero, 0x1
0x80000208: 04 e7 9c 63 bne	a5, a4, 0x80000260
0x8000020c: 07 90 05 13 addi	a0, zero, 0x79
0x80000210: 59 90 00 ef jal	ra, 0x80000fa8
0x80000fa8: a0 00 07 b7 lui	a5, 0xa0000
0x80000fac: 3e a7 8c 23 sb	a0, 0x3f8(a5)
0x80000fb0: 00 00 80 67 jalr	zero, 0x0(ra)
0x80000214: 00 c1 20 83 lw	ra, 0xc(sp)
0x80000218: 00 04 05 13 addi	a0, s0, 0x0
0x8000021c: 00 81 24 03 lw	s0, 0x8(sp)
0x80000220: 01 01 01 13 addi	sp, sp, 0x10
0x80000224: 00 00 80 67 jalr	zero, 0x0(ra)
0x80001390: 02 05 06 63 beq	a0, zero, 0x800013bc
0x80001394: 02 c1 20 83 lw	ra, 0x2c(sp)
0x80001398: 03 01 01 13 addi	sp, sp, 0x30
0x8000139c: 00 00 80 67 jalr	zero, 0x0(ra)
0x800014b8: 08 41 23 03 lw	t1, 0x84(sp)
0x800014bc: 08 81 23 83 lw	t2, 0x88(sp)
0x800014c0: 30 03 10 73 csrrw	zero, mstatus, t1
0x800014c4: 34 13 90 73 csrrw	zero, mepc, t2
0x800014c8: 00 41 20 83 lw	ra, 0x4(sp)
0x800014cc: 00 c1 21 83 lw	gp, 0xc(sp)
0x800014d0: 01 01 22 03 lw	tp, 0x10(sp)
0x800014d4: 01 41 22 83 lw	t0, 0x14(sp)
0x800014d8: 01 81 23 03 lw	t1, 0x18(sp)
0x800014dc: 01 c1 23 83 lw	t2, 0x1c(sp)
0x800014e0: 02 01 24 03 lw	s0, 0x20(sp)
0x800014e4: 02 41 24 83 lw	s1, 0x24(sp)
0x800014e8: 02 81 25 03 lw	a0, 0x28(sp)
0x800014ec: 02 c1 25 83 lw	a1, 0x2c(sp)
0x800014f0: 03 01 26 03 lw	a2, 0x30(sp)
0x800014f4: 03 41 26 83 lw	a3, 0x34(sp)
0x800014f8: 03 81 27 03 lw	a4, 0x38(sp)
0x800014fc: 03 c1 27 83 lw	a5, 0x3c(sp)
0x80001500: 04 01 28 03 lw	a6, 0x40(sp)
0x80001504: 04 41 28 83 lw	a7, 0x44(sp)
0x80001508: 04 81 29 03 lw	s2, 0x48(sp)
0x8000150c: 04 c1 29 83 lw	s3, 0x4c(sp)
0x80001510: 05 01 2a 03 lw	s4, 0x50(sp)
0x80001514: 05 41 2a 83 lw	s5, 0x54(sp)
0x80001518: 05 81 2b 03 lw	s6, 0x58(sp)
0x8000151c: 05 c1 2b 83 lw	s7, 0x5c(sp)
0x80001520: 06 01 2c 03 lw	s8, 0x60(sp)
0x80001524: 06 41 2c 83 lw	s9, 0x64(sp)
0x80001528: 06 81 2d 03 lw	s10, 0x68(sp)
0x8000152c: 06 c1 2d 83 lw	s11, 0x6c(sp)
0x80001530: 07 01 2e 03 lw	t3, 0x70(sp)
0x80001534: 07 41 2e 83 lw	t4, 0x74(sp)
0x80001538: 07 81 2f 03 lw	t5, 0x78(sp)
0x8000153c: 07 c1 2f 83 lw	t6, 0x7c(sp)
0x80001540: 08 c1 01 13 addi	sp, sp, 0x8c
0x80001544: 30 20 00 73 mret
0x80001400: 00 00 00 73 ecall
0x80001410: f7 41 01 13 addi	sp, sp, -0x8c
0x80001414: 00 11 22 23 sw	ra, 0x4(sp)
0x80001418: 00 31 26 23 sw	gp, 0xc(sp)
0x8000141c: 00 41 28 23 sw	tp, 0x10(sp)
0x80001420: 00 51 2a 23 sw	t0, 0x14(sp)
0x80001424: 00 61 2c 23 sw	t1, 0x18(sp)
0x80001428: 00 71 2e 23 sw	t2, 0x1c(sp)
0x8000142c: 02 81 20 23 sw	s0, 0x20(sp)
0x80001430: 02 91 22 23 sw	s1, 0x24(sp)
0x80001434: 02 a1 24 23 sw	a0, 0x28(sp)
0x80001438: 02 b1 26 23 sw	a1, 0x2c(sp)
0x8000143c: 02 c1 28 23 sw	a2, 0x30(sp)
0x80001440: 02 d1 2a 23 sw	a3, 0x34(sp)
0x80001444: 02 e1 2c 23 sw	a4, 0x38(sp)
0x80001448: 02 f1 2e 23 sw	a5, 0x3c(sp)
0x8000144c: 05 01 20 23 sw	a6, 0x40(sp)
0x80001450: 05 11 22 23 sw	a7, 0x44(sp)
0x80001454: 05 21 24 23 sw	s2, 0x48(sp)
0x80001458: 05 31 26 23 sw	s3, 0x4c(sp)
0x8000145c: 05 41 28 23 sw	s4, 0x50(sp)
0x80001460: 05 51 2a 23 sw	s5, 0x54(sp)
0x80001464: 05 61 2c 23 sw	s6, 0x58(sp)
0x80001468: 05 71 2e 23 sw	s7, 0x5c(sp)
0x8000146c: 07 81 20 23 sw	s8, 0x60(sp)
0x80001470: 07 91 22 23 sw	s9, 0x64(sp)
0x80001474: 07 a1 24 23 sw	s10, 0x68(sp)
0x80001478: 07 b1 26 23 sw	s11, 0x6c(sp)
0x8000147c: 07 c1 28 23 sw	t3, 0x70(sp)
0x80001480: 07 d1 2a 23 sw	t4, 0x74(sp)
0x80001484: 07 e1 2c 23 sw	t5, 0x78(sp)
0x80001488: 07 f1 2e 23 sw	t6, 0x7c(sp)
0x8000148c: 34 20 22 f3 csrrs	t0, mcause, zero
0x80001490: 30 00 23 73 csrrs	t1, mstatus, zero
0x80001494: 34 10 23 f3 csrrs	t2, mepc, zero
0x80001498: 08 51 20 23 sw	t0, 0x80(sp)
0x8000149c: 08 61 22 23 sw	t1, 0x84(sp)
0x800014a0: 08 71 24 23 sw	t2, 0x88(sp)
0x800014a4: 00 02 05 37 lui	a0, 0x20
0x800014a8: 00 a3 63 33 or	t1, t1, a0
0x800014ac: 30 03 10 73 csrrw	zero, mstatus, t1
0x800014b0: 00 01 05 13 addi	a0, sp, 0x0
0x800014b4: e8 5f f0 ef jal	ra, 0x80001338
0x80001338: 00 09 47 97 auipc	a5, 0x94
0x8000133c: c6 07 a7 83 lw	a5, -0x3a0(a5)
0x80001340: 00 05 05 93 addi	a1, a0, 0x0
0x80001344: 06 07 8a 63 beq	a5, zero, 0x800013b8
0x80001348: 08 05 26 03 lw	a2, 0x80(a0)
0x8000134c: fd 01 01 13 addi	sp, sp, -0x30
0x80001350: 02 11 26 23 sw	ra, 0x2c(sp)
0x80001354: 00 01 2a 23 sw	zero, 0x14(sp)
0x80001358: 00 01 2c 23 sw	zero, 0x18(sp)
0x8000135c: 00 01 2e 23 sw	zero, 0x1c(sp)
0x80001360: 00 b0 06 93 addi	a3, zero, 0xb
0x80001364: 00 40 07 13 addi	a4, zero, 0x4
0x80001368: 02 d6 0c 63 beq	a2, a3, 0x800013a0
0x800013a0: 04 45 26 03 lw	a2, 0x44(a0)
0x800013a4: ff f0 06 93 addi	a3, zero, -0x1
0x800013a8: 00 10 07 13 addi	a4, zero, 0x1
0x800013ac: fc d6 00 e3 beq	a2, a3, 0x8000136c
0x8000136c: 00 e1 20 23 sw	a4, 0x0(sp)
0x80001370: 01 41 27 03 lw	a4, 0x14(sp)
0x80001374: 00 01 05 13 addi	a0, sp, 0x0
0x80001378: 00 e1 22 23 sw	a4, 0x4(sp)
0x8000137c: 01 81 27 03 lw	a4, 0x18(sp)
0x80001380: 00 e1 24 23 sw	a4, 0x8(sp)
0x80001384: 01 c1 27 03 lw	a4, 0x1c(sp)
0x80001388: 00 e1 26 23 sw	a4, 0xc(sp)
0x8000138c: 00 07 80 e7 jalr	ra, 0x0(a5)
0x800001e0: 00 05 27 83 lw	a5, 0x0(a0)
0x800001e4: ff 01 01 13 addi	sp, sp, -0x10
0x800001e8: 00 81 24 23 sw	s0, 0x8(sp)
0x800001ec: 00 11 26 23 sw	ra, 0xc(sp)
0x800001f0: 00 50 07 13 addi	a4, zero, 0x5
0x800001f4: 00 05 84 13 addi	s0, a1, 0x0
0x800001f8: 04 e7 86 63 beq	a5, a4, 0x80000244
0x800001fc: 00 60 07 13 addi	a4, zero, 0x6
0x80000200: 02 e7 84 63 beq	a5, a4, 0x80000228
0x80000204: 00 10 07 13 addi	a4, zero, 0x1
0x80000208: 04 e7 9c 63 bne	a5, a4, 0x80000260
0x8000020c: 07 90 05 13 addi	a0, zero, 0x79
0x80000210: 59 90 00 ef jal	ra, 0x80000fa8
0x80000fa8: a0 00 07 b7 lui	a5, 0xa0000
0x80000fac: 3e a7 8c 23 sb	a0, 0x3f8(a5)
0x80000fb0: 00 00 80 67 jalr	zero, 0x0(ra)
0x80000214: 00 c1 20 83 lw	ra, 0xc(sp)
0x80000218: 00 04 05 13 addi	a0, s0, 0x0
0x8000021c: 00 81 24 03 lw	s0, 0x8(sp)
0x80000220: 01 01 01 13 addi	sp, sp, 0x10
0x80000224: 00 00 80 67 jalr	zero, 0x0(ra)
0x80001390: 02 05 06 63 beq	a0, zero, 0x800013bc
0x80001394: 02 c1 20 83 lw	ra, 0x2c(sp)
0x80001398: 03 01 01 13 addi	sp, sp, 0x30
0x8000139c: 00 00 80 67 jalr	zero, 0x0(ra)
0x800014b8: 08 41 23 03 lw	t1, 0x84(sp)
0x800014bc: 08 81 23 83 lw	t2, 0x88(sp)
0x800014c0: 30 03 10 73 csrrw	zero, mstatus, t1
0x800014c4: 34 13 90 73 csrrw	zero, mepc, t2
0x800014c8: 00 41 20 83 lw	ra, 0x4(sp)
0x800014cc: 00 c1 21 83 lw	gp, 0xc(sp)
0x800014d0: 01 01 22 03 lw	tp, 0x10(sp)
0x800014d4: 01 41 22 83 lw	t0, 0x14(sp)
0x800014d8: 01 81 23 03 lw	t1, 0x18(sp)
0x800014dc: 01 c1 23 83 lw	t2, 0x1c(sp)
0x800014e0: 02 01 24 03 lw	s0, 0x20(sp)
0x800014e4: 02 41 24 83 lw	s1, 0x24(sp)
0x800014e8: 02 81 25 03 lw	a0, 0x28(sp)
0x800014ec: 02 c1 25 83 lw	a1, 0x2c(sp)
0x800014f0: 03 01 26 03 lw	a2, 0x30(sp)
0x800014f4: 03 41 26 83 lw	a3, 0x34(sp)
0x800014f8: 03 81 27 03 lw	a4, 0x38(sp)
0x800014fc: 03 c1 27 83 lw	a5, 0x3c(sp)
0x80001500: 04 01 28 03 lw	a6, 0x40(sp)
0x80001504: 04 41 28 83 lw	a7, 0x44(sp)
0x80001508: 04 81 29 03 lw	s2, 0x48(sp)
0x8000150c: 04 c1 29 83 lw	s3, 0x4c(sp)
0x80001510: 05 01 2a 03 lw	s4, 0x50(sp)
0x80001514: 05 41 2a 83 lw	s5, 0x54(sp)
0x80001518: 05 81 2b 03 lw	s6, 0x58(sp)
0x8000151c: 05 c1 2b 83 lw	s7, 0x5c(sp)
0x80001520: 06 01 2c 03 lw	s8, 0x60(sp)
0x80001524: 06 41 2c 83 lw	s9, 0x64(sp)
0x80001528: 06 81 2d 03 lw	s10, 0x68(sp)
0x8000152c: 06 c1 2d 83 lw	s11, 0x6c(sp)
0x80001530: 07 01 2e 03 lw	t3, 0x70(sp)
0x80001534: 07 41 2e 83 lw	t4, 0x74(sp)
0x80001538: 07 81 2f 03 lw	t5, 0x78(sp)
0x8000153c: 07 c1 2f 83 lw	t6, 0x7c(sp)
0x80001540: 08 c1 01 13 addi	sp, sp, 0x8c
0x80001544: 30 20 00 73 mret
0x80001400: 00 00 00 73 ecall
0x80001410: f7 41 01 13 addi	sp, sp, -0x8c
0x80001414: 00 11 22 23 sw	ra, 0x4(sp)
0x80001418: 00 31 26 23 sw	gp, 0xc(sp)
0x8000141c: 00 41 28 23 sw	tp, 0x10(sp)
0x80001420: 00 51 2a 23 sw	t0, 0x14(sp)
0x80001424: 00 61 2c 23 sw	t1, 0x18(sp)
0x80001428: 00 71 2e 23 sw	t2, 0x1c(sp)
0x8000142c: 02 81 20 23 sw	s0, 0x20(sp)
0x80001430: 02 91 22 23 sw	s1, 0x24(sp)
0x80001434: 02 a1 24 23 sw	a0, 0x28(sp)
0x80001438: 02 b1 26 23 sw	a1, 0x2c(sp)
0x8000143c: 02 c1 28 23 sw	a2, 0x30(sp)
0x80001440: 02 d1 2a 23 sw	a3, 0x34(sp)
0x80001444: 02 e1 2c 23 sw	a4, 0x38(sp)
0x80001448: 02 f1 2e 23 sw	a5, 0x3c(sp)
0x8000144c: 05 01 20 23 sw	a6, 0x40(sp)
0x80001450: 05 11 22 23 sw	a7, 0x44(sp)
0x80001454: 05 21 24 23 sw	s2, 0x48(sp)
0x80001458: 05 31 26 23 sw	s3, 0x4c(sp)
0x8000145c: 05 41 28 23 sw	s4, 0x50(sp)
0x80001460: 05 51 2a 23 sw	s5, 0x54(sp)
0x80001464: 05 61 2c 23 sw	s6, 0x58(sp)
0x80001468: 05 71 2e 23 sw	s7, 0x5c(sp)
0x8000146c: 07 81 20 23 sw	s8, 0x60(sp)
0x80001470: 07 91 22 23 sw	s9, 0x64(sp)
0x80001474: 07 a1 24 23 sw	s10, 0x68(sp)
0x80001478: 07 b1 26 23 sw	s11, 0x6c(sp)
0x8000147c: 07 c1 28 23 sw	t3, 0x70(sp)
0x80001480: 07 d1 2a 23 sw	t4, 0x74(sp)
0x80001484: 07 e1 2c 23 sw	t5, 0x78(sp)
0x80001488: 07 f1 2e 23 sw	t6, 0x7c(sp)
0x8000148c: 34 20 22 f3 csrrs	t0, mcause, zero
0x80001490: 30 00 23 73 csrrs	t1, mstatus, zero
0x80001494: 34 10 23 f3 csrrs	t2, mepc, zero
0x80001498: 08 51 20 23 sw	t0, 0x80(sp)
0x8000149c: 08 61 22 23 sw	t1, 0x84(sp)
0x800014a0: 08 71 24 23 sw	t2, 0x88(sp)
0x800014a4: 00 02 05 37 lui	a0, 0x20
0x800014a8: 00 a3 63 33 or	t1, t1, a0
0x800014ac: 30 03 10 73 csrrw	zero, mstatus, t1
0x800014b0: 00 01 05 13 addi	a0, sp, 0x0
0x800014b4: e8 5f f0 ef jal	ra, 0x80001338
0x80001338: 00 09 47 97 auipc	a5, 0x94
0x8000133c: c6 07 a7 83 lw	a5, -0x3a0(a5)
0x80001340: 00 05 05 93 addi	a1, a0, 0x0
0x80001344: 06 07 8a 63 beq	a5, zero, 0x800013b8
0x80001348: 08 05 26 03 lw	a2, 0x80(a0)
0x8000134c: fd 01 01 13 addi	sp, sp, -0x30
0x80001350: 02 11 26 23 sw	ra, 0x2c(sp)
0x80001354: 00 01 2a 23 sw	zero, 0x14(sp)
0x80001358: 00 01 2c 23 sw	zero, 0x18(sp)
0x8000135c: 00 01 2e 23 sw	zero, 0x1c(sp)
0x80001360: 00 b0 06 93 addi	a3, zero, 0xb
0x80001364: 00 40 07 13 addi	a4, zero, 0x4
0x80001368: 02 d6 0c 63 beq	a2, a3, 0x800013a0
0x800013a0: 04 45 26 03 lw	a2, 0x44(a0)
0x800013a4: ff f0 06 93 addi	a3, zero, -0x1
0x800013a8: 00 10 07 13 addi	a4, zero, 0x1
0x800013ac: fc d6 00 e3 beq	a2, a3, 0x8000136c
0x8000136c: 00 e1 20 23 sw	a4, 0x0(sp)
0x80001370: 01 41 27 03 lw	a4, 0x14(sp)
0x80001374: 00 01 05 13 addi	a0, sp, 0x0
0x80001378: 00 e1 22 23 sw	a4, 0x4(sp)
0x8000137c: 01 81 27 03 lw	a4, 0x18(sp)
0x80001380: 00 e1 24 23 sw	a4, 0x8(sp)
0x80001384: 01 c1 27 03 lw	a4, 0x1c(sp)
0x80001388: 00 e1 26 23 sw	a4, 0xc(sp)
0x8000138c: 00 07 80 e7 jalr	ra, 0x0(a5)
0x800001e0: 00 05 27 83 lw	a5, 0x0(a0)
0x800001e4: ff 01 01 13 addi	sp, sp, -0x10
0x800001e8: 00 81 24 23 sw	s0, 0x8(sp)
0x800001ec: 00 11 26 23 sw	ra, 0xc(sp)
0x800001f0: 00 50 07 13 addi	a4, zero, 0x5
0x800001f4: 00 05 84 13 addi	s0, a1, 0x0
0x800001f8: 04 e7 86 63 beq	a5, a4, 0x80000244
0x800001fc: 00 60 07 13 addi	a4, zero, 0x6
0x80000200: 02 e7 84 63 beq	a5, a4, 0x80000228
0x80000204: 00 10 07 13 addi	a4, zero, 0x1
0x80000208: 04 e7 9c 63 bne	a5, a4, 0x80000260
0x8000020c: 07 90 05 13 addi	a0, zero, 0x79
0x80000210: 59 90 00 ef jal	ra, 0x80000fa8
0x80000fa8: a0 00 07 b7 lui	a5, 0xa0000
0x80000fac: 3e a7 8c 23 sb	a0, 0x3f8(a5)
0x80000fb0: 00 00 80 67 jalr	zero, 0x0(ra)
0x80000214: 00 c1 20 83 lw	ra, 0xc(sp)
0x80000218: 00 04 05 13 addi	a0, s0, 0x0
0x8000021c: 00 81 24 03 lw	s0, 0x8(sp)
0x80000220: 01 01 01 13 addi	sp, sp, 0x10
0x80000224: 00 00 80 67 jalr	zero, 0x0(ra)
0x80001390: 02 05 06 63 beq	a0, zero, 0x800013bc
0x80001394: 02 c1 20 83 lw	ra, 0x2c(sp)
0x80001398: 03 01 01 13 addi	sp, sp, 0x30
0x8000139c: 00 00 80 67 jalr	zero, 0x0(ra)
0x800014b8: 08 41 23 03 lw	t1, 0x84(sp)
0x800014bc: 08 81 23 83 lw	t2, 0x88(sp)
0x800014c0: 30 03 10 73 csrrw	zero, mstatus, t1
0x800014c4: 34 13 90 73 csrrw	zero, mepc, t2
0x800014c8: 00 41 20 83 lw	ra, 0x4(sp)
0x800014cc: 00 c1 21 83 lw	gp, 0xc(sp)
0x800014d0: 01 01 22 03 lw	tp, 0x10(sp)
0x800014d4: 01 41 22 83 lw	t0, 0x14(sp)
0x800014d8: 01 81 23 03 lw	t1, 0x18(sp)
0x800014dc: 01 c1 23 83 lw	t2, 0x1c(sp)
0x800014e0: 02 01 24 03 lw	s0, 0x20(sp)
0x800014e4: 02 41 24 83 lw	s1, 0x24(sp)
0x800014e8: 02 81 25 03 lw	a0, 0x28(sp)
0x800014ec: 02 c1 25 83 lw	a1, 0x2c(sp)
0x800014f0: 03 01 26 03 lw	a2, 0x30(sp)
0x800014f4: 03 41 26 83 lw	a3, 0x34(sp)
0x800014f8: 03 81 27 03 lw	a4, 0x38(sp)
0x800014fc: 03 c1 27 83 lw	a5, 0x3c(sp)
0x80001500: 04 01 28 03 lw	a6, 0x40(sp)
0x80001504: 04 41 28 83 lw	a7, 0x44(sp)
0x80001508: 04 81 29 03 lw	s2, 0x48(sp)
0x8000150c: 04 c1 29 83 lw	s3, 0x4c(sp)
0x80001510: 05 01 2a 03 lw	s4, 0x50(sp)
0x80001514: 05 41 2a 83 lw	s5, 0x54(sp)
0x80001518: 05 81 2b 03 lw	s6, 0x58(sp)
0x8000151c: 05 c1 2b 83 lw	s7, 0x5c(sp)
0x80001520: 06 01 2c 03 lw	s8, 0x60(sp)
0x80001524: 06 41 2c 83 lw	s9, 0x64(sp)
0x80001528: 06 81 2d 03 lw	s10, 0x68(sp)
0x8000152c: 06 c1 2d 83 lw	s11, 0x6c(sp)
0x80001530: 07 01 2e 03 lw	t3, 0x70(sp)
0x80001534: 07 41 2e 83 lw	t4, 0x74(sp)
0x80001538: 07 81 2f 03 lw	t5, 0x78(sp)
0x8000153c: 07 c1 2f 83 lw	t6, 0x7c(sp)
0x80001540: 08 c1 01 13 addi	sp, sp, 0x8c
0x80001544: 30 20 00 73 mret
0x80001400: 00 00 00 73 ecall
0x80001410: f7 41 01 13 addi	sp, sp, -0x8c
0x80001414: 00 11 22 23 sw	ra, 0x4(sp)
0x80001418: 00 31 26 23 sw	gp, 0xc(sp)
0x8000141c: 00 41 28 23 sw	tp, 0x10(sp)
0x80001420: 00 51 2a 23 sw	t0, 0x14(sp)
0x80001424: 00 61 2c 23 sw	t1, 0x18(sp)
0x80001428: 00 71 2e 23 sw	t2, 0x1c(sp)
0x8000142c: 02 81 20 23 sw	s0, 0x20(sp)
0x80001430: 02 91 22 23 sw	s1, 0x24(sp)
0x80001434: 02 a1 24 23 sw	a0, 0x28(sp)
0x80001438: 02 b1 26 23 sw	a1, 0x2c(sp)
0x8000143c: 02 c1 28 23 sw	a2, 0x30(sp)
0x80001440: 02 d1 2a 23 sw	a3, 0x34(sp)
0x80001444: 02 e1 2c 23 sw	a4, 0x38(sp)
0x80001448: 02 f1 2e 23 sw	a5, 0x3c(sp)
0x8000144c: 05 01 20 23 sw	a6, 0x40(sp)
0x80001450: 05 11 22 23 sw	a7, 0x44(sp)
0x80001454: 05 21 24 23 sw	s2, 0x48(sp)
0x80001458: 05 31 26 23 sw	s3, 0x4c(sp)
0x8000145c: 05 41 28 23 sw	s4, 0x50(sp)
0x80001460: 05 51 2a 23 sw	s5, 0x54(sp)
0x80001464: 05 61 2c 23 sw	s6, 0x58(sp)
0x80001468: 05 71 2e 23 sw	s7, 0x5c(sp)
0x8000146c: 07 81 20 23 sw	s8, 0x60(sp)
0x80001470: 07 91 22 23 sw	s9, 0x64(sp)
0x80001474: 07 a1 24 23 sw	s10, 0x68(sp)
0x80001478: 07 b1 26 23 sw	s11, 0x6c(sp)
0x8000147c: 07 c1 28 23 sw	t3, 0x70(sp)
0x80001480: 07 d1 2a 23 sw	t4, 0x74(sp)
0x80001484: 07 e1 2c 23 sw	t5, 0x78(sp)
0x80001488: 07 f1 2e 23 sw	t6, 0x7c(sp)
0x8000148c: 34 20 22 f3 csrrs	t0, mcause, zero
0x80001490: 30 00 23 73 csrrs	t1, mstatus, zero
0x80001494: 34 10 23 f3 csrrs	t2, mepc, zero
0x80001498: 08 51 20 23 sw	t0, 0x80(sp)
0x8000149c: 08 61 22 23 sw	t1, 0x84(sp)
0x800014a0: 08 71 24 23 sw	t2, 0x88(sp)
0x800014a4: 00 02 05 37 lui	a0, 0x20
0x800014a8: 00 a3 63 33 or	t1, t1, a0
0x800014ac: 30 03 10 73 csrrw	zero, mstatus, t1
0x800014b0: 00 01 05 13 addi	a0, sp, 0x0
0x800014b4: e8 5f f0 ef jal	ra, 0x80001338
0x80001338: 00 09 47 97 auipc	a5, 0x94
0x8000133c: c6 07 a7 83 lw	a5, -0x3a0(a5)
0x80001340: 00 05 05 93 addi	a1, a0, 0x0
0x80001344: 06 07 8a 63 beq	a5, zero, 0x800013b8
0x80001348: 08 05 26 03 lw	a2, 0x80(a0)
0x8000134c: fd 01 01 13 addi	sp, sp, -0x30
0x80001350: 02 11 26 23 sw	ra, 0x2c(sp)
0x80001354: 00 01 2a 23 sw	zero, 0x14(sp)
0x80001358: 00 01 2c 23 sw	zero, 0x18(sp)
0x8000135c: 00 01 2e 23 sw	zero, 0x1c(sp)
0x80001360: 00 b0 06 93 addi	a3, zero, 0xb
0x80001364: 00 40 07 13 addi	a4, zero, 0x4
0x80001368: 02 d6 0c 63 beq	a2, a3, 0x800013a0
0x800013a0: 04 45 26 03 lw	a2, 0x44(a0)
0x800013a4: ff f0 06 93 addi	a3, zero, -0x1
0x800013a8: 00 10 07 13 addi	a4, zero, 0x1
0x800013ac: fc d6 00 e3 beq	a2, a3, 0x8000136c
0x8000136c: 00 e1 20 23 sw	a4, 0x0(sp)
0x80001370: 01 41 27 03 lw	a4, 0x14(sp)
0x80001374: 00 01 05 13 addi	a0, sp, 0x0
0x80001378: 00 e1 22 23 sw	a4, 0x4(sp)
0x8000137c: 01 81 27 03 lw	a4, 0x18(sp)
0x80001380: 00 e1 24 23 sw	a4, 0x8(sp)
0x80001384: 01 c1 27 03 lw	a4, 0x1c(sp)
0x80001388: 00 e1 26 23 sw	a4, 0xc(sp)
0x8000138c: 00 07 80 e7 jalr	ra, 0x0(a5)
0x800001e0: 00 05 27 83 lw	a5, 0x0(a0)
0x800001e4: ff 01 01 13 addi	sp, sp, -0x10
0x800001e8: 00 81 24 23 sw	s0, 0x8(sp)
0x800001ec: 00 11 26 23 sw	ra, 0xc(sp)
0x800001f0: 00 50 07 13 addi	a4, zero, 0x5
0x800001f4: 00 05 84 13 addi	s0, a1, 0x0
0x800001f8: 04 e7 86 63 beq	a5, a4, 0x80000244
0x800001fc: 00 60 07 13 addi	a4, zero, 0x6
0x80000200: 02 e7 84 63 beq	a5, a4, 0x80000228
0x80000204: 00 10 07 13 addi	a4, zero, 0x1
0x80000208: 04 e7 9c 63 bne	a5, a4, 0x80000260
0x8000020c: 07 90 05 13 addi	a0, zero, 0x79
0x80000210: 59 90 00 ef jal	ra, 0x80000fa8
0x80000fa8: a0 00 07 b7 lui	a5, 0xa0000
0x80000fac: 3e a7 8c 23 sb	a0, 0x3f8(a5)
0x80000fb0: 00 00 80 67 jalr	zero, 0x0(ra)
0x80000214: 00 c1 20 83 lw	ra, 0xc(sp)
0x80000218: 00 04 05 13 addi	a0, s0, 0x0
0x8000021c: 00 81 24 03 lw	s0, 0x8(sp)
0x80000220: 01 01 01 13 addi	sp, sp, 0x10
0x80000224: 00 00 80 67 jalr	zero, 0x0(ra)
0x80001390: 02 05 06 63 beq	a0, zero, 0x800013bc
0x80001394: 02 c1 20 83 lw	ra, 0x2c(sp)
0x80001398: 03 01 01 13 addi	sp, sp, 0x30
0x8000139c: 00 00 80 67 jalr	zero, 0x0(ra)
0x800014b8: 08 41 23 03 lw	t1, 0x84(sp)
0x800014bc: 08 81 23 83 lw	t2, 0x88(sp)
0x800014c0: 30 03 10 73 csrrw	zero, mstatus, t1
0x800014c4: 34 13 90 73 csrrw	zero, mepc, t2
0x800014c8: 00 41 20 83 lw	ra, 0x4(sp)
0x800014cc: 00 c1 21 83 lw	gp, 0xc(sp)
0x800014d0: 01 01 22 03 lw	tp, 0x10(sp)
0x800014d4: 01 41 22 83 lw	t0, 0x14(sp)
0x800014d8: 01 81 23 03 lw	t1, 0x18(sp)
0x800014dc: 01 c1 23 83 lw	t2, 0x1c(sp)
0x800014e0: 02 01 24 03 lw	s0, 0x20(sp)
0x800014e4: 02 41 24 83 lw	s1, 0x24(sp)
0x800014e8: 02 81 25 03 lw	a0, 0x28(sp)
0x800014ec: 02 c1 25 83 lw	a1, 0x2c(sp)
0x800014f0: 03 01 26 03 lw	a2, 0x30(sp)
0x800014f4: 03 41 26 83 lw	a3, 0x34(sp)
0x800014f8: 03 81 27 03 lw	a4, 0x38(sp)
0x800014fc: 03 c1 27 83 lw	a5, 0x3c(sp)
0x80001500: 04 01 28 03 lw	a6, 0x40(sp)
0x80001504: 04 41 28 83 lw	a7, 0x44(sp)
0x80001508: 04 81 29 03 lw	s2, 0x48(sp)
0x8000150c: 04 c1 29 83 lw	s3, 0x4c(sp)
0x80001510: 05 01 2a 03 lw	s4, 0x50(sp)
0x80001514: 05 41 2a 83 lw	s5, 0x54(sp)
0x80001518: 05 81 2b 03 lw	s6, 0x58(sp)
0x8000151c: 05 c1 2b 83 lw	s7, 0x5c(sp)
0x80001520: 06 01 2c 03 lw	s8, 0x60(sp)
0x80001524: 06 41 2c 83 lw	s9, 0x64(sp)
0x80001528: 06 81 2d 03 lw	s10, 0x68(sp)
0x8000152c: 06 c1 2d 83 lw	s11, 0x6c(sp)
0x80001530: 07 01 2e 03 lw	t3, 0x70(sp)
0x80001534: 07 41 2e 83 lw	t4, 0x74(sp)
0x80001538: 07 81 2f 03 lw	t5, 0x78(sp)
0x8000153c: 07 c1 2f 83 lw	t6, 0x7c(sp)
0x80001540: 08 c1 01 13 addi	sp, sp, 0x8c
0x80001544: 30 20 00 73 mret
0x80001400: 00 00 00 73 ecall
0x80001410: f7 41 01 13 addi	sp, sp, -0x8c
0x80001414: 00 11 22 23 sw	ra, 0x4(sp)
0x80001418: 00 31 26 23 sw	gp, 0xc(sp)
0x8000141c: 00 41 28 23 sw	tp, 0x10(sp)
0x80001420: 00 51 2a 23 sw	t0, 0x14(sp)
0x80001424: 00 61 2c 23 sw	t1, 0x18(sp)
0x80001428: 00 71 2e 23 sw	t2, 0x1c(sp)
0x8000142c: 02 81 20 23 sw	s0, 0x20(sp)
0x80001430: 02 91 22 23 sw	s1, 0x24(sp)
0x80001434: 02 a1 24 23 sw	a0, 0x28(sp)
0x80001438: 02 b1 26 23 sw	a1, 0x2c(sp)
0x8000143c: 02 c1 28 23 sw	a2, 0x30(sp)
0x80001440: 02 d1 2a 23 sw	a3, 0x34(sp)
0x80001444: 02 e1 2c 23 sw	a4, 0x38(sp)
0x80001448: 02 f1 2e 23 sw	a5, 0x3c(sp)
0x8000144c: 05 01 20 23 sw	a6, 0x40(sp)
0x80001450: 05 11 22 23 sw	a7, 0x44(sp)
0x80001454: 05 21 24 23 sw	s2, 0x48(sp)
0x80001458: 05 31 26 23 sw	s3, 0x4c(sp)
0x8000145c: 05 41 28 23 sw	s4, 0x50(sp)
0x80001460: 05 51 2a 23 sw	s5, 0x54(sp)
0x80001464: 05 61 2c 23 sw	s6, 0x58(sp)
0x80001468: 05 71 2e 23 sw	s7, 0x5c(sp)
0x8000146c: 07 81 20 23 sw	s8, 0x60(sp)
0x80001470: 07 91 22 23 sw	s9, 0x64(sp)
0x80001474: 07 a1 24 23 sw	s10, 0x68(sp)
0x80001478: 07 b1 26 23 sw	s11, 0x6c(sp)
0x8000147c: 07 c1 28 23 sw	t3, 0x70(sp)
0x80001480: 07 d1 2a 23 sw	t4, 0x74(sp)
0x80001484: 07 e1 2c 23 sw	t5, 0x78(sp)
0x80001488: 07 f1 2e 23 sw	t6, 0x7c(sp)
0x8000148c: 34 20 22 f3 csrrs	t0, mcause, zero
0x80001490: 30 00 23 73 csrrs	t1, mstatus, zero
0x80001494: 34 10 23 f3 csrrs	t2, mepc, zero
0x80001498: 08 51 20 23 sw	t0, 0x80(sp)
0x8000149c: 08 61 22 23 sw	t1, 0x84(sp)
0x800014a0: 08 71 24 23 sw	t2, 0x88(sp)
0x800014a4: 00 02 05 37 lui	a0, 0x20
0x800014a8: 00 a3 63 33 or	t1, t1, a0
0x800014ac: 30 03 10 73 csrrw	zero, mstatus, t1
0x800014b0: 00 01 05 13 addi	a0, sp, 0x0
0x800014b4: e8 5f f0 ef jal	ra, 0x80001338
0x80001338: 00 09 47 97 auipc	a5, 0x94
0x8000133c: c6 07 a7 83 lw	a5, -0x3a0(a5)
0x80001340: 00 05 05 93 addi	a1, a0, 0x0
0x80001344: 06 07 8a 63 beq	a5, zero, 0x800013b8
0x80001348: 08 05 26 03 lw	a2, 0x80(a0)
0x8000134c: fd 01 01 13 addi	sp, sp, -0x30
0x80001350: 02 11 26 23 sw	ra, 0x2c(sp)
0x80001354: 00 01 2a 23 sw	zero, 0x14(sp)
0x80001358: 00 01 2c 23 sw	zero, 0x18(sp)
0x8000135c: 00 01 2e 23 sw	zero, 0x1c(sp)
0x80001360: 00 b0 06 93 addi	a3, zero, 0xb
0x80001364: 00 40 07 13 addi	a4, zero, 0x4
0x80001368: 02 d6 0c 63 beq	a2, a3, 0x800013a0
0x800013a0: 04 45 26 03 lw	a2, 0x44(a0)
0x800013a4: ff f0 06 93 addi	a3, zero, -0x1
0x800013a8: 00 10 07 13 addi	a4, zero, 0x1
0x800013ac: fc d6 00 e3 beq	a2, a3, 0x8000136c
0x8000136c: 00 e1 20 23 sw	a4, 0x0(sp)
0x80001370: 01 41 27 03 lw	a4, 0x14(sp)
0x80001374: 00 01 05 13 addi	a0, sp, 0x0
0x80001378: 00 e1 22 23 sw	a4, 0x4(sp)
0x8000137c: 01 81 27 03 lw	a4, 0x18(sp)
0x80001380: 00 e1 24 23 sw	a4, 0x8(sp)
0x80001384: 01 c1 27 03 lw	a4, 0x1c(sp)
0x80001388: 00 e1 26 23 sw	a4, 0xc(sp)
0x8000138c: 00 07 80 e7 jalr	ra, 0x0(a5)
0x800001e0: 00 05 27 83 lw	a5, 0x0(a0)
0x800001e4: ff 01 01 13 addi	sp, sp, -0x10
0x800001e8: 00 81 24 23 sw	s0, 0x8(sp)
0x800001ec: 00 11 26 23 sw	ra, 0xc(sp)
0x800001f0: 00 50 07 13 addi	a4, zero, 0x5
0x800001f4: 00 05 84 13 addi	s0, a1, 0x0
0x800001f8: 04 e7 86 63 beq	a5, a4, 0x80000244
0x800001fc: 00 60 07 13 addi	a4, zero, 0x6
0x80000200: 02 e7 84 63 beq	a5, a4, 0x80000228
0x80000204: 00 10 07 13 addi	a4, zero, 0x1
0x80000208: 04 e7 9c 63 bne	a5, a4, 0x80000260
0x8000020c: 07 90 05 13 addi	a0, zero, 0x79
0x80000210: 59 90 00 ef jal	ra, 0x80000fa8
0x80000fa8: a0 00 07 b7 lui	a5, 0xa0000
0x80000fac: 3e a7 8c 23 sb	a0, 0x3f8(a5)
0x80000fb0: 00 00 80 67 jalr	zero, 0x0(ra)
0x80000214: 00 c1 20 83 lw	ra, 0xc(sp)
0x80000218: 00 04 05 13 addi	a0, s0, 0x0
0x8000021c: 00 81 24 03 lw	s0, 0x8(sp)
0x80000220: 01 01 01 13 addi	sp, sp, 0x10
0x80000224: 00 00 80 67 jalr	zero, 0x0(ra)
0x80001390: 02 05 06 63 beq	a0, zero, 0x800013bc
0x80001394: 02 c1 20 83 lw	ra, 0x2c(sp)
0x80001398: 03 01 01 13 addi	sp, sp, 0x30
0x8000139c: 00 00 80 67 jalr	zero, 0x0(ra)
0x800014b8: 08 41 23 03 lw	t1, 0x84(sp)
0x800014bc: 08 81 23 83 lw	t2, 0x88(sp)
0x800014c0: 30 03 10 73 csrrw	zero, mstatus, t1
0x800014c4: 34 13 90 73 csrrw	zero, mepc, t2
0x800014c8: 00 41 20 83 lw	ra, 0x4(sp)
0x800014cc: 00 c1 21 83 lw	gp, 0xc(sp)
0x800014d0: 01 01 22 03 lw	tp, 0x10(sp)
0x800014d4: 01 41 22 83 lw	t0, 0x14(sp)
0x800014d8: 01 81 23 03 lw	t1, 0x18(sp)
0x800014dc: 01 c1 23 83 lw	t2, 0x1c(sp)
0x800014e0: 02 01 24 03 lw	s0, 0x20(sp)
0x800014e4: 02 41 24 83 lw	s1, 0x24(sp)
0x800014e8: 02 81 25 03 lw	a0, 0x28(sp)
0x800014ec: 02 c1 25 83 lw	a1, 0x2c(sp)
0x800014f0: 03 01 26 03 lw	a2, 0x30(sp)
0x800014f4: 03 41 26 83 lw	a3, 0x34(sp)
0x800014f8: 03 81 27 03 lw	a4, 0x38(sp)
0x800014fc: 03 c1 27 83 lw	a5, 0x3c(sp)
0x80001500: 04 01 28 03 lw	a6, 0x40(sp)
0x80001504: 04 41 28 83 lw	a7, 0x44(sp)
0x80001508: 04 81 29 03 lw	s2, 0x48(sp)
0x8000150c: 04 c1 29 83 lw	s3, 0x4c(sp)
0x80001510: 05 01 2a 03 lw	s4, 0x50(sp)
0x80001514: 05 41 2a 83 lw	s5, 0x54(sp)
0x80001518: 05 81 2b 03 lw	s6, 0x58(sp)
0x8000151c: 05 c1 2b 83 lw	s7, 0x5c(sp)
0x80001520: 06 01 2c 03 lw	s8, 0x60(sp)
0x80001524: 06 41 2c 83 lw	s9, 0x64(sp)
0x80001528: 06 81 2d 03 lw	s10, 0x68(sp)
0x8000152c: 06 c1 2d 83 lw	s11, 0x6c(sp)
0x80001530: 07 01 2e 03 lw	t3, 0x70(sp)
0x80001534: 07 41 2e 83 lw	t4, 0x74(sp)
0x80001538: 07 81 2f 03 lw	t5, 0x78(sp)
0x8000153c: 07 c1 2f 83 lw	t6, 0x7c(sp)
0x80001540: 08 c1 01 13 addi	sp, sp, 0x8c
0x80001544: 30 20 00 73 mret
0x80001400: 00 00 00 73 ecall
0x80001410: f7 41 01 13 addi	sp, sp, -0x8c
0x80001414: 00 11 22 23 sw	ra, 0x4(sp)
0x80001418: 00 31 26 23 sw	gp, 0xc(sp)
0x8000141c: 00 41 28 23 sw	tp, 0x10(sp)
0x80001420: 00 51 2a 23 sw	t0, 0x14(sp)
0x80001424: 00 61 2c 23 sw	t1, 0x18(sp)
0x80001428: 00 71 2e 23 sw	t2, 0x1c(sp)
0x8000142c: 02 81 20 23 sw	s0, 0x20(sp)
0x80001430: 02 91 22 23 sw	s1, 0x24(sp)
0x80001434: 02 a1 24 23 sw	a0, 0x28(sp)
0x80001438: 02 b1 26 23 sw	a1, 0x2c(sp)
0x8000143c: 02 c1 28 23 sw	a2, 0x30(sp)
0x80001440: 02 d1 2a 23 sw	a3, 0x34(sp)
0x80001444: 02 e1 2c 23 sw	a4, 0x38(sp)
0x80001448: 02 f1 2e 23 sw	a5, 0x3c(sp)
0x8000144c: 05 01 20 23 sw	a6, 0x40(sp)
0x80001450: 05 11 22 23 sw	a7, 0x44(sp)
0x80001454: 05 21 24 23 sw	s2, 0x48(sp)
0x80001458: 05 31 26 23 sw	s3, 0x4c(sp)
0x8000145c: 05 41 28 23 sw	s4, 0x50(sp)
0x80001460: 05 51 2a 23 sw	s5, 0x54(sp)
0x80001464: 05 61 2c 23 sw	s6, 0x58(sp)
0x80001468: 05 71 2e 23 sw	s7, 0x5c(sp)
0x8000146c: 07 81 20 23 sw	s8, 0x60(sp)
0x80001470: 07 91 22 23 sw	s9, 0x64(sp)
0x80001474: 07 a1 24 23 sw	s10, 0x68(sp)
0x80001478: 07 b1 26 23 sw	s11, 0x6c(sp)
0x8000147c: 07 c1 28 23 sw	t3, 0x70(sp)
0x80001480: 07 d1 2a 23 sw	t4, 0x74(sp)
0x80001484: 07 e1 2c 23 sw	t5, 0x78(sp)
0x80001488: 07 f1 2e 23 sw	t6, 0x7c(sp)
0x8000148c: 34 20 22 f3 csrrs	t0, mcause, zero
0x80001490: 30 00 23 73 csrrs	t1, mstatus, zero
0x80001494: 34 10 23 f3 csrrs	t2, mepc, zero
0x80001498: 08 51 20 23 sw	t0, 0x80(sp)
0x8000149c: 08 61 22 23 sw	t1, 0x84(sp)
0x800014a0: 08 71 24 23 sw	t2, 0x88(sp)
0x800014a4: 00 02 05 37 lui	a0, 0x20
0x800014a8: 00 a3 63 33 or	t1, t1, a0
0x800014ac: 30 03 10 73 csrrw	zero, mstatus, t1
0x800014b0: 00 01 05 13 addi	a0, sp, 0x0
0x800014b4: e8 5f f0 ef jal	ra, 0x80001338
0x80001338: 00 09 47 97 auipc	a5, 0x94
0x8000133c: c6 07 a7 83 lw	a5, -0x3a0(a5)
0x80001340: 00 05 05 93 addi	a1, a0, 0x0
0x80001344: 06 07 8a 63 beq	a5, zero, 0x800013b8
0x80001348: 08 05 26 03 lw	a2, 0x80(a0)
0x8000134c: fd 01 01 13 addi	sp, sp, -0x30
0x80001350: 02 11 26 23 sw	ra, 0x2c(sp)
0x80001354: 00 01 2a 23 sw	zero, 0x14(sp)
0x80001358: 00 01 2c 23 sw	zero, 0x18(sp)
0x8000135c: 00 01 2e 23 sw	zero, 0x1c(sp)
0x80001360: 00 b0 06 93 addi	a3, zero, 0xb
0x80001364: 00 40 07 13 addi	a4, zero, 0x4
0x80001368: 02 d6 0c 63 beq	a2, a3, 0x800013a0
0x800013a0: 04 45 26 03 lw	a2, 0x44(a0)
0x800013a4: ff f0 06 93 addi	a3, zero, -0x1
0x800013a8: 00 10 07 13 addi	a4, zero, 0x1
0x800013ac: fc d6 00 e3 beq	a2, a3, 0x8000136c
0x8000136c: 00 e1 20 23 sw	a4, 0x0(sp)
0x80001370: 01 41 27 03 lw	a4, 0x14(sp)
0x80001374: 00 01 05 13 addi	a0, sp, 0x0
0x80001378: 00 e1 22 23 sw	a4, 0x4(sp)
0x8000137c: 01 81 27 03 lw	a4, 0x18(sp)
0x80001380: 00 e1 24 23 sw	a4, 0x8(sp)
0x80001384: 01 c1 27 03 lw	a4, 0x1c(sp)
0x80001388: 00 e1 26 23 sw	a4, 0xc(sp)
0x8000138c: 00 07 80 e7 jalr	ra, 0x0(a5)
0x800001e0: 00 05 27 83 lw	a5, 0x0(a0)
0x800001e4: ff 01 01 13 addi	sp, sp, -0x10
0x800001e8: 00 81 24 23 sw	s0, 0x8(sp)
0x800001ec: 00 11 26 23 sw	ra, 0xc(sp)
0x800001f0: 00 50 07 13 addi	a4, zero, 0x5
0x800001f4: 00 05 84 13 addi	s0, a1, 0x0
0x800001f8: 04 e7 86 63 beq	a5, a4, 0x80000244
0x800001fc: 00 60 07 13 addi	a4, zero, 0x6
0x80000200: 02 e7 84 63 beq	a5, a4, 0x80000228
0x80000204: 00 10 07 13 addi	a4, zero, 0x1
0x80000208: 04 e7 9c 63 bne	a5, a4, 0x80000260
0x8000020c: 07 90 05 13 addi	a0, zero, 0x79
0x80000210: 59 90 00 ef jal	ra, 0x80000fa8
0x80000fa8: a0 00 07 b7 lui	a5, 0xa0000
0x80000fac: 3e a7 8c 23 sb	a0, 0x3f8(a5)
0x80000fb0: 00 00 80 67 jalr	zero, 0x0(ra)
0x80000214: 00 c1 20 83 lw	ra, 0xc(sp)
0x80000218: 00 04 05 13 addi	a0, s0, 0x0
0x8000021c: 00 81 24 03 lw	s0, 0x8(sp)
0x80000220: 01 01 01 13 addi	sp, sp, 0x10
0x80000224: 00 00 80 67 jalr	zero, 0x0(ra)
0x80001390: 02 05 06 63 beq	a0, zero, 0x800013bc
0x80001394: 02 c1 20 83 lw	ra, 0x2c(sp)
0x80001398: 03 01 01 13 addi	sp, sp, 0x30
0x8000139c: 00 00 80 67 jalr	zero, 0x0(ra)
0x800014b8: 08 41 23 03 lw	t1, 0x84(sp)
0x800014bc: 08 81 23 83 lw	t2, 0x88(sp)
0x800014c0: 30 03 10 73 csrrw	zero, mstatus, t1
0x800014c4: 34 13 90 73 csrrw	zero, mepc, t2
0x800014c8: 00 41 20 83 lw	ra, 0x4(sp)
0x800014cc: 00 c1 21 83 lw	gp, 0xc(sp)
0x800014d0: 01 01 22 03 lw	tp, 0x10(sp)
0x800014d4: 01 41 22 83 lw	t0, 0x14(sp)
0x800014d8: 01 81 23 03 lw	t1, 0x18(sp)
0x800014dc: 01 c1 23 83 lw	t2, 0x1c(sp)
0x800014e0: 02 01 24 03 lw	s0, 0x20(sp)
0x800014e4: 02 41 24 83 lw	s1, 0x24(sp)
0x800014e8: 02 81 25 03 lw	a0, 0x28(sp)
0x800014ec: 02 c1 25 83 lw	a1, 0x2c(sp)
0x800014f0: 03 01 26 03 lw	a2, 0x30(sp)
0x800014f4: 03 41 26 83 lw	a3, 0x34(sp)
0x800014f8: 03 81 27 03 lw	a4, 0x38(sp)
0x800014fc: 03 c1 27 83 lw	a5, 0x3c(sp)
0x80001500: 04 01 28 03 lw	a6, 0x40(sp)
0x80001504: 04 41 28 83 lw	a7, 0x44(sp)
0x80001508: 04 81 29 03 lw	s2, 0x48(sp)
0x8000150c: 04 c1 29 83 lw	s3, 0x4c(sp)
0x80001510: 05 01 2a 03 lw	s4, 0x50(sp)
0x80001514: 05 41 2a 83 lw	s5, 0x54(sp)
0x80001518: 05 81 2b 03 lw	s6, 0x58(sp)
0x8000151c: 05 c1 2b 83 lw	s7, 0x5c(sp)
0x80001520: 06 01 2c 03 lw	s8, 0x60(sp)
0x80001524: 06 41 2c 83 lw	s9, 0x64(sp)
0x80001528: 06 81 2d 03 lw	s10, 0x68(sp)
0x8000152c: 06 c1 2d 83 lw	s11, 0x6c(sp)
0x80001530: 07 01 2e 03 lw	t3, 0x70(sp)
0x80001534: 07 41 2e 83 lw	t4, 0x74(sp)
0x80001538: 07 81 2f 03 lw	t5, 0x78(sp)
0x8000153c: 07 c1 2f 83 lw	t6, 0x7c(sp)
0x80001540: 08 c1 01 13 addi	sp, sp, 0x8c
0x80001544: 30 20 00 73 mret
0x80001400: 00 00 00 73 ecall
0x80001410: f7 41 01 13 addi	sp, sp, -0x8c
0x80001414: 00 11 22 23 sw	ra, 0x4(sp)
0x80001418: 00 31 26 23 sw	gp, 0xc(sp)
0x8000141c: 00 41 28 23 sw	tp, 0x10(sp)
0x80001420: 00 51 2a 23 sw	t0, 0x14(sp)
0x80001424: 00 61 2c 23 sw	t1, 0x18(sp)
0x80001428: 00 71 2e 23 sw	t2, 0x1c(sp)
0x8000142c: 02 81 20 23 sw	s0, 0x20(sp)
0x80001430: 02 91 22 23 sw	s1, 0x24(sp)
0x80001434: 02 a1 24 23 sw	a0, 0x28(sp)
0x80001438: 02 b1 26 23 sw	a1, 0x2c(sp)
0x8000143c: 02 c1 28 23 sw	a2, 0x30(sp)
0x80001440: 02 d1 2a 23 sw	a3, 0x34(sp)
0x80001444: 02 e1 2c 23 sw	a4, 0x38(sp)
0x80001448: 02 f1 2e 23 sw	a5, 0x3c(sp)
0x8000144c: 05 01 20 23 sw	a6, 0x40(sp)
0x80001450: 05 11 22 23 sw	a7, 0x44(sp)
0x80001454: 05 21 24 23 sw	s2, 0x48(sp)
0x80001458: 05 31 26 23 sw	s3, 0x4c(sp)
0x8000145c: 05 41 28 23 sw	s4, 0x50(sp)
0x80001460: 05 51 2a 23 sw	s5, 0x54(sp)
0x80001464: 05 61 2c 23 sw	s6, 0x58(sp)
0x80001468: 05 71 2e 23 sw	s7, 0x5c(sp)
0x8000146c: 07 81 20 23 sw	s8, 0x60(sp)
0x80001470: 07 91 22 23 sw	s9, 0x64(sp)
0x80001474: 07 a1 24 23 sw	s10, 0x68(sp)
0x80001478: 07 b1 26 23 sw	s11, 0x6c(sp)
0x8000147c: 07 c1 28 23 sw	t3, 0x70(sp)
0x80001480: 07 d1 2a 23 sw	t4, 0x74(sp)
0x80001484: 07 e1 2c 23 sw	t5, 0x78(sp)
0x80001488: 07 f1 2e 23 sw	t6, 0x7c(sp)
0x8000148c: 34 20 22 f3 csrrs	t0, mcause, zero
0x80001490: 30 00 23 73 csrrs	t1, mstatus, zero
0x80001494: 34 10 23 f3 csrrs	t2, mepc, zero
0x80001498: 08 51 20 23 sw	t0, 0x80(sp)
0x8000149c: 08 61 22 23 sw	t1, 0x84(sp)
0x800014a0: 08 71 24 23 sw	t2, 0x88(sp)
0x800014a4: 00 02 05 37 lui	a0, 0x20
0x800014a8: 00 a3 63 33 or	t1, t1, a0
0x800014ac: 30 03 10 73 csrrw	zero, mstatus, t1
0x800014b0: 00 01 05 13 addi	a0, sp, 0x0
0x800014b4: e8 5f f0 ef jal	ra, 0x80001338
0x80001338: 00 09 47 97 auipc	a5, 0x94
0x8000133c: c6 07 a7 83 lw	a5, -0x3a0(a5)
0x80001340: 00 05 05 93 addi	a1, a0, 0x0
0x80001344: 06 07 8a 63 beq	a5, zero, 0x800013b8
0x80001348: 08 05 26 03 lw	a2, 0x80(a0)
0x8000134c: fd 01 01 13 addi	sp, sp, -0x30
0x80001350: 02 11 26 23 sw	ra, 0x2c(sp)
0x80001354: 00 01 2a 23 sw	zero, 0x14(sp)
0x80001358: 00 01 2c 23 sw	zero, 0x18(sp)
0x8000135c: 00 01 2e 23 sw	zero, 0x1c(sp)
0x80001360: 00 b0 06 93 addi	a3, zero, 0xb
0x80001364: 00 40 07 13 addi	a4, zero, 0x4
0x80001368: 02 d6 0c 63 beq	a2, a3, 0x800013a0
0x800013a0: 04 45 26 03 lw	a2, 0x44(a0)
0x800013a4: ff f0 06 93 addi	a3, zero, -0x1
0x800013a8: 00 10 07 13 addi	a4, zero, 0x1
0x800013ac: fc d6 00 e3 beq	a2, a3, 0x8000136c
0x8000136c: 00 e1 20 23 sw	a4, 0x0(sp)
0x80001370: 01 41 27 03 lw	a4, 0x14(sp)
0x80001374: 00 01 05 13 addi	a0, sp, 0x0
0x80001378: 00 e1 22 23 sw	a4, 0x4(sp)
0x8000137c: 01 81 27 03 lw	a4, 0x18(sp)
0x80001380: 00 e1 24 23 sw	a4, 0x8(sp)
0x80001384: 01 c1 27 03 lw	a4, 0x1c(sp)
0x80001388: 00 e1 26 23 sw	a4, 0xc(sp)
0x8000138c: 00 07 80 e7 jalr	ra, 0x0(a5)
0x800001e0: 00 05 27 83 lw	a5, 0x0(a0)
0x800001e4: ff 01 01 13 addi	sp, sp, -0x10
0x800001e8: 00 81 24 23 sw	s0, 0x8(sp)
0x800001ec: 00 11 26 23 sw	ra, 0xc(sp)
0x800001f0: 00 50 07 13 addi	a4, zero, 0x5
0x800001f4: 00 05 84 13 addi	s0, a1, 0x0
0x800001f8: 04 e7 86 63 beq	a5, a4, 0x80000244
0x800001fc: 00 60 07 13 addi	a4, zero, 0x6
0x80000200: 02 e7 84 63 beq	a5, a4, 0x80000228
0x80000204: 00 10 07 13 addi	a4, zero, 0x1
0x80000208: 04 e7 9c 63 bne	a5, a4, 0x80000260
0x8000020c: 07 90 05 13 addi	a0, zero, 0x79
0x80000210: 59 90 00 ef jal	ra, 0x80000fa8
0x80000fa8: a0 00 07 b7 lui	a5, 0xa0000
0x80000fac: 3e a7 8c 23 sb	a0, 0x3f8(a5)
0x80000fb0: 00 00 80 67 jalr	zero, 0x0(ra)
0x80000214: 00 c1 20 83 lw	ra, 0xc(sp)
0x80000218: 00 04 05 13 addi	a0, s0, 0x0
0x8000021c: 00 81 24 03 lw	s0, 0x8(sp)
0x80000220: 01 01 01 13 addi	sp, sp, 0x10
0x80000224: 00 00 80 67 jalr	zero, 0x0(ra)
0x80001390: 02 05 06 63 beq	a0, zero, 0x800013bc
0x80001394: 02 c1 20 83 lw	ra, 0x2c(sp)
0x80001398: 03 01 01 13 addi	sp, sp, 0x30
0x8000139c: 00 00 80 67 jalr	zero, 0x0(ra)
0x800014b8: 08 41 23 03 lw	t1, 0x84(sp)
0x800014bc: 08 81 23 83 lw	t2, 0x88(sp)
0x800014c0: 30 03 10 73 csrrw	zero, mstatus, t1
0x800014c4: 34 13 90 73 csrrw	zero, mepc, t2
0x800014c8: 00 41 20 83 lw	ra, 0x4(sp)
0x800014cc: 00 c1 21 83 lw	gp, 0xc(sp)
0x800014d0: 01 01 22 03 lw	tp, 0x10(sp)
0x800014d4: 01 41 22 83 lw	t0, 0x14(sp)
0x800014d8: 01 81 23 03 lw	t1, 0x18(sp)
0x800014dc: 01 c1 23 83 lw	t2, 0x1c(sp)
0x800014e0: 02 01 24 03 lw	s0, 0x20(sp)
0x800014e4: 02 41 24 83 lw	s1, 0x24(sp)
0x800014e8: 02 81 25 03 lw	a0, 0x28(sp)
0x800014ec: 02 c1 25 83 lw	a1, 0x2c(sp)
0x800014f0: 03 01 26 03 lw	a2, 0x30(sp)
0x800014f4: 03 41 26 83 lw	a3, 0x34(sp)
0x800014f8: 03 81 27 03 lw	a4, 0x38(sp)
0x800014fc: 03 c1 27 83 lw	a5, 0x3c(sp)
0x80001500: 04 01 28 03 lw	a6, 0x40(sp)
0x80001504: 04 41 28 83 lw	a7, 0x44(sp)
0x80001508: 04 81 29 03 lw	s2, 0x48(sp)
0x8000150c: 04 c1 29 83 lw	s3, 0x4c(sp)
0x80001510: 05 01 2a 03 lw	s4, 0x50(sp)
0x80001514: 05 41 2a 83 lw	s5, 0x54(sp)
0x80001518: 05 81 2b 03 lw	s6, 0x58(sp)
0x8000151c: 05 c1 2b 83 lw	s7, 0x5c(sp)
0x80001520: 06 01 2c 03 lw	s8, 0x60(sp)
0x80001524: 06 41 2c 83 lw	s9, 0x64(sp)
0x80001528: 06 81 2d 03 lw	s10, 0x68(sp)
0x8000152c: 06 c1 2d 83 lw	s11, 0x6c(sp)
0x80001530: 07 01 2e 03 lw	t3, 0x70(sp)
0x80001534: 07 41 2e 83 lw	t4, 0x74(sp)
0x80001538: 07 81 2f 03 lw	t5, 0x78(sp)
0x8000153c: 07 c1 2f 83 lw	t6, 0x7c(sp)
0x80001540: 08 c1 01 13 addi	sp, sp, 0x8c
0x80001544: 30 20 00 73 mret
0x80001400: 00 00 00 73 ecall
0x80001410: f7 41 01 13 addi	sp, sp, -0x8c
0x80001414: 00 11 22 23 sw	ra, 0x4(sp)
0x80001418: 00 31 26 23 sw	gp, 0xc(sp)
0x8000141c: 00 41 28 23 sw	tp, 0x10(sp)
0x80001420: 00 51 2a 23 sw	t0, 0x14(sp)
0x80001424: 00 61 2c 23 sw	t1, 0x18(sp)
0x80001428: 00 71 2e 23 sw	t2, 0x1c(sp)
0x8000142c: 02 81 20 23 sw	s0, 0x20(sp)
0x80001430: 02 91 22 23 sw	s1, 0x24(sp)
0x80001434: 02 a1 24 23 sw	a0, 0x28(sp)
0x80001438: 02 b1 26 23 sw	a1, 0x2c(sp)
0x8000143c: 02 c1 28 23 sw	a2, 0x30(sp)
0x80001440: 02 d1 2a 23 sw	a3, 0x34(sp)
0x80001444: 02 e1 2c 23 sw	a4, 0x38(sp)
0x80001448: 02 f1 2e 23 sw	a5, 0x3c(sp)
0x8000144c: 05 01 20 23 sw	a6, 0x40(sp)
0x80001450: 05 11 22 23 sw	a7, 0x44(sp)
0x80001454: 05 21 24 23 sw	s2, 0x48(sp)
0x80001458: 05 31 26 23 sw	s3, 0x4c(sp)
0x8000145c: 05 41 28 23 sw	s4, 0x50(sp)
0x80001460: 05 51 2a 23 sw	s5, 0x54(sp)
0x80001464: 05 61 2c 23 sw	s6, 0x58(sp)
0x80001468: 05 71 2e 23 sw	s7, 0x5c(sp)
0x8000146c: 07 81 20 23 sw	s8, 0x60(sp)
0x80001470: 07 91 22 23 sw	s9, 0x64(sp)
0x80001474: 07 a1 24 23 sw	s10, 0x68(sp)
0x80001478: 07 b1 26 23 sw	s11, 0x6c(sp)
0x8000147c: 07 c1 28 23 sw	t3, 0x70(sp)
0x80001480: 07 d1 2a 23 sw	t4, 0x74(sp)
0x80001484: 07 e1 2c 23 sw	t5, 0x78(sp)
0x80001488: 07 f1 2e 23 sw	t6, 0x7c(sp)
0x8000148c: 34 20 22 f3 csrrs	t0, mcause, zero
0x80001490: 30 00 23 73 csrrs	t1, mstatus, zero
0x80001494: 34 10 23 f3 csrrs	t2, mepc, zero
0x80001498: 08 51 20 23 sw	t0, 0x80(sp)
0x8000149c: 08 61 22 23 sw	t1, 0x84(sp)
0x800014a0: 08 71 24 23 sw	t2, 0x88(sp)
0x800014a4: 00 02 05 37 lui	a0, 0x20
0x800014a8: 00 a3 63 33 or	t1, t1, a0
0x800014ac: 30 03 10 73 csrrw	zero, mstatus, t1
0x800014b0: 00 01 05 13 addi	a0, sp, 0x0
0x800014b4: e8 5f f0 ef jal	ra, 0x80001338
0x80001338: 00 09 47 97 auipc	a5, 0x94
0x8000133c: c6 07 a7 83 lw	a5, -0x3a0(a5)
0x80001340: 00 05 05 93 addi	a1, a0, 0x0
0x80001344: 06 07 8a 63 beq	a5, zero, 0x800013b8
0x80001348: 08 05 26 03 lw	a2, 0x80(a0)
0x8000134c: fd 01 01 13 addi	sp, sp, -0x30
0x80001350: 02 11 26 23 sw	ra, 0x2c(sp)
0x80001354: 00 01 2a 23 sw	zero, 0x14(sp)
0x80001358: 00 01 2c 23 sw	zero, 0x18(sp)
0x8000135c: 00 01 2e 23 sw	zero, 0x1c(sp)
0x80001360: 00 b0 06 93 addi	a3, zero, 0xb
0x80001364: 00 40 07 13 addi	a4, zero, 0x4
0x80001368: 02 d6 0c 63 beq	a2, a3, 0x800013a0
0x800013a0: 04 45 26 03 lw	a2, 0x44(a0)
0x800013a4: ff f0 06 93 addi	a3, zero, -0x1
0x800013a8: 00 10 07 13 addi	a4, zero, 0x1
0x800013ac: fc d6 00 e3 beq	a2, a3, 0x8000136c
0x8000136c: 00 e1 20 23 sw	a4, 0x0(sp)
0x80001370: 01 41 27 03 lw	a4, 0x14(sp)
0x80001374: 00 01 05 13 addi	a0, sp, 0x0
0x80001378: 00 e1 22 23 sw	a4, 0x4(sp)
0x8000137c: 01 81 27 03 lw	a4, 0x18(sp)
0x80001380: 00 e1 24 23 sw	a4, 0x8(sp)
0x80001384: 01 c1 27 03 lw	a4, 0x1c(sp)
0x80001388: 00 e1 26 23 sw	a4, 0xc(sp)
0x8000138c: 00 07 80 e7 jalr	ra, 0x0(a5)
0x800001e0: 00 05 27 83 lw	a5, 0x0(a0)
0x800001e4: ff 01 01 13 addi	sp, sp, -0x10
0x800001e8: 00 81 24 23 sw	s0, 0x8(sp)
0x800001ec: 00 11 26 23 sw	ra, 0xc(sp)
0x800001f0: 00 50 07 13 addi	a4, zero, 0x5
0x800001f4: 00 05 84 13 addi	s0, a1, 0x0
0x800001f8: 04 e7 86 63 beq	a5, a4, 0x80000244
0x800001fc: 00 60 07 13 addi	a4, zero, 0x6
0x80000200: 02 e7 84 63 beq	a5, a4, 0x80000228
0x80000204: 00 10 07 13 addi	a4, zero, 0x1
0x80000208: 04 e7 9c 63 bne	a5, a4, 0x80000260
0x8000020c: 07 90 05 13 addi	a0, zero, 0x79
0x80000210: 59 90 00 ef jal	ra, 0x80000fa8
0x80000fa8: a0 00 07 b7 lui	a5, 0xa0000
0x80000fac: 3e a7 8c 23 sb	a0, 0x3f8(a5)
0x80000fb0: 00 00 80 67 jalr	zero, 0x0(ra)
0x80000214: 00 c1 20 83 lw	ra, 0xc(sp)
0x80000218: 00 04 05 13 addi	a0, s0, 0x0
0x8000021c: 00 81 24 03 lw	s0, 0x8(sp)
0x80000220: 01 01 01 13 addi	sp, sp, 0x10
0x80000224: 00 00 80 67 jalr	zero, 0x0(ra)
0x80001390: 02 05 06 63 beq	a0, zero, 0x800013bc
0x80001394: 02 c1 20 83 lw	ra, 0x2c(sp)
0x80001398: 03 01 01 13 addi	sp, sp, 0x30
0x8000139c: 00 00 80 67 jalr	zero, 0x0(ra)
0x800014b8: 08 41 23 03 lw	t1, 0x84(sp)
0x800014bc: 08 81 23 83 lw	t2, 0x88(sp)
0x800014c0: 30 03 10 73 csrrw	zero, mstatus, t1
0x800014c4: 34 13 90 73 csrrw	zero, mepc, t2
0x800014c8: 00 41 20 83 lw	ra, 0x4(sp)
0x800014cc: 00 c1 21 83 lw	gp, 0xc(sp)
0x800014d0: 01 01 22 03 lw	tp, 0x10(sp)
0x800014d4: 01 41 22 83 lw	t0, 0x14(sp)
0x800014d8: 01 81 23 03 lw	t1, 0x18(sp)
0x800014dc: 01 c1 23 83 lw	t2, 0x1c(sp)
0x800014e0: 02 01 24 03 lw	s0, 0x20(sp)
0x800014e4: 02 41 24 83 lw	s1, 0x24(sp)
0x800014e8: 02 81 25 03 lw	a0, 0x28(sp)
0x800014ec: 02 c1 25 83 lw	a1, 0x2c(sp)
0x800014f0: 03 01 26 03 lw	a2, 0x30(sp)
0x800014f4: 03 41 26 83 lw	a3, 0x34(sp)
0x800014f8: 03 81 27 03 lw	a4, 0x38(sp)
0x800014fc: 03 c1 27 83 lw	a5, 0x3c(sp)
0x80001500: 04 01 28 03 lw	a6, 0x40(sp)
0x80001504: 04 41 28 83 lw	a7, 0x44(sp)
0x80001508: 04 81 29 03 lw	s2, 0x48(sp)
0x8000150c: 04 c1 29 83 lw	s3, 0x4c(sp)
0x80001510: 05 01 2a 03 lw	s4, 0x50(sp)
0x80001514: 05 41 2a 83 lw	s5, 0x54(sp)
0x80001518: 05 81 2b 03 lw	s6, 0x58(sp)
0x8000151c: 05 c1 2b 83 lw	s7, 0x5c(sp)
0x80001520: 06 01 2c 03 lw	s8, 0x60(sp)
0x80001524: 06 41 2c 83 lw	s9, 0x64(sp)
0x80001528: 06 81 2d 03 lw	s10, 0x68(sp)
0x8000152c: 06 c1 2d 83 lw	s11, 0x6c(sp)
0x80001530: 07 01 2e 03 lw	t3, 0x70(sp)
0x80001534: 07 41 2e 83 lw	t4, 0x74(sp)
0x80001538: 07 81 2f 03 lw	t5, 0x78(sp)
0x8000153c: 07 c1 2f 83 lw	t6, 0x7c(sp)
0x80001540: 08 c1 01 13 addi	sp, sp, 0x8c
0x80001544: 30 20 00 73 mret
0x80001400: 00 00 00 73 ecall
0x80001410: f7 41 01 13 addi	sp, sp, -0x8c
0x80001414: 00 11 22 23 sw	ra, 0x4(sp)
0x80001418: 00 31 26 23 sw	gp, 0xc(sp)
0x8000141c: 00 41 28 23 sw	tp, 0x10(sp)
0x80001420: 00 51 2a 23 sw	t0, 0x14(sp)
0x80001424: 00 61 2c 23 sw	t1, 0x18(sp)
0x80001428: 00 71 2e 23 sw	t2, 0x1c(sp)
0x8000142c: 02 81 20 23 sw	s0, 0x20(sp)
0x80001430: 02 91 22 23 sw	s1, 0x24(sp)
0x80001434: 02 a1 24 23 sw	a0, 0x28(sp)
0x80001438: 02 b1 26 23 sw	a1, 0x2c(sp)
0x8000143c: 02 c1 28 23 sw	a2, 0x30(sp)
0x80001440: 02 d1 2a 23 sw	a3, 0x34(sp)
0x80001444: 02 e1 2c 23 sw	a4, 0x38(sp)
0x80001448: 02 f1 2e 23 sw	a5, 0x3c(sp)
0x8000144c: 05 01 20 23 sw	a6, 0x40(sp)
0x80001450: 05 11 22 23 sw	a7, 0x44(sp)
0x80001454: 05 21 24 23 sw	s2, 0x48(sp)
0x80001458: 05 31 26 23 sw	s3, 0x4c(sp)
0x8000145c: 05 41 28 23 sw	s4, 0x50(sp)
0x80001460: 05 51 2a 23 sw	s5, 0x54(sp)
0x80001464: 05 61 2c 23 sw	s6, 0x58(sp)
0x80001468: 05 71 2e 23 sw	s7, 0x5c(sp)
0x8000146c: 07 81 20 23 sw	s8, 0x60(sp)
0x80001470: 07 91 22 23 sw	s9, 0x64(sp)
0x80001474: 07 a1 24 23 sw	s10, 0x68(sp)
0x80001478: 07 b1 26 23 sw	s11, 0x6c(sp)
0x8000147c: 07 c1 28 23 sw	t3, 0x70(sp)
0x80001480: 07 d1 2a 23 sw	t4, 0x74(sp)
0x80001484: 07 e1 2c 23 sw	t5, 0x78(sp)
